
HackKosice.elf:     file format elf32-littlearm

Sections:
Idx Name          Size      VMA       LMA       File off  Algn
  0 .isr_vector   000000bc  08000000  08000000  00010000  2**0
                  CONTENTS, ALLOC, LOAD, READONLY, DATA
  1 .text         00004c38  080000bc  080000bc  000100bc  2**2
                  CONTENTS, ALLOC, LOAD, READONLY, CODE
  2 .rodata       000000b0  08004cf4  08004cf4  00014cf4  2**2
                  CONTENTS, ALLOC, LOAD, READONLY, DATA
  3 .ARM.extab    00000000  08004da4  08004da4  0002000c  2**0
                  CONTENTS
  4 .ARM          00000008  08004da4  08004da4  00014da4  2**2
                  CONTENTS, ALLOC, LOAD, READONLY, DATA
  5 .preinit_array 00000000  08004dac  08004dac  0002000c  2**0
                  CONTENTS, ALLOC, LOAD, DATA
  6 .init_array   00000004  08004dac  08004dac  00014dac  2**2
                  CONTENTS, ALLOC, LOAD, DATA
  7 .fini_array   00000004  08004db0  08004db0  00014db0  2**2
                  CONTENTS, ALLOC, LOAD, DATA
  8 .data         0000000c  20000000  08004db4  00020000  2**2
                  CONTENTS, ALLOC, LOAD, DATA
  9 .bss          000001dc  2000000c  08004dc0  0002000c  2**2
                  ALLOC
 10 ._user_heap_stack 00000600  200001e8  08004dc0  000201e8  2**0
                  ALLOC
 11 .ARM.attributes 00000028  00000000  00000000  0002000c  2**0
                  CONTENTS, READONLY
 12 .debug_info   0001631a  00000000  00000000  00020034  2**0
                  CONTENTS, READONLY, DEBUGGING, OCTETS
 13 .debug_abbrev 0000298b  00000000  00000000  0003634e  2**0
                  CONTENTS, READONLY, DEBUGGING, OCTETS
 14 .debug_aranges 000012b8  00000000  00000000  00038ce0  2**3
                  CONTENTS, READONLY, DEBUGGING, OCTETS
 15 .debug_ranges 000011b0  00000000  00000000  00039f98  2**3
                  CONTENTS, READONLY, DEBUGGING, OCTETS
 16 .debug_macro  0001d291  00000000  00000000  0003b148  2**0
                  CONTENTS, READONLY, DEBUGGING, OCTETS
 17 .debug_line   00016b5d  00000000  00000000  000583d9  2**0
                  CONTENTS, READONLY, DEBUGGING, OCTETS
 18 .debug_str    000c0241  00000000  00000000  0006ef36  2**0
                  CONTENTS, READONLY, DEBUGGING, OCTETS
 19 .comment      00000050  00000000  00000000  0012f177  2**0
                  CONTENTS, READONLY
 20 .debug_frame  00004480  00000000  00000000  0012f1c8  2**2
                  CONTENTS, READONLY, DEBUGGING, OCTETS

Disassembly of section .text:

080000bc <__do_global_dtors_aux>:
 80000bc:	b510      	push	{r4, lr}
 80000be:	4c06      	ldr	r4, [pc, #24]	; (80000d8 <__do_global_dtors_aux+0x1c>)
 80000c0:	7823      	ldrb	r3, [r4, #0]
 80000c2:	2b00      	cmp	r3, #0
 80000c4:	d107      	bne.n	80000d6 <__do_global_dtors_aux+0x1a>
 80000c6:	4b05      	ldr	r3, [pc, #20]	; (80000dc <__do_global_dtors_aux+0x20>)
 80000c8:	2b00      	cmp	r3, #0
 80000ca:	d002      	beq.n	80000d2 <__do_global_dtors_aux+0x16>
 80000cc:	4804      	ldr	r0, [pc, #16]	; (80000e0 <__do_global_dtors_aux+0x24>)
 80000ce:	e000      	b.n	80000d2 <__do_global_dtors_aux+0x16>
 80000d0:	bf00      	nop
 80000d2:	2301      	movs	r3, #1
 80000d4:	7023      	strb	r3, [r4, #0]
 80000d6:	bd10      	pop	{r4, pc}
 80000d8:	2000000c 	.word	0x2000000c
 80000dc:	00000000 	.word	0x00000000
 80000e0:	08004cdc 	.word	0x08004cdc

080000e4 <frame_dummy>:
 80000e4:	4b04      	ldr	r3, [pc, #16]	; (80000f8 <frame_dummy+0x14>)
 80000e6:	b510      	push	{r4, lr}
 80000e8:	2b00      	cmp	r3, #0
 80000ea:	d003      	beq.n	80000f4 <frame_dummy+0x10>
 80000ec:	4903      	ldr	r1, [pc, #12]	; (80000fc <frame_dummy+0x18>)
 80000ee:	4804      	ldr	r0, [pc, #16]	; (8000100 <frame_dummy+0x1c>)
 80000f0:	e000      	b.n	80000f4 <frame_dummy+0x10>
 80000f2:	bf00      	nop
 80000f4:	bd10      	pop	{r4, pc}
 80000f6:	46c0      	nop			; (mov r8, r8)
 80000f8:	00000000 	.word	0x00000000
 80000fc:	20000010 	.word	0x20000010
 8000100:	08004cdc 	.word	0x08004cdc

08000104 <__udivsi3>:
 8000104:	2200      	movs	r2, #0
 8000106:	0843      	lsrs	r3, r0, #1
 8000108:	428b      	cmp	r3, r1
 800010a:	d374      	bcc.n	80001f6 <__udivsi3+0xf2>
 800010c:	0903      	lsrs	r3, r0, #4
 800010e:	428b      	cmp	r3, r1
 8000110:	d35f      	bcc.n	80001d2 <__udivsi3+0xce>
 8000112:	0a03      	lsrs	r3, r0, #8
 8000114:	428b      	cmp	r3, r1
 8000116:	d344      	bcc.n	80001a2 <__udivsi3+0x9e>
 8000118:	0b03      	lsrs	r3, r0, #12
 800011a:	428b      	cmp	r3, r1
 800011c:	d328      	bcc.n	8000170 <__udivsi3+0x6c>
 800011e:	0c03      	lsrs	r3, r0, #16
 8000120:	428b      	cmp	r3, r1
 8000122:	d30d      	bcc.n	8000140 <__udivsi3+0x3c>
 8000124:	22ff      	movs	r2, #255	; 0xff
 8000126:	0209      	lsls	r1, r1, #8
 8000128:	ba12      	rev	r2, r2
 800012a:	0c03      	lsrs	r3, r0, #16
 800012c:	428b      	cmp	r3, r1
 800012e:	d302      	bcc.n	8000136 <__udivsi3+0x32>
 8000130:	1212      	asrs	r2, r2, #8
 8000132:	0209      	lsls	r1, r1, #8
 8000134:	d065      	beq.n	8000202 <__udivsi3+0xfe>
 8000136:	0b03      	lsrs	r3, r0, #12
 8000138:	428b      	cmp	r3, r1
 800013a:	d319      	bcc.n	8000170 <__udivsi3+0x6c>
 800013c:	e000      	b.n	8000140 <__udivsi3+0x3c>
 800013e:	0a09      	lsrs	r1, r1, #8
 8000140:	0bc3      	lsrs	r3, r0, #15
 8000142:	428b      	cmp	r3, r1
 8000144:	d301      	bcc.n	800014a <__udivsi3+0x46>
 8000146:	03cb      	lsls	r3, r1, #15
 8000148:	1ac0      	subs	r0, r0, r3
 800014a:	4152      	adcs	r2, r2
 800014c:	0b83      	lsrs	r3, r0, #14
 800014e:	428b      	cmp	r3, r1
 8000150:	d301      	bcc.n	8000156 <__udivsi3+0x52>
 8000152:	038b      	lsls	r3, r1, #14
 8000154:	1ac0      	subs	r0, r0, r3
 8000156:	4152      	adcs	r2, r2
 8000158:	0b43      	lsrs	r3, r0, #13
 800015a:	428b      	cmp	r3, r1
 800015c:	d301      	bcc.n	8000162 <__udivsi3+0x5e>
 800015e:	034b      	lsls	r3, r1, #13
 8000160:	1ac0      	subs	r0, r0, r3
 8000162:	4152      	adcs	r2, r2
 8000164:	0b03      	lsrs	r3, r0, #12
 8000166:	428b      	cmp	r3, r1
 8000168:	d301      	bcc.n	800016e <__udivsi3+0x6a>
 800016a:	030b      	lsls	r3, r1, #12
 800016c:	1ac0      	subs	r0, r0, r3
 800016e:	4152      	adcs	r2, r2
 8000170:	0ac3      	lsrs	r3, r0, #11
 8000172:	428b      	cmp	r3, r1
 8000174:	d301      	bcc.n	800017a <__udivsi3+0x76>
 8000176:	02cb      	lsls	r3, r1, #11
 8000178:	1ac0      	subs	r0, r0, r3
 800017a:	4152      	adcs	r2, r2
 800017c:	0a83      	lsrs	r3, r0, #10
 800017e:	428b      	cmp	r3, r1
 8000180:	d301      	bcc.n	8000186 <__udivsi3+0x82>
 8000182:	028b      	lsls	r3, r1, #10
 8000184:	1ac0      	subs	r0, r0, r3
 8000186:	4152      	adcs	r2, r2
 8000188:	0a43      	lsrs	r3, r0, #9
 800018a:	428b      	cmp	r3, r1
 800018c:	d301      	bcc.n	8000192 <__udivsi3+0x8e>
 800018e:	024b      	lsls	r3, r1, #9
 8000190:	1ac0      	subs	r0, r0, r3
 8000192:	4152      	adcs	r2, r2
 8000194:	0a03      	lsrs	r3, r0, #8
 8000196:	428b      	cmp	r3, r1
 8000198:	d301      	bcc.n	800019e <__udivsi3+0x9a>
 800019a:	020b      	lsls	r3, r1, #8
 800019c:	1ac0      	subs	r0, r0, r3
 800019e:	4152      	adcs	r2, r2
 80001a0:	d2cd      	bcs.n	800013e <__udivsi3+0x3a>
 80001a2:	09c3      	lsrs	r3, r0, #7
 80001a4:	428b      	cmp	r3, r1
 80001a6:	d301      	bcc.n	80001ac <__udivsi3+0xa8>
 80001a8:	01cb      	lsls	r3, r1, #7
 80001aa:	1ac0      	subs	r0, r0, r3
 80001ac:	4152      	adcs	r2, r2
 80001ae:	0983      	lsrs	r3, r0, #6
 80001b0:	428b      	cmp	r3, r1
 80001b2:	d301      	bcc.n	80001b8 <__udivsi3+0xb4>
 80001b4:	018b      	lsls	r3, r1, #6
 80001b6:	1ac0      	subs	r0, r0, r3
 80001b8:	4152      	adcs	r2, r2
 80001ba:	0943      	lsrs	r3, r0, #5
 80001bc:	428b      	cmp	r3, r1
 80001be:	d301      	bcc.n	80001c4 <__udivsi3+0xc0>
 80001c0:	014b      	lsls	r3, r1, #5
 80001c2:	1ac0      	subs	r0, r0, r3
 80001c4:	4152      	adcs	r2, r2
 80001c6:	0903      	lsrs	r3, r0, #4
 80001c8:	428b      	cmp	r3, r1
 80001ca:	d301      	bcc.n	80001d0 <__udivsi3+0xcc>
 80001cc:	010b      	lsls	r3, r1, #4
 80001ce:	1ac0      	subs	r0, r0, r3
 80001d0:	4152      	adcs	r2, r2
 80001d2:	08c3      	lsrs	r3, r0, #3
 80001d4:	428b      	cmp	r3, r1
 80001d6:	d301      	bcc.n	80001dc <__udivsi3+0xd8>
 80001d8:	00cb      	lsls	r3, r1, #3
 80001da:	1ac0      	subs	r0, r0, r3
 80001dc:	4152      	adcs	r2, r2
 80001de:	0883      	lsrs	r3, r0, #2
 80001e0:	428b      	cmp	r3, r1
 80001e2:	d301      	bcc.n	80001e8 <__udivsi3+0xe4>
 80001e4:	008b      	lsls	r3, r1, #2
 80001e6:	1ac0      	subs	r0, r0, r3
 80001e8:	4152      	adcs	r2, r2
 80001ea:	0843      	lsrs	r3, r0, #1
 80001ec:	428b      	cmp	r3, r1
 80001ee:	d301      	bcc.n	80001f4 <__udivsi3+0xf0>
 80001f0:	004b      	lsls	r3, r1, #1
 80001f2:	1ac0      	subs	r0, r0, r3
 80001f4:	4152      	adcs	r2, r2
 80001f6:	1a41      	subs	r1, r0, r1
 80001f8:	d200      	bcs.n	80001fc <__udivsi3+0xf8>
 80001fa:	4601      	mov	r1, r0
 80001fc:	4152      	adcs	r2, r2
 80001fe:	4610      	mov	r0, r2
 8000200:	4770      	bx	lr
 8000202:	e7ff      	b.n	8000204 <__udivsi3+0x100>
 8000204:	b501      	push	{r0, lr}
 8000206:	2000      	movs	r0, #0
 8000208:	f000 f8f0 	bl	80003ec <__aeabi_idiv0>
 800020c:	bd02      	pop	{r1, pc}
 800020e:	46c0      	nop			; (mov r8, r8)

08000210 <__aeabi_uidivmod>:
 8000210:	2900      	cmp	r1, #0
 8000212:	d0f7      	beq.n	8000204 <__udivsi3+0x100>
 8000214:	e776      	b.n	8000104 <__udivsi3>
 8000216:	4770      	bx	lr

08000218 <__divsi3>:
 8000218:	4603      	mov	r3, r0
 800021a:	430b      	orrs	r3, r1
 800021c:	d47f      	bmi.n	800031e <__divsi3+0x106>
 800021e:	2200      	movs	r2, #0
 8000220:	0843      	lsrs	r3, r0, #1
 8000222:	428b      	cmp	r3, r1
 8000224:	d374      	bcc.n	8000310 <__divsi3+0xf8>
 8000226:	0903      	lsrs	r3, r0, #4
 8000228:	428b      	cmp	r3, r1
 800022a:	d35f      	bcc.n	80002ec <__divsi3+0xd4>
 800022c:	0a03      	lsrs	r3, r0, #8
 800022e:	428b      	cmp	r3, r1
 8000230:	d344      	bcc.n	80002bc <__divsi3+0xa4>
 8000232:	0b03      	lsrs	r3, r0, #12
 8000234:	428b      	cmp	r3, r1
 8000236:	d328      	bcc.n	800028a <__divsi3+0x72>
 8000238:	0c03      	lsrs	r3, r0, #16
 800023a:	428b      	cmp	r3, r1
 800023c:	d30d      	bcc.n	800025a <__divsi3+0x42>
 800023e:	22ff      	movs	r2, #255	; 0xff
 8000240:	0209      	lsls	r1, r1, #8
 8000242:	ba12      	rev	r2, r2
 8000244:	0c03      	lsrs	r3, r0, #16
 8000246:	428b      	cmp	r3, r1
 8000248:	d302      	bcc.n	8000250 <__divsi3+0x38>
 800024a:	1212      	asrs	r2, r2, #8
 800024c:	0209      	lsls	r1, r1, #8
 800024e:	d065      	beq.n	800031c <__divsi3+0x104>
 8000250:	0b03      	lsrs	r3, r0, #12
 8000252:	428b      	cmp	r3, r1
 8000254:	d319      	bcc.n	800028a <__divsi3+0x72>
 8000256:	e000      	b.n	800025a <__divsi3+0x42>
 8000258:	0a09      	lsrs	r1, r1, #8
 800025a:	0bc3      	lsrs	r3, r0, #15
 800025c:	428b      	cmp	r3, r1
 800025e:	d301      	bcc.n	8000264 <__divsi3+0x4c>
 8000260:	03cb      	lsls	r3, r1, #15
 8000262:	1ac0      	subs	r0, r0, r3
 8000264:	4152      	adcs	r2, r2
 8000266:	0b83      	lsrs	r3, r0, #14
 8000268:	428b      	cmp	r3, r1
 800026a:	d301      	bcc.n	8000270 <__divsi3+0x58>
 800026c:	038b      	lsls	r3, r1, #14
 800026e:	1ac0      	subs	r0, r0, r3
 8000270:	4152      	adcs	r2, r2
 8000272:	0b43      	lsrs	r3, r0, #13
 8000274:	428b      	cmp	r3, r1
 8000276:	d301      	bcc.n	800027c <__divsi3+0x64>
 8000278:	034b      	lsls	r3, r1, #13
 800027a:	1ac0      	subs	r0, r0, r3
 800027c:	4152      	adcs	r2, r2
 800027e:	0b03      	lsrs	r3, r0, #12
 8000280:	428b      	cmp	r3, r1
 8000282:	d301      	bcc.n	8000288 <__divsi3+0x70>
 8000284:	030b      	lsls	r3, r1, #12
 8000286:	1ac0      	subs	r0, r0, r3
 8000288:	4152      	adcs	r2, r2
 800028a:	0ac3      	lsrs	r3, r0, #11
 800028c:	428b      	cmp	r3, r1
 800028e:	d301      	bcc.n	8000294 <__divsi3+0x7c>
 8000290:	02cb      	lsls	r3, r1, #11
 8000292:	1ac0      	subs	r0, r0, r3
 8000294:	4152      	adcs	r2, r2
 8000296:	0a83      	lsrs	r3, r0, #10
 8000298:	428b      	cmp	r3, r1
 800029a:	d301      	bcc.n	80002a0 <__divsi3+0x88>
 800029c:	028b      	lsls	r3, r1, #10
 800029e:	1ac0      	subs	r0, r0, r3
 80002a0:	4152      	adcs	r2, r2
 80002a2:	0a43      	lsrs	r3, r0, #9
 80002a4:	428b      	cmp	r3, r1
 80002a6:	d301      	bcc.n	80002ac <__divsi3+0x94>
 80002a8:	024b      	lsls	r3, r1, #9
 80002aa:	1ac0      	subs	r0, r0, r3
 80002ac:	4152      	adcs	r2, r2
 80002ae:	0a03      	lsrs	r3, r0, #8
 80002b0:	428b      	cmp	r3, r1
 80002b2:	d301      	bcc.n	80002b8 <__divsi3+0xa0>
 80002b4:	020b      	lsls	r3, r1, #8
 80002b6:	1ac0      	subs	r0, r0, r3
 80002b8:	4152      	adcs	r2, r2
 80002ba:	d2cd      	bcs.n	8000258 <__divsi3+0x40>
 80002bc:	09c3      	lsrs	r3, r0, #7
 80002be:	428b      	cmp	r3, r1
 80002c0:	d301      	bcc.n	80002c6 <__divsi3+0xae>
 80002c2:	01cb      	lsls	r3, r1, #7
 80002c4:	1ac0      	subs	r0, r0, r3
 80002c6:	4152      	adcs	r2, r2
 80002c8:	0983      	lsrs	r3, r0, #6
 80002ca:	428b      	cmp	r3, r1
 80002cc:	d301      	bcc.n	80002d2 <__divsi3+0xba>
 80002ce:	018b      	lsls	r3, r1, #6
 80002d0:	1ac0      	subs	r0, r0, r3
 80002d2:	4152      	adcs	r2, r2
 80002d4:	0943      	lsrs	r3, r0, #5
 80002d6:	428b      	cmp	r3, r1
 80002d8:	d301      	bcc.n	80002de <__divsi3+0xc6>
 80002da:	014b      	lsls	r3, r1, #5
 80002dc:	1ac0      	subs	r0, r0, r3
 80002de:	4152      	adcs	r2, r2
 80002e0:	0903      	lsrs	r3, r0, #4
 80002e2:	428b      	cmp	r3, r1
 80002e4:	d301      	bcc.n	80002ea <__divsi3+0xd2>
 80002e6:	010b      	lsls	r3, r1, #4
 80002e8:	1ac0      	subs	r0, r0, r3
 80002ea:	4152      	adcs	r2, r2
 80002ec:	08c3      	lsrs	r3, r0, #3
 80002ee:	428b      	cmp	r3, r1
 80002f0:	d301      	bcc.n	80002f6 <__divsi3+0xde>
 80002f2:	00cb      	lsls	r3, r1, #3
 80002f4:	1ac0      	subs	r0, r0, r3
 80002f6:	4152      	adcs	r2, r2
 80002f8:	0883      	lsrs	r3, r0, #2
 80002fa:	428b      	cmp	r3, r1
 80002fc:	d301      	bcc.n	8000302 <__divsi3+0xea>
 80002fe:	008b      	lsls	r3, r1, #2
 8000300:	1ac0      	subs	r0, r0, r3
 8000302:	4152      	adcs	r2, r2
 8000304:	0843      	lsrs	r3, r0, #1
 8000306:	428b      	cmp	r3, r1
 8000308:	d301      	bcc.n	800030e <__divsi3+0xf6>
 800030a:	004b      	lsls	r3, r1, #1
 800030c:	1ac0      	subs	r0, r0, r3
 800030e:	4152      	adcs	r2, r2
 8000310:	1a41      	subs	r1, r0, r1
 8000312:	d200      	bcs.n	8000316 <__divsi3+0xfe>
 8000314:	4601      	mov	r1, r0
 8000316:	4152      	adcs	r2, r2
 8000318:	4610      	mov	r0, r2
 800031a:	4770      	bx	lr
 800031c:	e05d      	b.n	80003da <__divsi3+0x1c2>
 800031e:	0fca      	lsrs	r2, r1, #31
 8000320:	d000      	beq.n	8000324 <__divsi3+0x10c>
 8000322:	4249      	negs	r1, r1
 8000324:	1003      	asrs	r3, r0, #32
 8000326:	d300      	bcc.n	800032a <__divsi3+0x112>
 8000328:	4240      	negs	r0, r0
 800032a:	4053      	eors	r3, r2
 800032c:	2200      	movs	r2, #0
 800032e:	469c      	mov	ip, r3
 8000330:	0903      	lsrs	r3, r0, #4
 8000332:	428b      	cmp	r3, r1
 8000334:	d32d      	bcc.n	8000392 <__divsi3+0x17a>
 8000336:	0a03      	lsrs	r3, r0, #8
 8000338:	428b      	cmp	r3, r1
 800033a:	d312      	bcc.n	8000362 <__divsi3+0x14a>
 800033c:	22fc      	movs	r2, #252	; 0xfc
 800033e:	0189      	lsls	r1, r1, #6
 8000340:	ba12      	rev	r2, r2
 8000342:	0a03      	lsrs	r3, r0, #8
 8000344:	428b      	cmp	r3, r1
 8000346:	d30c      	bcc.n	8000362 <__divsi3+0x14a>
 8000348:	0189      	lsls	r1, r1, #6
 800034a:	1192      	asrs	r2, r2, #6
 800034c:	428b      	cmp	r3, r1
 800034e:	d308      	bcc.n	8000362 <__divsi3+0x14a>
 8000350:	0189      	lsls	r1, r1, #6
 8000352:	1192      	asrs	r2, r2, #6
 8000354:	428b      	cmp	r3, r1
 8000356:	d304      	bcc.n	8000362 <__divsi3+0x14a>
 8000358:	0189      	lsls	r1, r1, #6
 800035a:	d03a      	beq.n	80003d2 <__divsi3+0x1ba>
 800035c:	1192      	asrs	r2, r2, #6
 800035e:	e000      	b.n	8000362 <__divsi3+0x14a>
 8000360:	0989      	lsrs	r1, r1, #6
 8000362:	09c3      	lsrs	r3, r0, #7
 8000364:	428b      	cmp	r3, r1
 8000366:	d301      	bcc.n	800036c <__divsi3+0x154>
 8000368:	01cb      	lsls	r3, r1, #7
 800036a:	1ac0      	subs	r0, r0, r3
 800036c:	4152      	adcs	r2, r2
 800036e:	0983      	lsrs	r3, r0, #6
 8000370:	428b      	cmp	r3, r1
 8000372:	d301      	bcc.n	8000378 <__divsi3+0x160>
 8000374:	018b      	lsls	r3, r1, #6
 8000376:	1ac0      	subs	r0, r0, r3
 8000378:	4152      	adcs	r2, r2
 800037a:	0943      	lsrs	r3, r0, #5
 800037c:	428b      	cmp	r3, r1
 800037e:	d301      	bcc.n	8000384 <__divsi3+0x16c>
 8000380:	014b      	lsls	r3, r1, #5
 8000382:	1ac0      	subs	r0, r0, r3
 8000384:	4152      	adcs	r2, r2
 8000386:	0903      	lsrs	r3, r0, #4
 8000388:	428b      	cmp	r3, r1
 800038a:	d301      	bcc.n	8000390 <__divsi3+0x178>
 800038c:	010b      	lsls	r3, r1, #4
 800038e:	1ac0      	subs	r0, r0, r3
 8000390:	4152      	adcs	r2, r2
 8000392:	08c3      	lsrs	r3, r0, #3
 8000394:	428b      	cmp	r3, r1
 8000396:	d301      	bcc.n	800039c <__divsi3+0x184>
 8000398:	00cb      	lsls	r3, r1, #3
 800039a:	1ac0      	subs	r0, r0, r3
 800039c:	4152      	adcs	r2, r2
 800039e:	0883      	lsrs	r3, r0, #2
 80003a0:	428b      	cmp	r3, r1
 80003a2:	d301      	bcc.n	80003a8 <__divsi3+0x190>
 80003a4:	008b      	lsls	r3, r1, #2
 80003a6:	1ac0      	subs	r0, r0, r3
 80003a8:	4152      	adcs	r2, r2
 80003aa:	d2d9      	bcs.n	8000360 <__divsi3+0x148>
 80003ac:	0843      	lsrs	r3, r0, #1
 80003ae:	428b      	cmp	r3, r1
 80003b0:	d301      	bcc.n	80003b6 <__divsi3+0x19e>
 80003b2:	004b      	lsls	r3, r1, #1
 80003b4:	1ac0      	subs	r0, r0, r3
 80003b6:	4152      	adcs	r2, r2
 80003b8:	1a41      	subs	r1, r0, r1
 80003ba:	d200      	bcs.n	80003be <__divsi3+0x1a6>
 80003bc:	4601      	mov	r1, r0
 80003be:	4663      	mov	r3, ip
 80003c0:	4152      	adcs	r2, r2
 80003c2:	105b      	asrs	r3, r3, #1
 80003c4:	4610      	mov	r0, r2
 80003c6:	d301      	bcc.n	80003cc <__divsi3+0x1b4>
 80003c8:	4240      	negs	r0, r0
 80003ca:	2b00      	cmp	r3, #0
 80003cc:	d500      	bpl.n	80003d0 <__divsi3+0x1b8>
 80003ce:	4249      	negs	r1, r1
 80003d0:	4770      	bx	lr
 80003d2:	4663      	mov	r3, ip
 80003d4:	105b      	asrs	r3, r3, #1
 80003d6:	d300      	bcc.n	80003da <__divsi3+0x1c2>
 80003d8:	4240      	negs	r0, r0
 80003da:	b501      	push	{r0, lr}
 80003dc:	2000      	movs	r0, #0
 80003de:	f000 f805 	bl	80003ec <__aeabi_idiv0>
 80003e2:	bd02      	pop	{r1, pc}

080003e4 <__aeabi_idivmod>:
 80003e4:	2900      	cmp	r1, #0
 80003e6:	d0f8      	beq.n	80003da <__divsi3+0x1c2>
 80003e8:	e716      	b.n	8000218 <__divsi3>
 80003ea:	4770      	bx	lr

080003ec <__aeabi_idiv0>:
 80003ec:	4770      	bx	lr
 80003ee:	46c0      	nop			; (mov r8, r8)

080003f0 <__aeabi_uldivmod>:
 80003f0:	2b00      	cmp	r3, #0
 80003f2:	d111      	bne.n	8000418 <__aeabi_uldivmod+0x28>
 80003f4:	2a00      	cmp	r2, #0
 80003f6:	d10f      	bne.n	8000418 <__aeabi_uldivmod+0x28>
 80003f8:	2900      	cmp	r1, #0
 80003fa:	d100      	bne.n	80003fe <__aeabi_uldivmod+0xe>
 80003fc:	2800      	cmp	r0, #0
 80003fe:	d002      	beq.n	8000406 <__aeabi_uldivmod+0x16>
 8000400:	2100      	movs	r1, #0
 8000402:	43c9      	mvns	r1, r1
 8000404:	0008      	movs	r0, r1
 8000406:	b407      	push	{r0, r1, r2}
 8000408:	4802      	ldr	r0, [pc, #8]	; (8000414 <__aeabi_uldivmod+0x24>)
 800040a:	a102      	add	r1, pc, #8	; (adr r1, 8000414 <__aeabi_uldivmod+0x24>)
 800040c:	1840      	adds	r0, r0, r1
 800040e:	9002      	str	r0, [sp, #8]
 8000410:	bd03      	pop	{r0, r1, pc}
 8000412:	46c0      	nop			; (mov r8, r8)
 8000414:	ffffffd9 	.word	0xffffffd9
 8000418:	b403      	push	{r0, r1}
 800041a:	4668      	mov	r0, sp
 800041c:	b501      	push	{r0, lr}
 800041e:	9802      	ldr	r0, [sp, #8]
 8000420:	f000 f806 	bl	8000430 <__udivmoddi4>
 8000424:	9b01      	ldr	r3, [sp, #4]
 8000426:	469e      	mov	lr, r3
 8000428:	b002      	add	sp, #8
 800042a:	bc0c      	pop	{r2, r3}
 800042c:	4770      	bx	lr
 800042e:	46c0      	nop			; (mov r8, r8)

08000430 <__udivmoddi4>:
 8000430:	b5f0      	push	{r4, r5, r6, r7, lr}
 8000432:	4657      	mov	r7, sl
 8000434:	464e      	mov	r6, r9
 8000436:	4645      	mov	r5, r8
 8000438:	46de      	mov	lr, fp
 800043a:	b5e0      	push	{r5, r6, r7, lr}
 800043c:	0004      	movs	r4, r0
 800043e:	000d      	movs	r5, r1
 8000440:	4692      	mov	sl, r2
 8000442:	4699      	mov	r9, r3
 8000444:	b083      	sub	sp, #12
 8000446:	428b      	cmp	r3, r1
 8000448:	d830      	bhi.n	80004ac <__udivmoddi4+0x7c>
 800044a:	d02d      	beq.n	80004a8 <__udivmoddi4+0x78>
 800044c:	4649      	mov	r1, r9
 800044e:	4650      	mov	r0, sl
 8000450:	f000 f8ba 	bl	80005c8 <__clzdi2>
 8000454:	0029      	movs	r1, r5
 8000456:	0006      	movs	r6, r0
 8000458:	0020      	movs	r0, r4
 800045a:	f000 f8b5 	bl	80005c8 <__clzdi2>
 800045e:	1a33      	subs	r3, r6, r0
 8000460:	4698      	mov	r8, r3
 8000462:	3b20      	subs	r3, #32
 8000464:	469b      	mov	fp, r3
 8000466:	d433      	bmi.n	80004d0 <__udivmoddi4+0xa0>
 8000468:	465a      	mov	r2, fp
 800046a:	4653      	mov	r3, sl
 800046c:	4093      	lsls	r3, r2
 800046e:	4642      	mov	r2, r8
 8000470:	001f      	movs	r7, r3
 8000472:	4653      	mov	r3, sl
 8000474:	4093      	lsls	r3, r2
 8000476:	001e      	movs	r6, r3
 8000478:	42af      	cmp	r7, r5
 800047a:	d83a      	bhi.n	80004f2 <__udivmoddi4+0xc2>
 800047c:	42af      	cmp	r7, r5
 800047e:	d100      	bne.n	8000482 <__udivmoddi4+0x52>
 8000480:	e078      	b.n	8000574 <__udivmoddi4+0x144>
 8000482:	465b      	mov	r3, fp
 8000484:	1ba4      	subs	r4, r4, r6
 8000486:	41bd      	sbcs	r5, r7
 8000488:	2b00      	cmp	r3, #0
 800048a:	da00      	bge.n	800048e <__udivmoddi4+0x5e>
 800048c:	e075      	b.n	800057a <__udivmoddi4+0x14a>
 800048e:	2200      	movs	r2, #0
 8000490:	2300      	movs	r3, #0
 8000492:	9200      	str	r2, [sp, #0]
 8000494:	9301      	str	r3, [sp, #4]
 8000496:	2301      	movs	r3, #1
 8000498:	465a      	mov	r2, fp
 800049a:	4093      	lsls	r3, r2
 800049c:	9301      	str	r3, [sp, #4]
 800049e:	2301      	movs	r3, #1
 80004a0:	4642      	mov	r2, r8
 80004a2:	4093      	lsls	r3, r2
 80004a4:	9300      	str	r3, [sp, #0]
 80004a6:	e028      	b.n	80004fa <__udivmoddi4+0xca>
 80004a8:	4282      	cmp	r2, r0
 80004aa:	d9cf      	bls.n	800044c <__udivmoddi4+0x1c>
 80004ac:	2200      	movs	r2, #0
 80004ae:	2300      	movs	r3, #0
 80004b0:	9200      	str	r2, [sp, #0]
 80004b2:	9301      	str	r3, [sp, #4]
 80004b4:	9b0c      	ldr	r3, [sp, #48]	; 0x30
 80004b6:	2b00      	cmp	r3, #0
 80004b8:	d001      	beq.n	80004be <__udivmoddi4+0x8e>
 80004ba:	601c      	str	r4, [r3, #0]
 80004bc:	605d      	str	r5, [r3, #4]
 80004be:	9800      	ldr	r0, [sp, #0]
 80004c0:	9901      	ldr	r1, [sp, #4]
 80004c2:	b003      	add	sp, #12
 80004c4:	bcf0      	pop	{r4, r5, r6, r7}
 80004c6:	46bb      	mov	fp, r7
 80004c8:	46b2      	mov	sl, r6
 80004ca:	46a9      	mov	r9, r5
 80004cc:	46a0      	mov	r8, r4
 80004ce:	bdf0      	pop	{r4, r5, r6, r7, pc}
 80004d0:	4642      	mov	r2, r8
 80004d2:	2320      	movs	r3, #32
 80004d4:	1a9b      	subs	r3, r3, r2
 80004d6:	4652      	mov	r2, sl
 80004d8:	40da      	lsrs	r2, r3
 80004da:	4641      	mov	r1, r8
 80004dc:	0013      	movs	r3, r2
 80004de:	464a      	mov	r2, r9
 80004e0:	408a      	lsls	r2, r1
 80004e2:	0017      	movs	r7, r2
 80004e4:	4642      	mov	r2, r8
 80004e6:	431f      	orrs	r7, r3
 80004e8:	4653      	mov	r3, sl
 80004ea:	4093      	lsls	r3, r2
 80004ec:	001e      	movs	r6, r3
 80004ee:	42af      	cmp	r7, r5
 80004f0:	d9c4      	bls.n	800047c <__udivmoddi4+0x4c>
 80004f2:	2200      	movs	r2, #0
 80004f4:	2300      	movs	r3, #0
 80004f6:	9200      	str	r2, [sp, #0]
 80004f8:	9301      	str	r3, [sp, #4]
 80004fa:	4643      	mov	r3, r8
 80004fc:	2b00      	cmp	r3, #0
 80004fe:	d0d9      	beq.n	80004b4 <__udivmoddi4+0x84>
 8000500:	07fb      	lsls	r3, r7, #31
 8000502:	0872      	lsrs	r2, r6, #1
 8000504:	431a      	orrs	r2, r3
 8000506:	4646      	mov	r6, r8
 8000508:	087b      	lsrs	r3, r7, #1
 800050a:	e00e      	b.n	800052a <__udivmoddi4+0xfa>
 800050c:	42ab      	cmp	r3, r5
 800050e:	d101      	bne.n	8000514 <__udivmoddi4+0xe4>
 8000510:	42a2      	cmp	r2, r4
 8000512:	d80c      	bhi.n	800052e <__udivmoddi4+0xfe>
 8000514:	1aa4      	subs	r4, r4, r2
 8000516:	419d      	sbcs	r5, r3
 8000518:	2001      	movs	r0, #1
 800051a:	1924      	adds	r4, r4, r4
 800051c:	416d      	adcs	r5, r5
 800051e:	2100      	movs	r1, #0
 8000520:	3e01      	subs	r6, #1
 8000522:	1824      	adds	r4, r4, r0
 8000524:	414d      	adcs	r5, r1
 8000526:	2e00      	cmp	r6, #0
 8000528:	d006      	beq.n	8000538 <__udivmoddi4+0x108>
 800052a:	42ab      	cmp	r3, r5
 800052c:	d9ee      	bls.n	800050c <__udivmoddi4+0xdc>
 800052e:	3e01      	subs	r6, #1
 8000530:	1924      	adds	r4, r4, r4
 8000532:	416d      	adcs	r5, r5
 8000534:	2e00      	cmp	r6, #0
 8000536:	d1f8      	bne.n	800052a <__udivmoddi4+0xfa>
 8000538:	9800      	ldr	r0, [sp, #0]
 800053a:	9901      	ldr	r1, [sp, #4]
 800053c:	465b      	mov	r3, fp
 800053e:	1900      	adds	r0, r0, r4
 8000540:	4169      	adcs	r1, r5
 8000542:	2b00      	cmp	r3, #0
 8000544:	db24      	blt.n	8000590 <__udivmoddi4+0x160>
 8000546:	002b      	movs	r3, r5
 8000548:	465a      	mov	r2, fp
 800054a:	4644      	mov	r4, r8
 800054c:	40d3      	lsrs	r3, r2
 800054e:	002a      	movs	r2, r5
 8000550:	40e2      	lsrs	r2, r4
 8000552:	001c      	movs	r4, r3
 8000554:	465b      	mov	r3, fp
 8000556:	0015      	movs	r5, r2
 8000558:	2b00      	cmp	r3, #0
 800055a:	db2a      	blt.n	80005b2 <__udivmoddi4+0x182>
 800055c:	0026      	movs	r6, r4
 800055e:	409e      	lsls	r6, r3
 8000560:	0033      	movs	r3, r6
 8000562:	0026      	movs	r6, r4
 8000564:	4647      	mov	r7, r8
 8000566:	40be      	lsls	r6, r7
 8000568:	0032      	movs	r2, r6
 800056a:	1a80      	subs	r0, r0, r2
 800056c:	4199      	sbcs	r1, r3
 800056e:	9000      	str	r0, [sp, #0]
 8000570:	9101      	str	r1, [sp, #4]
 8000572:	e79f      	b.n	80004b4 <__udivmoddi4+0x84>
 8000574:	42a3      	cmp	r3, r4
 8000576:	d8bc      	bhi.n	80004f2 <__udivmoddi4+0xc2>
 8000578:	e783      	b.n	8000482 <__udivmoddi4+0x52>
 800057a:	4642      	mov	r2, r8
 800057c:	2320      	movs	r3, #32
 800057e:	2100      	movs	r1, #0
 8000580:	1a9b      	subs	r3, r3, r2
 8000582:	2200      	movs	r2, #0
 8000584:	9100      	str	r1, [sp, #0]
 8000586:	9201      	str	r2, [sp, #4]
 8000588:	2201      	movs	r2, #1
 800058a:	40da      	lsrs	r2, r3
 800058c:	9201      	str	r2, [sp, #4]
 800058e:	e786      	b.n	800049e <__udivmoddi4+0x6e>
 8000590:	4642      	mov	r2, r8
 8000592:	2320      	movs	r3, #32
 8000594:	1a9b      	subs	r3, r3, r2
 8000596:	002a      	movs	r2, r5
 8000598:	4646      	mov	r6, r8
 800059a:	409a      	lsls	r2, r3
 800059c:	0023      	movs	r3, r4
 800059e:	40f3      	lsrs	r3, r6
 80005a0:	4644      	mov	r4, r8
 80005a2:	4313      	orrs	r3, r2
 80005a4:	002a      	movs	r2, r5
 80005a6:	40e2      	lsrs	r2, r4
 80005a8:	001c      	movs	r4, r3
 80005aa:	465b      	mov	r3, fp
 80005ac:	0015      	movs	r5, r2
 80005ae:	2b00      	cmp	r3, #0
 80005b0:	dad4      	bge.n	800055c <__udivmoddi4+0x12c>
 80005b2:	4642      	mov	r2, r8
 80005b4:	002f      	movs	r7, r5
 80005b6:	2320      	movs	r3, #32
 80005b8:	0026      	movs	r6, r4
 80005ba:	4097      	lsls	r7, r2
 80005bc:	1a9b      	subs	r3, r3, r2
 80005be:	40de      	lsrs	r6, r3
 80005c0:	003b      	movs	r3, r7
 80005c2:	4333      	orrs	r3, r6
 80005c4:	e7cd      	b.n	8000562 <__udivmoddi4+0x132>
 80005c6:	46c0      	nop			; (mov r8, r8)

080005c8 <__clzdi2>:
 80005c8:	b510      	push	{r4, lr}
 80005ca:	2900      	cmp	r1, #0
 80005cc:	d103      	bne.n	80005d6 <__clzdi2+0xe>
 80005ce:	f000 f807 	bl	80005e0 <__clzsi2>
 80005d2:	3020      	adds	r0, #32
 80005d4:	e002      	b.n	80005dc <__clzdi2+0x14>
 80005d6:	0008      	movs	r0, r1
 80005d8:	f000 f802 	bl	80005e0 <__clzsi2>
 80005dc:	bd10      	pop	{r4, pc}
 80005de:	46c0      	nop			; (mov r8, r8)

080005e0 <__clzsi2>:
 80005e0:	211c      	movs	r1, #28
 80005e2:	2301      	movs	r3, #1
 80005e4:	041b      	lsls	r3, r3, #16
 80005e6:	4298      	cmp	r0, r3
 80005e8:	d301      	bcc.n	80005ee <__clzsi2+0xe>
 80005ea:	0c00      	lsrs	r0, r0, #16
 80005ec:	3910      	subs	r1, #16
 80005ee:	0a1b      	lsrs	r3, r3, #8
 80005f0:	4298      	cmp	r0, r3
 80005f2:	d301      	bcc.n	80005f8 <__clzsi2+0x18>
 80005f4:	0a00      	lsrs	r0, r0, #8
 80005f6:	3908      	subs	r1, #8
 80005f8:	091b      	lsrs	r3, r3, #4
 80005fa:	4298      	cmp	r0, r3
 80005fc:	d301      	bcc.n	8000602 <__clzsi2+0x22>
 80005fe:	0900      	lsrs	r0, r0, #4
 8000600:	3904      	subs	r1, #4
 8000602:	a202      	add	r2, pc, #8	; (adr r2, 800060c <__clzsi2+0x2c>)
 8000604:	5c10      	ldrb	r0, [r2, r0]
 8000606:	1840      	adds	r0, r0, r1
 8000608:	4770      	bx	lr
 800060a:	46c0      	nop			; (mov r8, r8)
 800060c:	02020304 	.word	0x02020304
 8000610:	01010101 	.word	0x01010101
	...

0800061c <setrgb>:
/* Private user code ---------------------------------------------------------*/
/* USER CODE BEGIN 0 */

/* USER CODE END 0 */

void setrgb(int x,int y, int r, int g, int b){
 800061c:	b580      	push	{r7, lr}
 800061e:	b084      	sub	sp, #16
 8000620:	af00      	add	r7, sp, #0
 8000622:	60f8      	str	r0, [r7, #12]
 8000624:	60b9      	str	r1, [r7, #8]
 8000626:	607a      	str	r2, [r7, #4]
 8000628:	603b      	str	r3, [r7, #0]
	if (r>0){
 800062a:	687b      	ldr	r3, [r7, #4]
 800062c:	2b00      	cmp	r3, #0
 800062e:	dd1b      	ble.n	8000668 <setrgb+0x4c>
	LED12A1_ChannelEnable( &LED1202Obj , (TypeDefChannel)(LED_CHANNEL_0<<(3*x) ),  (TypedefEnumDevAddr)(LED_DEVICE1+y));
 8000630:	68fa      	ldr	r2, [r7, #12]
 8000632:	0013      	movs	r3, r2
 8000634:	005b      	lsls	r3, r3, #1
 8000636:	189b      	adds	r3, r3, r2
 8000638:	2201      	movs	r2, #1
 800063a:	409a      	lsls	r2, r3
 800063c:	0013      	movs	r3, r2
 800063e:	b299      	uxth	r1, r3
 8000640:	68bb      	ldr	r3, [r7, #8]
 8000642:	b2da      	uxtb	r2, r3
 8000644:	4b2c      	ldr	r3, [pc, #176]	; (80006f8 <setrgb+0xdc>)
 8000646:	0018      	movs	r0, r3
 8000648:	f000 fe1c 	bl	8001284 <LED12A1_ChannelEnable>
	LED12A1_AnalogDimming( &LED1202Obj , r,3*x,  (TypedefEnumDevAddr)(LED_DEVICE1+y));}
 800064c:	687b      	ldr	r3, [r7, #4]
 800064e:	b2d9      	uxtb	r1, r3
 8000650:	68fb      	ldr	r3, [r7, #12]
 8000652:	b2db      	uxtb	r3, r3
 8000654:	1c1a      	adds	r2, r3, #0
 8000656:	1c13      	adds	r3, r2, #0
 8000658:	18db      	adds	r3, r3, r3
 800065a:	189b      	adds	r3, r3, r2
 800065c:	b2da      	uxtb	r2, r3
 800065e:	68bb      	ldr	r3, [r7, #8]
 8000660:	b2db      	uxtb	r3, r3
 8000662:	4825      	ldr	r0, [pc, #148]	; (80006f8 <setrgb+0xdc>)
 8000664:	f000 fde1 	bl	800122a <LED12A1_AnalogDimming>
	if (g>0){
 8000668:	683b      	ldr	r3, [r7, #0]
 800066a:	2b00      	cmp	r3, #0
 800066c:	dd1e      	ble.n	80006ac <setrgb+0x90>
	LED12A1_ChannelEnable( &LED1202Obj , (TypeDefChannel)(LED_CHANNEL_0<<(3*x+1) ),  (TypedefEnumDevAddr)(LED_DEVICE1+y));
 800066e:	68fa      	ldr	r2, [r7, #12]
 8000670:	0013      	movs	r3, r2
 8000672:	005b      	lsls	r3, r3, #1
 8000674:	189b      	adds	r3, r3, r2
 8000676:	3301      	adds	r3, #1
 8000678:	2201      	movs	r2, #1
 800067a:	409a      	lsls	r2, r3
 800067c:	0013      	movs	r3, r2
 800067e:	b299      	uxth	r1, r3
 8000680:	68bb      	ldr	r3, [r7, #8]
 8000682:	b2da      	uxtb	r2, r3
 8000684:	4b1c      	ldr	r3, [pc, #112]	; (80006f8 <setrgb+0xdc>)
 8000686:	0018      	movs	r0, r3
 8000688:	f000 fdfc 	bl	8001284 <LED12A1_ChannelEnable>
	LED12A1_AnalogDimming( &LED1202Obj , g, 3*x+1,  (TypedefEnumDevAddr)(LED_DEVICE1+y));}
 800068c:	683b      	ldr	r3, [r7, #0]
 800068e:	b2d9      	uxtb	r1, r3
 8000690:	68fb      	ldr	r3, [r7, #12]
 8000692:	b2db      	uxtb	r3, r3
 8000694:	1c1a      	adds	r2, r3, #0
 8000696:	1c13      	adds	r3, r2, #0
 8000698:	18db      	adds	r3, r3, r3
 800069a:	189b      	adds	r3, r3, r2
 800069c:	b2db      	uxtb	r3, r3
 800069e:	3301      	adds	r3, #1
 80006a0:	b2da      	uxtb	r2, r3
 80006a2:	68bb      	ldr	r3, [r7, #8]
 80006a4:	b2db      	uxtb	r3, r3
 80006a6:	4814      	ldr	r0, [pc, #80]	; (80006f8 <setrgb+0xdc>)
 80006a8:	f000 fdbf 	bl	800122a <LED12A1_AnalogDimming>
	if (b>0){
 80006ac:	69bb      	ldr	r3, [r7, #24]
 80006ae:	2b00      	cmp	r3, #0
 80006b0:	dd1e      	ble.n	80006f0 <setrgb+0xd4>
	LED12A1_ChannelEnable( &LED1202Obj , (TypeDefChannel)(LED_CHANNEL_0<<(3*x+2) ),  (TypedefEnumDevAddr)(LED_DEVICE1+y));
 80006b2:	68fa      	ldr	r2, [r7, #12]
 80006b4:	0013      	movs	r3, r2
 80006b6:	005b      	lsls	r3, r3, #1
 80006b8:	189b      	adds	r3, r3, r2
 80006ba:	3302      	adds	r3, #2
 80006bc:	2201      	movs	r2, #1
 80006be:	409a      	lsls	r2, r3
 80006c0:	0013      	movs	r3, r2
 80006c2:	b299      	uxth	r1, r3
 80006c4:	68bb      	ldr	r3, [r7, #8]
 80006c6:	b2da      	uxtb	r2, r3
 80006c8:	4b0b      	ldr	r3, [pc, #44]	; (80006f8 <setrgb+0xdc>)
 80006ca:	0018      	movs	r0, r3
 80006cc:	f000 fdda 	bl	8001284 <LED12A1_ChannelEnable>
	LED12A1_AnalogDimming( &LED1202Obj , b, 3*x+2,  (TypedefEnumDevAddr)(LED_DEVICE1+y));}
 80006d0:	69bb      	ldr	r3, [r7, #24]
 80006d2:	b2d9      	uxtb	r1, r3
 80006d4:	68fb      	ldr	r3, [r7, #12]
 80006d6:	b2db      	uxtb	r3, r3
 80006d8:	1c1a      	adds	r2, r3, #0
 80006da:	1c13      	adds	r3, r2, #0
 80006dc:	18db      	adds	r3, r3, r3
 80006de:	189b      	adds	r3, r3, r2
 80006e0:	b2db      	uxtb	r3, r3
 80006e2:	3302      	adds	r3, #2
 80006e4:	b2da      	uxtb	r2, r3
 80006e6:	68bb      	ldr	r3, [r7, #8]
 80006e8:	b2db      	uxtb	r3, r3
 80006ea:	4803      	ldr	r0, [pc, #12]	; (80006f8 <setrgb+0xdc>)
 80006ec:	f000 fd9d 	bl	800122a <LED12A1_AnalogDimming>

}
 80006f0:	46c0      	nop			; (mov r8, r8)
 80006f2:	46bd      	mov	sp, r7
 80006f4:	b004      	add	sp, #16
 80006f6:	bd80      	pop	{r7, pc}
 80006f8:	200001b4 	.word	0x200001b4

080006fc <main>:
/**
  * @brief  The application entry point.
  * @retval int
  */
int main(void)
{
 80006fc:	b580      	push	{r7, lr}
 80006fe:	b084      	sub	sp, #16
 8000700:	af02      	add	r7, sp, #8
  /* USER CODE END 1 */

  /* MCU Configuration--------------------------------------------------------*/

  /* Reset of all peripherals, Initializes the Flash interface and the Systick. */
  HAL_Init();
 8000702:	f000 fe0d 	bl	8001320 <HAL_Init>
  /* USER CODE BEGIN Init */

  /* USER CODE END Init */

  /* Configure the system clock */
  SystemClock_Config();
 8000706:	f000 f84b 	bl	80007a0 <SystemClock_Config>
  /* USER CODE BEGIN SysInit */

  /* USER CODE END SysInit */

  /* Initialize all configured peripherals */
  MX_GPIO_Init();
 800070a:	f000 f9c9 	bl	8000aa0 <MX_GPIO_Init>
  MX_I2C1_Init();
 800070e:	f000 f88f 	bl	8000830 <MX_I2C1_Init>
  MX_TIM2_Init();
 8000712:	f000 f8cd 	bl	80008b0 <MX_TIM2_Init>
  MX_TIM3_Init();
 8000716:	f000 f91f 	bl	8000958 <MX_TIM3_Init>
  MX_USART2_UART_Init();
 800071a:	f000 f973 	bl	8000a04 <MX_USART2_UART_Init>
  /* USER CODE BEGIN 2 */

//  MX_I2C1_Init();
  /* USER CODE BEGIN 2 */
  HAL_Delay(100);
 800071e:	2064      	movs	r0, #100	; 0x64
 8000720:	f000 fe84 	bl	800142c <HAL_Delay>
  LED12A1_Init();
 8000724:	f000 fbbe 	bl	8000ea4 <LED12A1_Init>

  NumOfDev = LED12A1_ScanAvailDevice( &LED1202Obj ,DevAddrArray);
 8000728:	4a19      	ldr	r2, [pc, #100]	; (8000790 <main+0x94>)
 800072a:	4b1a      	ldr	r3, [pc, #104]	; (8000794 <main+0x98>)
 800072c:	0011      	movs	r1, r2
 800072e:	0018      	movs	r0, r3
 8000730:	f000 fd36 	bl	80011a0 <LED12A1_ScanAvailDevice>
 8000734:	0003      	movs	r3, r0
 8000736:	b2da      	uxtb	r2, r3
 8000738:	4b17      	ldr	r3, [pc, #92]	; (8000798 <main+0x9c>)
 800073a:	701a      	strb	r2, [r3, #0]
    for (uint8_t dev = 0;dev<NumOfDev;dev++)
 800073c:	1dfb      	adds	r3, r7, #7
 800073e:	2200      	movs	r2, #0
 8000740:	701a      	strb	r2, [r3, #0]
 8000742:	e012      	b.n	800076a <main+0x6e>
    {
      LED12A1_DeviceEnable(&LED1202Obj , (TypedefEnumDevAddr)(LED_DEVICE1 + dev));
 8000744:	1dfb      	adds	r3, r7, #7
 8000746:	781a      	ldrb	r2, [r3, #0]
 8000748:	4b12      	ldr	r3, [pc, #72]	; (8000794 <main+0x98>)
 800074a:	0011      	movs	r1, r2
 800074c:	0018      	movs	r0, r3
 800074e:	f000 fc9d 	bl	800108c <LED12A1_DeviceEnable>
      LED12A1_ChannelDisable( &LED1202Obj , LED_CHANNEL_ALL , (TypedefEnumDevAddr)( LED_DEVICE1 + dev));
 8000752:	1dfb      	adds	r3, r7, #7
 8000754:	781a      	ldrb	r2, [r3, #0]
 8000756:	4911      	ldr	r1, [pc, #68]	; (800079c <main+0xa0>)
 8000758:	4b0e      	ldr	r3, [pc, #56]	; (8000794 <main+0x98>)
 800075a:	0018      	movs	r0, r3
 800075c:	f000 fdb9 	bl	80012d2 <LED12A1_ChannelDisable>
    for (uint8_t dev = 0;dev<NumOfDev;dev++)
 8000760:	1dfb      	adds	r3, r7, #7
 8000762:	781a      	ldrb	r2, [r3, #0]
 8000764:	1dfb      	adds	r3, r7, #7
 8000766:	3201      	adds	r2, #1
 8000768:	701a      	strb	r2, [r3, #0]
 800076a:	4b0b      	ldr	r3, [pc, #44]	; (8000798 <main+0x9c>)
 800076c:	781b      	ldrb	r3, [r3, #0]
 800076e:	1dfa      	adds	r2, r7, #7
 8000770:	7812      	ldrb	r2, [r2, #0]
 8000772:	429a      	cmp	r2, r3
 8000774:	d3e6      	bcc.n	8000744 <main+0x48>
    }

    setrgb(2,1,10,1,1);
 8000776:	2301      	movs	r3, #1
 8000778:	9300      	str	r3, [sp, #0]
 800077a:	2301      	movs	r3, #1
 800077c:	220a      	movs	r2, #10
 800077e:	2101      	movs	r1, #1
 8000780:	2002      	movs	r0, #2
 8000782:	f7ff ff4b 	bl	800061c <setrgb>
 8000786:	2300      	movs	r3, #0
//
//	LED12A1_ChannelEnable( &LED1202Obj , (TypeDefChannel)(LED_CHANNEL_0<<channels[x] ),  (TypedefEnumDevAddr)(LED_DEVICE1+dev));
//	LED12A1_AnalogDimming( &LED1202Obj , MAX_CH_CURRENT / 500, channels[x],  (TypedefEnumDevAddr)(LED_DEVICE1+dev));
//    }
    /* USER CODE BEGIN 3 */
  }
 8000788:	0018      	movs	r0, r3
 800078a:	46bd      	mov	sp, r7
 800078c:	b002      	add	sp, #8
 800078e:	bd80      	pop	{r7, pc}
 8000790:	200001a8 	.word	0x200001a8
 8000794:	200001b4 	.word	0x200001b4
 8000798:	200001b2 	.word	0x200001b2
 800079c:	00000fff 	.word	0x00000fff

080007a0 <SystemClock_Config>:
/**
  * @brief System Clock Configuration
  * @retval None
  */
void SystemClock_Config(void)
{
 80007a0:	b590      	push	{r4, r7, lr}
 80007a2:	b095      	sub	sp, #84	; 0x54
 80007a4:	af00      	add	r7, sp, #0
  RCC_OscInitTypeDef RCC_OscInitStruct = {0};
 80007a6:	2414      	movs	r4, #20
 80007a8:	193b      	adds	r3, r7, r4
 80007aa:	0018      	movs	r0, r3
 80007ac:	233c      	movs	r3, #60	; 0x3c
 80007ae:	001a      	movs	r2, r3
 80007b0:	2100      	movs	r1, #0
 80007b2:	f004 fa8b 	bl	8004ccc <memset>
  RCC_ClkInitTypeDef RCC_ClkInitStruct = {0};
 80007b6:	1d3b      	adds	r3, r7, #4
 80007b8:	0018      	movs	r0, r3
 80007ba:	2310      	movs	r3, #16
 80007bc:	001a      	movs	r2, r3
 80007be:	2100      	movs	r1, #0
 80007c0:	f004 fa84 	bl	8004ccc <memset>

  /** Configure the main internal regulator output voltage
  */
  HAL_PWREx_ControlVoltageScaling(PWR_REGULATOR_VOLTAGE_SCALE1);
 80007c4:	2380      	movs	r3, #128	; 0x80
 80007c6:	009b      	lsls	r3, r3, #2
 80007c8:	0018      	movs	r0, r3
 80007ca:	f002 f805 	bl	80027d8 <HAL_PWREx_ControlVoltageScaling>

  /** Initializes the RCC Oscillators according to the specified parameters
  * in the RCC_OscInitTypeDef structure.
  */
  RCC_OscInitStruct.OscillatorType = RCC_OSCILLATORTYPE_HSI;
 80007ce:	193b      	adds	r3, r7, r4
 80007d0:	2202      	movs	r2, #2
 80007d2:	601a      	str	r2, [r3, #0]
  RCC_OscInitStruct.HSIState = RCC_HSI_ON;
 80007d4:	193b      	adds	r3, r7, r4
 80007d6:	2280      	movs	r2, #128	; 0x80
 80007d8:	0052      	lsls	r2, r2, #1
 80007da:	60da      	str	r2, [r3, #12]
  RCC_OscInitStruct.HSIDiv = RCC_HSI_DIV1;
 80007dc:	193b      	adds	r3, r7, r4
 80007de:	2200      	movs	r2, #0
 80007e0:	611a      	str	r2, [r3, #16]
  RCC_OscInitStruct.HSICalibrationValue = RCC_HSICALIBRATION_DEFAULT;
 80007e2:	193b      	adds	r3, r7, r4
 80007e4:	2240      	movs	r2, #64	; 0x40
 80007e6:	615a      	str	r2, [r3, #20]
  RCC_OscInitStruct.PLL.PLLState = RCC_PLL_NONE;
 80007e8:	193b      	adds	r3, r7, r4
 80007ea:	2200      	movs	r2, #0
 80007ec:	621a      	str	r2, [r3, #32]
  if (HAL_RCC_OscConfig(&RCC_OscInitStruct) != HAL_OK)
 80007ee:	193b      	adds	r3, r7, r4
 80007f0:	0018      	movs	r0, r3
 80007f2:	f002 f83d 	bl	8002870 <HAL_RCC_OscConfig>
 80007f6:	1e03      	subs	r3, r0, #0
 80007f8:	d001      	beq.n	80007fe <SystemClock_Config+0x5e>
  {
    Error_Handler();
 80007fa:	f000 f9c7 	bl	8000b8c <Error_Handler>
  }

  /** Initializes the CPU, AHB and APB buses clocks
  */
  RCC_ClkInitStruct.ClockType = RCC_CLOCKTYPE_HCLK|RCC_CLOCKTYPE_SYSCLK
 80007fe:	1d3b      	adds	r3, r7, #4
 8000800:	2207      	movs	r2, #7
 8000802:	601a      	str	r2, [r3, #0]
                              |RCC_CLOCKTYPE_PCLK1;
  RCC_ClkInitStruct.SYSCLKSource = RCC_SYSCLKSOURCE_HSI;
 8000804:	1d3b      	adds	r3, r7, #4
 8000806:	2200      	movs	r2, #0
 8000808:	605a      	str	r2, [r3, #4]
  RCC_ClkInitStruct.AHBCLKDivider = RCC_SYSCLK_DIV1;
 800080a:	1d3b      	adds	r3, r7, #4
 800080c:	2200      	movs	r2, #0
 800080e:	609a      	str	r2, [r3, #8]
  RCC_ClkInitStruct.APB1CLKDivider = RCC_HCLK_DIV1;
 8000810:	1d3b      	adds	r3, r7, #4
 8000812:	2200      	movs	r2, #0
 8000814:	60da      	str	r2, [r3, #12]

  if (HAL_RCC_ClockConfig(&RCC_ClkInitStruct, FLASH_LATENCY_0) != HAL_OK)
 8000816:	1d3b      	adds	r3, r7, #4
 8000818:	2100      	movs	r1, #0
 800081a:	0018      	movs	r0, r3
 800081c:	f002 fb88 	bl	8002f30 <HAL_RCC_ClockConfig>
 8000820:	1e03      	subs	r3, r0, #0
 8000822:	d001      	beq.n	8000828 <SystemClock_Config+0x88>
  {
    Error_Handler();
 8000824:	f000 f9b2 	bl	8000b8c <Error_Handler>
  }
}
 8000828:	46c0      	nop			; (mov r8, r8)
 800082a:	46bd      	mov	sp, r7
 800082c:	b015      	add	sp, #84	; 0x54
 800082e:	bd90      	pop	{r4, r7, pc}

08000830 <MX_I2C1_Init>:
  * @brief I2C1 Initialization Function
  * @param None
  * @retval None
  */
void MX_I2C1_Init(void)
{
 8000830:	b580      	push	{r7, lr}
 8000832:	af00      	add	r7, sp, #0
  /* USER CODE END I2C1_Init 0 */

  /* USER CODE BEGIN I2C1_Init 1 */

  /* USER CODE END I2C1_Init 1 */
  hi2c1.Instance = I2C1;
 8000834:	4b1b      	ldr	r3, [pc, #108]	; (80008a4 <MX_I2C1_Init+0x74>)
 8000836:	4a1c      	ldr	r2, [pc, #112]	; (80008a8 <MX_I2C1_Init+0x78>)
 8000838:	601a      	str	r2, [r3, #0]
  hi2c1.Init.Timing = 0x00303D5B;
 800083a:	4b1a      	ldr	r3, [pc, #104]	; (80008a4 <MX_I2C1_Init+0x74>)
 800083c:	4a1b      	ldr	r2, [pc, #108]	; (80008ac <MX_I2C1_Init+0x7c>)
 800083e:	605a      	str	r2, [r3, #4]
  hi2c1.Init.OwnAddress1 = 0;
 8000840:	4b18      	ldr	r3, [pc, #96]	; (80008a4 <MX_I2C1_Init+0x74>)
 8000842:	2200      	movs	r2, #0
 8000844:	609a      	str	r2, [r3, #8]
  hi2c1.Init.AddressingMode = I2C_ADDRESSINGMODE_7BIT;
 8000846:	4b17      	ldr	r3, [pc, #92]	; (80008a4 <MX_I2C1_Init+0x74>)
 8000848:	2201      	movs	r2, #1
 800084a:	60da      	str	r2, [r3, #12]
  hi2c1.Init.DualAddressMode = I2C_DUALADDRESS_DISABLE;
 800084c:	4b15      	ldr	r3, [pc, #84]	; (80008a4 <MX_I2C1_Init+0x74>)
 800084e:	2200      	movs	r2, #0
 8000850:	611a      	str	r2, [r3, #16]
  hi2c1.Init.OwnAddress2 = 0;
 8000852:	4b14      	ldr	r3, [pc, #80]	; (80008a4 <MX_I2C1_Init+0x74>)
 8000854:	2200      	movs	r2, #0
 8000856:	615a      	str	r2, [r3, #20]
  hi2c1.Init.OwnAddress2Masks = I2C_OA2_NOMASK;
 8000858:	4b12      	ldr	r3, [pc, #72]	; (80008a4 <MX_I2C1_Init+0x74>)
 800085a:	2200      	movs	r2, #0
 800085c:	619a      	str	r2, [r3, #24]
  hi2c1.Init.GeneralCallMode = I2C_GENERALCALL_DISABLE;
 800085e:	4b11      	ldr	r3, [pc, #68]	; (80008a4 <MX_I2C1_Init+0x74>)
 8000860:	2200      	movs	r2, #0
 8000862:	61da      	str	r2, [r3, #28]
  hi2c1.Init.NoStretchMode = I2C_NOSTRETCH_DISABLE;
 8000864:	4b0f      	ldr	r3, [pc, #60]	; (80008a4 <MX_I2C1_Init+0x74>)
 8000866:	2200      	movs	r2, #0
 8000868:	621a      	str	r2, [r3, #32]
  if (HAL_I2C_Init(&hi2c1) != HAL_OK)
 800086a:	4b0e      	ldr	r3, [pc, #56]	; (80008a4 <MX_I2C1_Init+0x74>)
 800086c:	0018      	movs	r0, r3
 800086e:	f001 f917 	bl	8001aa0 <HAL_I2C_Init>
 8000872:	1e03      	subs	r3, r0, #0
 8000874:	d001      	beq.n	800087a <MX_I2C1_Init+0x4a>
  {
    Error_Handler();
 8000876:	f000 f989 	bl	8000b8c <Error_Handler>
  }

  /** Configure Analogue filter
  */
  if (HAL_I2CEx_ConfigAnalogFilter(&hi2c1, I2C_ANALOGFILTER_ENABLE) != HAL_OK)
 800087a:	4b0a      	ldr	r3, [pc, #40]	; (80008a4 <MX_I2C1_Init+0x74>)
 800087c:	2100      	movs	r1, #0
 800087e:	0018      	movs	r0, r3
 8000880:	f001 ff12 	bl	80026a8 <HAL_I2CEx_ConfigAnalogFilter>
 8000884:	1e03      	subs	r3, r0, #0
 8000886:	d001      	beq.n	800088c <MX_I2C1_Init+0x5c>
  {
    Error_Handler();
 8000888:	f000 f980 	bl	8000b8c <Error_Handler>
  }

  /** Configure Digital filter
  */
  if (HAL_I2CEx_ConfigDigitalFilter(&hi2c1, 0) != HAL_OK)
 800088c:	4b05      	ldr	r3, [pc, #20]	; (80008a4 <MX_I2C1_Init+0x74>)
 800088e:	2100      	movs	r1, #0
 8000890:	0018      	movs	r0, r3
 8000892:	f001 ff55 	bl	8002740 <HAL_I2CEx_ConfigDigitalFilter>
 8000896:	1e03      	subs	r3, r0, #0
 8000898:	d001      	beq.n	800089e <MX_I2C1_Init+0x6e>
  {
    Error_Handler();
 800089a:	f000 f977 	bl	8000b8c <Error_Handler>
  }
  /* USER CODE BEGIN I2C1_Init 2 */

  /* USER CODE END I2C1_Init 2 */

}
 800089e:	46c0      	nop			; (mov r8, r8)
 80008a0:	46bd      	mov	sp, r7
 80008a2:	bd80      	pop	{r7, pc}
 80008a4:	20000028 	.word	0x20000028
 80008a8:	40005400 	.word	0x40005400
 80008ac:	00303d5b 	.word	0x00303d5b

080008b0 <MX_TIM2_Init>:
  * @brief TIM2 Initialization Function
  * @param None
  * @retval None
  */
static void MX_TIM2_Init(void)
{
 80008b0:	b580      	push	{r7, lr}
 80008b2:	b088      	sub	sp, #32
 80008b4:	af00      	add	r7, sp, #0

  /* USER CODE BEGIN TIM2_Init 0 */

  /* USER CODE END TIM2_Init 0 */

  TIM_ClockConfigTypeDef sClockSourceConfig = {0};
 80008b6:	2310      	movs	r3, #16
 80008b8:	18fb      	adds	r3, r7, r3
 80008ba:	0018      	movs	r0, r3
 80008bc:	2310      	movs	r3, #16
 80008be:	001a      	movs	r2, r3
 80008c0:	2100      	movs	r1, #0
 80008c2:	f004 fa03 	bl	8004ccc <memset>
  TIM_MasterConfigTypeDef sMasterConfig = {0};
 80008c6:	1d3b      	adds	r3, r7, #4
 80008c8:	0018      	movs	r0, r3
 80008ca:	230c      	movs	r3, #12
 80008cc:	001a      	movs	r2, r3
 80008ce:	2100      	movs	r1, #0
 80008d0:	f004 f9fc 	bl	8004ccc <memset>

  /* USER CODE BEGIN TIM2_Init 1 */

  /* USER CODE END TIM2_Init 1 */
  htim2.Instance = TIM2;
 80008d4:	4b1f      	ldr	r3, [pc, #124]	; (8000954 <MX_TIM2_Init+0xa4>)
 80008d6:	2280      	movs	r2, #128	; 0x80
 80008d8:	05d2      	lsls	r2, r2, #23
 80008da:	601a      	str	r2, [r3, #0]
  htim2.Init.Prescaler = 0;
 80008dc:	4b1d      	ldr	r3, [pc, #116]	; (8000954 <MX_TIM2_Init+0xa4>)
 80008de:	2200      	movs	r2, #0
 80008e0:	605a      	str	r2, [r3, #4]
  htim2.Init.CounterMode = TIM_COUNTERMODE_UP;
 80008e2:	4b1c      	ldr	r3, [pc, #112]	; (8000954 <MX_TIM2_Init+0xa4>)
 80008e4:	2200      	movs	r2, #0
 80008e6:	609a      	str	r2, [r3, #8]
  htim2.Init.Period = 4294967295;
 80008e8:	4b1a      	ldr	r3, [pc, #104]	; (8000954 <MX_TIM2_Init+0xa4>)
 80008ea:	2201      	movs	r2, #1
 80008ec:	4252      	negs	r2, r2
 80008ee:	60da      	str	r2, [r3, #12]
  htim2.Init.ClockDivision = TIM_CLOCKDIVISION_DIV1;
 80008f0:	4b18      	ldr	r3, [pc, #96]	; (8000954 <MX_TIM2_Init+0xa4>)
 80008f2:	2200      	movs	r2, #0
 80008f4:	611a      	str	r2, [r3, #16]
  htim2.Init.AutoReloadPreload = TIM_AUTORELOAD_PRELOAD_DISABLE;
 80008f6:	4b17      	ldr	r3, [pc, #92]	; (8000954 <MX_TIM2_Init+0xa4>)
 80008f8:	2200      	movs	r2, #0
 80008fa:	619a      	str	r2, [r3, #24]
  if (HAL_TIM_Base_Init(&htim2) != HAL_OK)
 80008fc:	4b15      	ldr	r3, [pc, #84]	; (8000954 <MX_TIM2_Init+0xa4>)
 80008fe:	0018      	movs	r0, r3
 8000900:	f002 fefc 	bl	80036fc <HAL_TIM_Base_Init>
 8000904:	1e03      	subs	r3, r0, #0
 8000906:	d001      	beq.n	800090c <MX_TIM2_Init+0x5c>
  {
    Error_Handler();
 8000908:	f000 f940 	bl	8000b8c <Error_Handler>
  }
  sClockSourceConfig.ClockSource = TIM_CLOCKSOURCE_INTERNAL;
 800090c:	2110      	movs	r1, #16
 800090e:	187b      	adds	r3, r7, r1
 8000910:	2280      	movs	r2, #128	; 0x80
 8000912:	0152      	lsls	r2, r2, #5
 8000914:	601a      	str	r2, [r3, #0]
  if (HAL_TIM_ConfigClockSource(&htim2, &sClockSourceConfig) != HAL_OK)
 8000916:	187a      	adds	r2, r7, r1
 8000918:	4b0e      	ldr	r3, [pc, #56]	; (8000954 <MX_TIM2_Init+0xa4>)
 800091a:	0011      	movs	r1, r2
 800091c:	0018      	movs	r0, r3
 800091e:	f002 ff45 	bl	80037ac <HAL_TIM_ConfigClockSource>
 8000922:	1e03      	subs	r3, r0, #0
 8000924:	d001      	beq.n	800092a <MX_TIM2_Init+0x7a>
  {
    Error_Handler();
 8000926:	f000 f931 	bl	8000b8c <Error_Handler>
  }
  sMasterConfig.MasterOutputTrigger = TIM_TRGO_RESET;
 800092a:	1d3b      	adds	r3, r7, #4
 800092c:	2200      	movs	r2, #0
 800092e:	601a      	str	r2, [r3, #0]
  sMasterConfig.MasterSlaveMode = TIM_MASTERSLAVEMODE_DISABLE;
 8000930:	1d3b      	adds	r3, r7, #4
 8000932:	2200      	movs	r2, #0
 8000934:	609a      	str	r2, [r3, #8]
  if (HAL_TIMEx_MasterConfigSynchronization(&htim2, &sMasterConfig) != HAL_OK)
 8000936:	1d3a      	adds	r2, r7, #4
 8000938:	4b06      	ldr	r3, [pc, #24]	; (8000954 <MX_TIM2_Init+0xa4>)
 800093a:	0011      	movs	r1, r2
 800093c:	0018      	movs	r0, r3
 800093e:	f003 f931 	bl	8003ba4 <HAL_TIMEx_MasterConfigSynchronization>
 8000942:	1e03      	subs	r3, r0, #0
 8000944:	d001      	beq.n	800094a <MX_TIM2_Init+0x9a>
  {
    Error_Handler();
 8000946:	f000 f921 	bl	8000b8c <Error_Handler>
  }
  /* USER CODE BEGIN TIM2_Init 2 */

  /* USER CODE END TIM2_Init 2 */

}
 800094a:	46c0      	nop			; (mov r8, r8)
 800094c:	46bd      	mov	sp, r7
 800094e:	b008      	add	sp, #32
 8000950:	bd80      	pop	{r7, pc}
 8000952:	46c0      	nop			; (mov r8, r8)
 8000954:	2000007c 	.word	0x2000007c

08000958 <MX_TIM3_Init>:
  * @brief TIM3 Initialization Function
  * @param None
  * @retval None
  */
static void MX_TIM3_Init(void)
{
 8000958:	b580      	push	{r7, lr}
 800095a:	b088      	sub	sp, #32
 800095c:	af00      	add	r7, sp, #0

  /* USER CODE BEGIN TIM3_Init 0 */

  /* USER CODE END TIM3_Init 0 */

  TIM_ClockConfigTypeDef sClockSourceConfig = {0};
 800095e:	2310      	movs	r3, #16
 8000960:	18fb      	adds	r3, r7, r3
 8000962:	0018      	movs	r0, r3
 8000964:	2310      	movs	r3, #16
 8000966:	001a      	movs	r2, r3
 8000968:	2100      	movs	r1, #0
 800096a:	f004 f9af 	bl	8004ccc <memset>
  TIM_MasterConfigTypeDef sMasterConfig = {0};
 800096e:	1d3b      	adds	r3, r7, #4
 8000970:	0018      	movs	r0, r3
 8000972:	230c      	movs	r3, #12
 8000974:	001a      	movs	r2, r3
 8000976:	2100      	movs	r1, #0
 8000978:	f004 f9a8 	bl	8004ccc <memset>

  /* USER CODE BEGIN TIM3_Init 1 */

  /* USER CODE END TIM3_Init 1 */
  htim3.Instance = TIM3;
 800097c:	4b1e      	ldr	r3, [pc, #120]	; (80009f8 <MX_TIM3_Init+0xa0>)
 800097e:	4a1f      	ldr	r2, [pc, #124]	; (80009fc <MX_TIM3_Init+0xa4>)
 8000980:	601a      	str	r2, [r3, #0]
  htim3.Init.Prescaler = 0;
 8000982:	4b1d      	ldr	r3, [pc, #116]	; (80009f8 <MX_TIM3_Init+0xa0>)
 8000984:	2200      	movs	r2, #0
 8000986:	605a      	str	r2, [r3, #4]
  htim3.Init.CounterMode = TIM_COUNTERMODE_UP;
 8000988:	4b1b      	ldr	r3, [pc, #108]	; (80009f8 <MX_TIM3_Init+0xa0>)
 800098a:	2200      	movs	r2, #0
 800098c:	609a      	str	r2, [r3, #8]
  htim3.Init.Period = 65535;
 800098e:	4b1a      	ldr	r3, [pc, #104]	; (80009f8 <MX_TIM3_Init+0xa0>)
 8000990:	4a1b      	ldr	r2, [pc, #108]	; (8000a00 <MX_TIM3_Init+0xa8>)
 8000992:	60da      	str	r2, [r3, #12]
  htim3.Init.ClockDivision = TIM_CLOCKDIVISION_DIV1;
 8000994:	4b18      	ldr	r3, [pc, #96]	; (80009f8 <MX_TIM3_Init+0xa0>)
 8000996:	2200      	movs	r2, #0
 8000998:	611a      	str	r2, [r3, #16]
  htim3.Init.AutoReloadPreload = TIM_AUTORELOAD_PRELOAD_DISABLE;
 800099a:	4b17      	ldr	r3, [pc, #92]	; (80009f8 <MX_TIM3_Init+0xa0>)
 800099c:	2200      	movs	r2, #0
 800099e:	619a      	str	r2, [r3, #24]
  if (HAL_TIM_Base_Init(&htim3) != HAL_OK)
 80009a0:	4b15      	ldr	r3, [pc, #84]	; (80009f8 <MX_TIM3_Init+0xa0>)
 80009a2:	0018      	movs	r0, r3
 80009a4:	f002 feaa 	bl	80036fc <HAL_TIM_Base_Init>
 80009a8:	1e03      	subs	r3, r0, #0
 80009aa:	d001      	beq.n	80009b0 <MX_TIM3_Init+0x58>
  {
    Error_Handler();
 80009ac:	f000 f8ee 	bl	8000b8c <Error_Handler>
  }
  sClockSourceConfig.ClockSource = TIM_CLOCKSOURCE_INTERNAL;
 80009b0:	2110      	movs	r1, #16
 80009b2:	187b      	adds	r3, r7, r1
 80009b4:	2280      	movs	r2, #128	; 0x80
 80009b6:	0152      	lsls	r2, r2, #5
 80009b8:	601a      	str	r2, [r3, #0]
  if (HAL_TIM_ConfigClockSource(&htim3, &sClockSourceConfig) != HAL_OK)
 80009ba:	187a      	adds	r2, r7, r1
 80009bc:	4b0e      	ldr	r3, [pc, #56]	; (80009f8 <MX_TIM3_Init+0xa0>)
 80009be:	0011      	movs	r1, r2
 80009c0:	0018      	movs	r0, r3
 80009c2:	f002 fef3 	bl	80037ac <HAL_TIM_ConfigClockSource>
 80009c6:	1e03      	subs	r3, r0, #0
 80009c8:	d001      	beq.n	80009ce <MX_TIM3_Init+0x76>
  {
    Error_Handler();
 80009ca:	f000 f8df 	bl	8000b8c <Error_Handler>
  }
  sMasterConfig.MasterOutputTrigger = TIM_TRGO_RESET;
 80009ce:	1d3b      	adds	r3, r7, #4
 80009d0:	2200      	movs	r2, #0
 80009d2:	601a      	str	r2, [r3, #0]
  sMasterConfig.MasterSlaveMode = TIM_MASTERSLAVEMODE_DISABLE;
 80009d4:	1d3b      	adds	r3, r7, #4
 80009d6:	2200      	movs	r2, #0
 80009d8:	609a      	str	r2, [r3, #8]
  if (HAL_TIMEx_MasterConfigSynchronization(&htim3, &sMasterConfig) != HAL_OK)
 80009da:	1d3a      	adds	r2, r7, #4
 80009dc:	4b06      	ldr	r3, [pc, #24]	; (80009f8 <MX_TIM3_Init+0xa0>)
 80009de:	0011      	movs	r1, r2
 80009e0:	0018      	movs	r0, r3
 80009e2:	f003 f8df 	bl	8003ba4 <HAL_TIMEx_MasterConfigSynchronization>
 80009e6:	1e03      	subs	r3, r0, #0
 80009e8:	d001      	beq.n	80009ee <MX_TIM3_Init+0x96>
  {
    Error_Handler();
 80009ea:	f000 f8cf 	bl	8000b8c <Error_Handler>
  }
  /* USER CODE BEGIN TIM3_Init 2 */

  /* USER CODE END TIM3_Init 2 */

}
 80009ee:	46c0      	nop			; (mov r8, r8)
 80009f0:	46bd      	mov	sp, r7
 80009f2:	b008      	add	sp, #32
 80009f4:	bd80      	pop	{r7, pc}
 80009f6:	46c0      	nop			; (mov r8, r8)
 80009f8:	200000c8 	.word	0x200000c8
 80009fc:	40000400 	.word	0x40000400
 8000a00:	0000ffff 	.word	0x0000ffff

08000a04 <MX_USART2_UART_Init>:
  * @brief USART2 Initialization Function
  * @param None
  * @retval None
  */
static void MX_USART2_UART_Init(void)
{
 8000a04:	b580      	push	{r7, lr}
 8000a06:	af00      	add	r7, sp, #0
  /* USER CODE END USART2_Init 0 */

  /* USER CODE BEGIN USART2_Init 1 */

  /* USER CODE END USART2_Init 1 */
  huart2.Instance = USART2;
 8000a08:	4b23      	ldr	r3, [pc, #140]	; (8000a98 <MX_USART2_UART_Init+0x94>)
 8000a0a:	4a24      	ldr	r2, [pc, #144]	; (8000a9c <MX_USART2_UART_Init+0x98>)
 8000a0c:	601a      	str	r2, [r3, #0]
  huart2.Init.BaudRate = 115200;
 8000a0e:	4b22      	ldr	r3, [pc, #136]	; (8000a98 <MX_USART2_UART_Init+0x94>)
 8000a10:	22e1      	movs	r2, #225	; 0xe1
 8000a12:	0252      	lsls	r2, r2, #9
 8000a14:	605a      	str	r2, [r3, #4]
  huart2.Init.WordLength = UART_WORDLENGTH_8B;
 8000a16:	4b20      	ldr	r3, [pc, #128]	; (8000a98 <MX_USART2_UART_Init+0x94>)
 8000a18:	2200      	movs	r2, #0
 8000a1a:	609a      	str	r2, [r3, #8]
  huart2.Init.StopBits = UART_STOPBITS_1;
 8000a1c:	4b1e      	ldr	r3, [pc, #120]	; (8000a98 <MX_USART2_UART_Init+0x94>)
 8000a1e:	2200      	movs	r2, #0
 8000a20:	60da      	str	r2, [r3, #12]
  huart2.Init.Parity = UART_PARITY_NONE;
 8000a22:	4b1d      	ldr	r3, [pc, #116]	; (8000a98 <MX_USART2_UART_Init+0x94>)
 8000a24:	2200      	movs	r2, #0
 8000a26:	611a      	str	r2, [r3, #16]
  huart2.Init.Mode = UART_MODE_TX_RX;
 8000a28:	4b1b      	ldr	r3, [pc, #108]	; (8000a98 <MX_USART2_UART_Init+0x94>)
 8000a2a:	220c      	movs	r2, #12
 8000a2c:	615a      	str	r2, [r3, #20]
  huart2.Init.HwFlowCtl = UART_HWCONTROL_NONE;
 8000a2e:	4b1a      	ldr	r3, [pc, #104]	; (8000a98 <MX_USART2_UART_Init+0x94>)
 8000a30:	2200      	movs	r2, #0
 8000a32:	619a      	str	r2, [r3, #24]
  huart2.Init.OverSampling = UART_OVERSAMPLING_16;
 8000a34:	4b18      	ldr	r3, [pc, #96]	; (8000a98 <MX_USART2_UART_Init+0x94>)
 8000a36:	2200      	movs	r2, #0
 8000a38:	61da      	str	r2, [r3, #28]
  huart2.Init.OneBitSampling = UART_ONE_BIT_SAMPLE_DISABLE;
 8000a3a:	4b17      	ldr	r3, [pc, #92]	; (8000a98 <MX_USART2_UART_Init+0x94>)
 8000a3c:	2200      	movs	r2, #0
 8000a3e:	621a      	str	r2, [r3, #32]
  huart2.Init.ClockPrescaler = UART_PRESCALER_DIV1;
 8000a40:	4b15      	ldr	r3, [pc, #84]	; (8000a98 <MX_USART2_UART_Init+0x94>)
 8000a42:	2200      	movs	r2, #0
 8000a44:	625a      	str	r2, [r3, #36]	; 0x24
  huart2.AdvancedInit.AdvFeatureInit = UART_ADVFEATURE_NO_INIT;
 8000a46:	4b14      	ldr	r3, [pc, #80]	; (8000a98 <MX_USART2_UART_Init+0x94>)
 8000a48:	2200      	movs	r2, #0
 8000a4a:	629a      	str	r2, [r3, #40]	; 0x28
  if (HAL_UART_Init(&huart2) != HAL_OK)
 8000a4c:	4b12      	ldr	r3, [pc, #72]	; (8000a98 <MX_USART2_UART_Init+0x94>)
 8000a4e:	0018      	movs	r0, r3
 8000a50:	f003 f91e 	bl	8003c90 <HAL_UART_Init>
 8000a54:	1e03      	subs	r3, r0, #0
 8000a56:	d001      	beq.n	8000a5c <MX_USART2_UART_Init+0x58>
  {
    Error_Handler();
 8000a58:	f000 f898 	bl	8000b8c <Error_Handler>
  }
  if (HAL_UARTEx_SetTxFifoThreshold(&huart2, UART_TXFIFO_THRESHOLD_1_8) != HAL_OK)
 8000a5c:	4b0e      	ldr	r3, [pc, #56]	; (8000a98 <MX_USART2_UART_Init+0x94>)
 8000a5e:	2100      	movs	r1, #0
 8000a60:	0018      	movs	r0, r3
 8000a62:	f003 fec5 	bl	80047f0 <HAL_UARTEx_SetTxFifoThreshold>
 8000a66:	1e03      	subs	r3, r0, #0
 8000a68:	d001      	beq.n	8000a6e <MX_USART2_UART_Init+0x6a>
  {
    Error_Handler();
 8000a6a:	f000 f88f 	bl	8000b8c <Error_Handler>
  }
  if (HAL_UARTEx_SetRxFifoThreshold(&huart2, UART_RXFIFO_THRESHOLD_1_8) != HAL_OK)
 8000a6e:	4b0a      	ldr	r3, [pc, #40]	; (8000a98 <MX_USART2_UART_Init+0x94>)
 8000a70:	2100      	movs	r1, #0
 8000a72:	0018      	movs	r0, r3
 8000a74:	f003 fefc 	bl	8004870 <HAL_UARTEx_SetRxFifoThreshold>
 8000a78:	1e03      	subs	r3, r0, #0
 8000a7a:	d001      	beq.n	8000a80 <MX_USART2_UART_Init+0x7c>
  {
    Error_Handler();
 8000a7c:	f000 f886 	bl	8000b8c <Error_Handler>
  }
  if (HAL_UARTEx_DisableFifoMode(&huart2) != HAL_OK)
 8000a80:	4b05      	ldr	r3, [pc, #20]	; (8000a98 <MX_USART2_UART_Init+0x94>)
 8000a82:	0018      	movs	r0, r3
 8000a84:	f003 fe7a 	bl	800477c <HAL_UARTEx_DisableFifoMode>
 8000a88:	1e03      	subs	r3, r0, #0
 8000a8a:	d001      	beq.n	8000a90 <MX_USART2_UART_Init+0x8c>
  {
    Error_Handler();
 8000a8c:	f000 f87e 	bl	8000b8c <Error_Handler>
  }
  /* USER CODE BEGIN USART2_Init 2 */

  /* USER CODE END USART2_Init 2 */

}
 8000a90:	46c0      	nop			; (mov r8, r8)
 8000a92:	46bd      	mov	sp, r7
 8000a94:	bd80      	pop	{r7, pc}
 8000a96:	46c0      	nop			; (mov r8, r8)
 8000a98:	20000114 	.word	0x20000114
 8000a9c:	40004400 	.word	0x40004400

08000aa0 <MX_GPIO_Init>:
  * @brief GPIO Initialization Function
  * @param None
  * @retval None
  */
static void MX_GPIO_Init(void)
{
 8000aa0:	b590      	push	{r4, r7, lr}
 8000aa2:	b089      	sub	sp, #36	; 0x24
 8000aa4:	af00      	add	r7, sp, #0
  GPIO_InitTypeDef GPIO_InitStruct = {0};
 8000aa6:	240c      	movs	r4, #12
 8000aa8:	193b      	adds	r3, r7, r4
 8000aaa:	0018      	movs	r0, r3
 8000aac:	2314      	movs	r3, #20
 8000aae:	001a      	movs	r2, r3
 8000ab0:	2100      	movs	r1, #0
 8000ab2:	f004 f90b 	bl	8004ccc <memset>
/* USER CODE BEGIN MX_GPIO_Init_1 */
/* USER CODE END MX_GPIO_Init_1 */

  /* GPIO Ports Clock Enable */
  __HAL_RCC_GPIOC_CLK_ENABLE();
 8000ab6:	4b32      	ldr	r3, [pc, #200]	; (8000b80 <MX_GPIO_Init+0xe0>)
 8000ab8:	6b5a      	ldr	r2, [r3, #52]	; 0x34
 8000aba:	4b31      	ldr	r3, [pc, #196]	; (8000b80 <MX_GPIO_Init+0xe0>)
 8000abc:	2104      	movs	r1, #4
 8000abe:	430a      	orrs	r2, r1
 8000ac0:	635a      	str	r2, [r3, #52]	; 0x34
 8000ac2:	4b2f      	ldr	r3, [pc, #188]	; (8000b80 <MX_GPIO_Init+0xe0>)
 8000ac4:	6b5b      	ldr	r3, [r3, #52]	; 0x34
 8000ac6:	2204      	movs	r2, #4
 8000ac8:	4013      	ands	r3, r2
 8000aca:	60bb      	str	r3, [r7, #8]
 8000acc:	68bb      	ldr	r3, [r7, #8]
  __HAL_RCC_GPIOA_CLK_ENABLE();
 8000ace:	4b2c      	ldr	r3, [pc, #176]	; (8000b80 <MX_GPIO_Init+0xe0>)
 8000ad0:	6b5a      	ldr	r2, [r3, #52]	; 0x34
 8000ad2:	4b2b      	ldr	r3, [pc, #172]	; (8000b80 <MX_GPIO_Init+0xe0>)
 8000ad4:	2101      	movs	r1, #1
 8000ad6:	430a      	orrs	r2, r1
 8000ad8:	635a      	str	r2, [r3, #52]	; 0x34
 8000ada:	4b29      	ldr	r3, [pc, #164]	; (8000b80 <MX_GPIO_Init+0xe0>)
 8000adc:	6b5b      	ldr	r3, [r3, #52]	; 0x34
 8000ade:	2201      	movs	r2, #1
 8000ae0:	4013      	ands	r3, r2
 8000ae2:	607b      	str	r3, [r7, #4]
 8000ae4:	687b      	ldr	r3, [r7, #4]
  __HAL_RCC_GPIOB_CLK_ENABLE();
 8000ae6:	4b26      	ldr	r3, [pc, #152]	; (8000b80 <MX_GPIO_Init+0xe0>)
 8000ae8:	6b5a      	ldr	r2, [r3, #52]	; 0x34
 8000aea:	4b25      	ldr	r3, [pc, #148]	; (8000b80 <MX_GPIO_Init+0xe0>)
 8000aec:	2102      	movs	r1, #2
 8000aee:	430a      	orrs	r2, r1
 8000af0:	635a      	str	r2, [r3, #52]	; 0x34
 8000af2:	4b23      	ldr	r3, [pc, #140]	; (8000b80 <MX_GPIO_Init+0xe0>)
 8000af4:	6b5b      	ldr	r3, [r3, #52]	; 0x34
 8000af6:	2202      	movs	r2, #2
 8000af8:	4013      	ands	r3, r2
 8000afa:	603b      	str	r3, [r7, #0]
 8000afc:	683b      	ldr	r3, [r7, #0]

  /*Configure GPIO pin Output Level */
  HAL_GPIO_WritePin(LD2_GPIO_Port, LD2_Pin, GPIO_PIN_RESET);
 8000afe:	23a0      	movs	r3, #160	; 0xa0
 8000b00:	05db      	lsls	r3, r3, #23
 8000b02:	2200      	movs	r2, #0
 8000b04:	2120      	movs	r1, #32
 8000b06:	0018      	movs	r0, r3
 8000b08:	f000 ffac 	bl	8001a64 <HAL_GPIO_WritePin>

  /*Configure GPIO pin : B1_Pin */
  GPIO_InitStruct.Pin = B1_Pin;
 8000b0c:	193b      	adds	r3, r7, r4
 8000b0e:	2280      	movs	r2, #128	; 0x80
 8000b10:	0192      	lsls	r2, r2, #6
 8000b12:	601a      	str	r2, [r3, #0]
  GPIO_InitStruct.Mode = GPIO_MODE_IT_RISING;
 8000b14:	193b      	adds	r3, r7, r4
 8000b16:	2288      	movs	r2, #136	; 0x88
 8000b18:	0352      	lsls	r2, r2, #13
 8000b1a:	605a      	str	r2, [r3, #4]
  GPIO_InitStruct.Pull = GPIO_NOPULL;
 8000b1c:	193b      	adds	r3, r7, r4
 8000b1e:	2200      	movs	r2, #0
 8000b20:	609a      	str	r2, [r3, #8]
  HAL_GPIO_Init(B1_GPIO_Port, &GPIO_InitStruct);
 8000b22:	193b      	adds	r3, r7, r4
 8000b24:	4a17      	ldr	r2, [pc, #92]	; (8000b84 <MX_GPIO_Init+0xe4>)
 8000b26:	0019      	movs	r1, r3
 8000b28:	0010      	movs	r0, r2
 8000b2a:	f000 fd57 	bl	80015dc <HAL_GPIO_Init>

  /*Configure GPIO pin : LD2_Pin */
  GPIO_InitStruct.Pin = LD2_Pin;
 8000b2e:	193b      	adds	r3, r7, r4
 8000b30:	2220      	movs	r2, #32
 8000b32:	601a      	str	r2, [r3, #0]
  GPIO_InitStruct.Mode = GPIO_MODE_OUTPUT_PP;
 8000b34:	193b      	adds	r3, r7, r4
 8000b36:	2201      	movs	r2, #1
 8000b38:	605a      	str	r2, [r3, #4]
  GPIO_InitStruct.Pull = GPIO_NOPULL;
 8000b3a:	193b      	adds	r3, r7, r4
 8000b3c:	2200      	movs	r2, #0
 8000b3e:	609a      	str	r2, [r3, #8]
  GPIO_InitStruct.Speed = GPIO_SPEED_FREQ_LOW;
 8000b40:	193b      	adds	r3, r7, r4
 8000b42:	2200      	movs	r2, #0
 8000b44:	60da      	str	r2, [r3, #12]
  HAL_GPIO_Init(LD2_GPIO_Port, &GPIO_InitStruct);
 8000b46:	193a      	adds	r2, r7, r4
 8000b48:	23a0      	movs	r3, #160	; 0xa0
 8000b4a:	05db      	lsls	r3, r3, #23
 8000b4c:	0011      	movs	r1, r2
 8000b4e:	0018      	movs	r0, r3
 8000b50:	f000 fd44 	bl	80015dc <HAL_GPIO_Init>

  /*Configure GPIO pin : LED1202_IRQ_Pin */
  GPIO_InitStruct.Pin = LED1202_IRQ_Pin;
 8000b54:	0021      	movs	r1, r4
 8000b56:	187b      	adds	r3, r7, r1
 8000b58:	2240      	movs	r2, #64	; 0x40
 8000b5a:	601a      	str	r2, [r3, #0]
  GPIO_InitStruct.Mode = GPIO_MODE_IT_RISING;
 8000b5c:	187b      	adds	r3, r7, r1
 8000b5e:	2288      	movs	r2, #136	; 0x88
 8000b60:	0352      	lsls	r2, r2, #13
 8000b62:	605a      	str	r2, [r3, #4]
  GPIO_InitStruct.Pull = GPIO_NOPULL;
 8000b64:	187b      	adds	r3, r7, r1
 8000b66:	2200      	movs	r2, #0
 8000b68:	609a      	str	r2, [r3, #8]
  HAL_GPIO_Init(LED1202_IRQ_GPIO_Port, &GPIO_InitStruct);
 8000b6a:	187b      	adds	r3, r7, r1
 8000b6c:	4a06      	ldr	r2, [pc, #24]	; (8000b88 <MX_GPIO_Init+0xe8>)
 8000b6e:	0019      	movs	r1, r3
 8000b70:	0010      	movs	r0, r2
 8000b72:	f000 fd33 	bl	80015dc <HAL_GPIO_Init>

/* USER CODE BEGIN MX_GPIO_Init_2 */
/* USER CODE END MX_GPIO_Init_2 */
}
 8000b76:	46c0      	nop			; (mov r8, r8)
 8000b78:	46bd      	mov	sp, r7
 8000b7a:	b009      	add	sp, #36	; 0x24
 8000b7c:	bd90      	pop	{r4, r7, pc}
 8000b7e:	46c0      	nop			; (mov r8, r8)
 8000b80:	40021000 	.word	0x40021000
 8000b84:	50000800 	.word	0x50000800
 8000b88:	50000400 	.word	0x50000400

08000b8c <Error_Handler>:
/**
  * @brief  This function is executed in case of error occurrence.
  * @retval None
  */
void Error_Handler(void)
{
 8000b8c:	b580      	push	{r7, lr}
 8000b8e:	af00      	add	r7, sp, #0
  \details Disables IRQ interrupts by setting the I-bit in the CPSR.
           Can only be executed in Privileged modes.
 */
__STATIC_FORCEINLINE void __disable_irq(void)
{
  __ASM volatile ("cpsid i" : : : "memory");
 8000b90:	b672      	cpsid	i
}
 8000b92:	46c0      	nop			; (mov r8, r8)
  /* USER CODE BEGIN Error_Handler_Debug */
  /* User can add his own implementation to report the HAL error return state */
  __disable_irq();
  while (1)
 8000b94:	e7fe      	b.n	8000b94 <Error_Handler+0x8>
	...

08000b98 <HAL_MspInit>:
/* USER CODE END 0 */
/**
  * Initializes the Global MSP.
  */
void HAL_MspInit(void)
{
 8000b98:	b580      	push	{r7, lr}
 8000b9a:	b082      	sub	sp, #8
 8000b9c:	af00      	add	r7, sp, #0
  /* USER CODE BEGIN MspInit 0 */

  /* USER CODE END MspInit 0 */

  __HAL_RCC_SYSCFG_CLK_ENABLE();
 8000b9e:	4b0f      	ldr	r3, [pc, #60]	; (8000bdc <HAL_MspInit+0x44>)
 8000ba0:	6c1a      	ldr	r2, [r3, #64]	; 0x40
 8000ba2:	4b0e      	ldr	r3, [pc, #56]	; (8000bdc <HAL_MspInit+0x44>)
 8000ba4:	2101      	movs	r1, #1
 8000ba6:	430a      	orrs	r2, r1
 8000ba8:	641a      	str	r2, [r3, #64]	; 0x40
 8000baa:	4b0c      	ldr	r3, [pc, #48]	; (8000bdc <HAL_MspInit+0x44>)
 8000bac:	6c1b      	ldr	r3, [r3, #64]	; 0x40
 8000bae:	2201      	movs	r2, #1
 8000bb0:	4013      	ands	r3, r2
 8000bb2:	607b      	str	r3, [r7, #4]
 8000bb4:	687b      	ldr	r3, [r7, #4]
  __HAL_RCC_PWR_CLK_ENABLE();
 8000bb6:	4b09      	ldr	r3, [pc, #36]	; (8000bdc <HAL_MspInit+0x44>)
 8000bb8:	6bda      	ldr	r2, [r3, #60]	; 0x3c
 8000bba:	4b08      	ldr	r3, [pc, #32]	; (8000bdc <HAL_MspInit+0x44>)
 8000bbc:	2180      	movs	r1, #128	; 0x80
 8000bbe:	0549      	lsls	r1, r1, #21
 8000bc0:	430a      	orrs	r2, r1
 8000bc2:	63da      	str	r2, [r3, #60]	; 0x3c
 8000bc4:	4b05      	ldr	r3, [pc, #20]	; (8000bdc <HAL_MspInit+0x44>)
 8000bc6:	6bda      	ldr	r2, [r3, #60]	; 0x3c
 8000bc8:	2380      	movs	r3, #128	; 0x80
 8000bca:	055b      	lsls	r3, r3, #21
 8000bcc:	4013      	ands	r3, r2
 8000bce:	603b      	str	r3, [r7, #0]
 8000bd0:	683b      	ldr	r3, [r7, #0]
  /* System interrupt init*/

  /* USER CODE BEGIN MspInit 1 */

  /* USER CODE END MspInit 1 */
}
 8000bd2:	46c0      	nop			; (mov r8, r8)
 8000bd4:	46bd      	mov	sp, r7
 8000bd6:	b002      	add	sp, #8
 8000bd8:	bd80      	pop	{r7, pc}
 8000bda:	46c0      	nop			; (mov r8, r8)
 8000bdc:	40021000 	.word	0x40021000

08000be0 <HAL_I2C_MspInit>:
* This function configures the hardware resources used in this example
* @param hi2c: I2C handle pointer
* @retval None
*/
void HAL_I2C_MspInit(I2C_HandleTypeDef* hi2c)
{
 8000be0:	b590      	push	{r4, r7, lr}
 8000be2:	b09d      	sub	sp, #116	; 0x74
 8000be4:	af00      	add	r7, sp, #0
 8000be6:	6078      	str	r0, [r7, #4]
  GPIO_InitTypeDef GPIO_InitStruct = {0};
 8000be8:	235c      	movs	r3, #92	; 0x5c
 8000bea:	18fb      	adds	r3, r7, r3
 8000bec:	0018      	movs	r0, r3
 8000bee:	2314      	movs	r3, #20
 8000bf0:	001a      	movs	r2, r3
 8000bf2:	2100      	movs	r1, #0
 8000bf4:	f004 f86a 	bl	8004ccc <memset>
  RCC_PeriphCLKInitTypeDef PeriphClkInit = {0};
 8000bf8:	2410      	movs	r4, #16
 8000bfa:	193b      	adds	r3, r7, r4
 8000bfc:	0018      	movs	r0, r3
 8000bfe:	234c      	movs	r3, #76	; 0x4c
 8000c00:	001a      	movs	r2, r3
 8000c02:	2100      	movs	r1, #0
 8000c04:	f004 f862 	bl	8004ccc <memset>
  if(hi2c->Instance==I2C1)
 8000c08:	687b      	ldr	r3, [r7, #4]
 8000c0a:	681b      	ldr	r3, [r3, #0]
 8000c0c:	4a22      	ldr	r2, [pc, #136]	; (8000c98 <HAL_I2C_MspInit+0xb8>)
 8000c0e:	4293      	cmp	r3, r2
 8000c10:	d13e      	bne.n	8000c90 <HAL_I2C_MspInit+0xb0>

  /* USER CODE END I2C1_MspInit 0 */

  /** Initializes the peripherals clocks
  */
    PeriphClkInit.PeriphClockSelection = RCC_PERIPHCLK_I2C1;
 8000c12:	193b      	adds	r3, r7, r4
 8000c14:	2220      	movs	r2, #32
 8000c16:	601a      	str	r2, [r3, #0]
    PeriphClkInit.I2c1ClockSelection = RCC_I2C1CLKSOURCE_PCLK1;
 8000c18:	193b      	adds	r3, r7, r4
 8000c1a:	2200      	movs	r2, #0
 8000c1c:	619a      	str	r2, [r3, #24]
    if (HAL_RCCEx_PeriphCLKConfig(&PeriphClkInit) != HAL_OK)
 8000c1e:	193b      	adds	r3, r7, r4
 8000c20:	0018      	movs	r0, r3
 8000c22:	f002 fb2f 	bl	8003284 <HAL_RCCEx_PeriphCLKConfig>
 8000c26:	1e03      	subs	r3, r0, #0
 8000c28:	d001      	beq.n	8000c2e <HAL_I2C_MspInit+0x4e>
    {
      Error_Handler();
 8000c2a:	f7ff ffaf 	bl	8000b8c <Error_Handler>
    }

    __HAL_RCC_GPIOB_CLK_ENABLE();
 8000c2e:	4b1b      	ldr	r3, [pc, #108]	; (8000c9c <HAL_I2C_MspInit+0xbc>)
 8000c30:	6b5a      	ldr	r2, [r3, #52]	; 0x34
 8000c32:	4b1a      	ldr	r3, [pc, #104]	; (8000c9c <HAL_I2C_MspInit+0xbc>)
 8000c34:	2102      	movs	r1, #2
 8000c36:	430a      	orrs	r2, r1
 8000c38:	635a      	str	r2, [r3, #52]	; 0x34
 8000c3a:	4b18      	ldr	r3, [pc, #96]	; (8000c9c <HAL_I2C_MspInit+0xbc>)
 8000c3c:	6b5b      	ldr	r3, [r3, #52]	; 0x34
 8000c3e:	2202      	movs	r2, #2
 8000c40:	4013      	ands	r3, r2
 8000c42:	60fb      	str	r3, [r7, #12]
 8000c44:	68fb      	ldr	r3, [r7, #12]
    /**I2C1 GPIO Configuration
    PB8     ------> I2C1_SCL
    PB9     ------> I2C1_SDA
    */
    GPIO_InitStruct.Pin = GPIO_PIN_8|GPIO_PIN_9;
 8000c46:	215c      	movs	r1, #92	; 0x5c
 8000c48:	187b      	adds	r3, r7, r1
 8000c4a:	22c0      	movs	r2, #192	; 0xc0
 8000c4c:	0092      	lsls	r2, r2, #2
 8000c4e:	601a      	str	r2, [r3, #0]
    GPIO_InitStruct.Mode = GPIO_MODE_AF_OD;
 8000c50:	187b      	adds	r3, r7, r1
 8000c52:	2212      	movs	r2, #18
 8000c54:	605a      	str	r2, [r3, #4]
    GPIO_InitStruct.Pull = GPIO_NOPULL;
 8000c56:	187b      	adds	r3, r7, r1
 8000c58:	2200      	movs	r2, #0
 8000c5a:	609a      	str	r2, [r3, #8]
    GPIO_InitStruct.Speed = GPIO_SPEED_FREQ_LOW;
 8000c5c:	187b      	adds	r3, r7, r1
 8000c5e:	2200      	movs	r2, #0
 8000c60:	60da      	str	r2, [r3, #12]
    GPIO_InitStruct.Alternate = GPIO_AF6_I2C1;
 8000c62:	187b      	adds	r3, r7, r1
 8000c64:	2206      	movs	r2, #6
 8000c66:	611a      	str	r2, [r3, #16]
    HAL_GPIO_Init(GPIOB, &GPIO_InitStruct);
 8000c68:	187b      	adds	r3, r7, r1
 8000c6a:	4a0d      	ldr	r2, [pc, #52]	; (8000ca0 <HAL_I2C_MspInit+0xc0>)
 8000c6c:	0019      	movs	r1, r3
 8000c6e:	0010      	movs	r0, r2
 8000c70:	f000 fcb4 	bl	80015dc <HAL_GPIO_Init>

    /* Peripheral clock enable */
    __HAL_RCC_I2C1_CLK_ENABLE();
 8000c74:	4b09      	ldr	r3, [pc, #36]	; (8000c9c <HAL_I2C_MspInit+0xbc>)
 8000c76:	6bda      	ldr	r2, [r3, #60]	; 0x3c
 8000c78:	4b08      	ldr	r3, [pc, #32]	; (8000c9c <HAL_I2C_MspInit+0xbc>)
 8000c7a:	2180      	movs	r1, #128	; 0x80
 8000c7c:	0389      	lsls	r1, r1, #14
 8000c7e:	430a      	orrs	r2, r1
 8000c80:	63da      	str	r2, [r3, #60]	; 0x3c
 8000c82:	4b06      	ldr	r3, [pc, #24]	; (8000c9c <HAL_I2C_MspInit+0xbc>)
 8000c84:	6bda      	ldr	r2, [r3, #60]	; 0x3c
 8000c86:	2380      	movs	r3, #128	; 0x80
 8000c88:	039b      	lsls	r3, r3, #14
 8000c8a:	4013      	ands	r3, r2
 8000c8c:	60bb      	str	r3, [r7, #8]
 8000c8e:	68bb      	ldr	r3, [r7, #8]
  /* USER CODE BEGIN I2C1_MspInit 1 */

  /* USER CODE END I2C1_MspInit 1 */
  }

}
 8000c90:	46c0      	nop			; (mov r8, r8)
 8000c92:	46bd      	mov	sp, r7
 8000c94:	b01d      	add	sp, #116	; 0x74
 8000c96:	bd90      	pop	{r4, r7, pc}
 8000c98:	40005400 	.word	0x40005400
 8000c9c:	40021000 	.word	0x40021000
 8000ca0:	50000400 	.word	0x50000400

08000ca4 <HAL_I2C_MspDeInit>:
* This function freeze the hardware resources used in this example
* @param hi2c: I2C handle pointer
* @retval None
*/
void HAL_I2C_MspDeInit(I2C_HandleTypeDef* hi2c)
{
 8000ca4:	b580      	push	{r7, lr}
 8000ca6:	b082      	sub	sp, #8
 8000ca8:	af00      	add	r7, sp, #0
 8000caa:	6078      	str	r0, [r7, #4]
  if(hi2c->Instance==I2C1)
 8000cac:	687b      	ldr	r3, [r7, #4]
 8000cae:	681b      	ldr	r3, [r3, #0]
 8000cb0:	4a0d      	ldr	r2, [pc, #52]	; (8000ce8 <HAL_I2C_MspDeInit+0x44>)
 8000cb2:	4293      	cmp	r3, r2
 8000cb4:	d113      	bne.n	8000cde <HAL_I2C_MspDeInit+0x3a>
  {
  /* USER CODE BEGIN I2C1_MspDeInit 0 */

  /* USER CODE END I2C1_MspDeInit 0 */
    /* Peripheral clock disable */
    __HAL_RCC_I2C1_CLK_DISABLE();
 8000cb6:	4b0d      	ldr	r3, [pc, #52]	; (8000cec <HAL_I2C_MspDeInit+0x48>)
 8000cb8:	6bda      	ldr	r2, [r3, #60]	; 0x3c
 8000cba:	4b0c      	ldr	r3, [pc, #48]	; (8000cec <HAL_I2C_MspDeInit+0x48>)
 8000cbc:	490c      	ldr	r1, [pc, #48]	; (8000cf0 <HAL_I2C_MspDeInit+0x4c>)
 8000cbe:	400a      	ands	r2, r1
 8000cc0:	63da      	str	r2, [r3, #60]	; 0x3c

    /**I2C1 GPIO Configuration
    PB8     ------> I2C1_SCL
    PB9     ------> I2C1_SDA
    */
    HAL_GPIO_DeInit(GPIOB, GPIO_PIN_8);
 8000cc2:	2380      	movs	r3, #128	; 0x80
 8000cc4:	005b      	lsls	r3, r3, #1
 8000cc6:	4a0b      	ldr	r2, [pc, #44]	; (8000cf4 <HAL_I2C_MspDeInit+0x50>)
 8000cc8:	0019      	movs	r1, r3
 8000cca:	0010      	movs	r0, r2
 8000ccc:	f000 fdf2 	bl	80018b4 <HAL_GPIO_DeInit>

    HAL_GPIO_DeInit(GPIOB, GPIO_PIN_9);
 8000cd0:	2380      	movs	r3, #128	; 0x80
 8000cd2:	009b      	lsls	r3, r3, #2
 8000cd4:	4a07      	ldr	r2, [pc, #28]	; (8000cf4 <HAL_I2C_MspDeInit+0x50>)
 8000cd6:	0019      	movs	r1, r3
 8000cd8:	0010      	movs	r0, r2
 8000cda:	f000 fdeb 	bl	80018b4 <HAL_GPIO_DeInit>
  /* USER CODE BEGIN I2C1_MspDeInit 1 */

  /* USER CODE END I2C1_MspDeInit 1 */
  }

}
 8000cde:	46c0      	nop			; (mov r8, r8)
 8000ce0:	46bd      	mov	sp, r7
 8000ce2:	b002      	add	sp, #8
 8000ce4:	bd80      	pop	{r7, pc}
 8000ce6:	46c0      	nop			; (mov r8, r8)
 8000ce8:	40005400 	.word	0x40005400
 8000cec:	40021000 	.word	0x40021000
 8000cf0:	ffdfffff 	.word	0xffdfffff
 8000cf4:	50000400 	.word	0x50000400

08000cf8 <HAL_TIM_Base_MspInit>:
* This function configures the hardware resources used in this example
* @param htim_base: TIM_Base handle pointer
* @retval None
*/
void HAL_TIM_Base_MspInit(TIM_HandleTypeDef* htim_base)
{
 8000cf8:	b580      	push	{r7, lr}
 8000cfa:	b084      	sub	sp, #16
 8000cfc:	af00      	add	r7, sp, #0
 8000cfe:	6078      	str	r0, [r7, #4]
  if(htim_base->Instance==TIM2)
 8000d00:	687b      	ldr	r3, [r7, #4]
 8000d02:	681a      	ldr	r2, [r3, #0]
 8000d04:	2380      	movs	r3, #128	; 0x80
 8000d06:	05db      	lsls	r3, r3, #23
 8000d08:	429a      	cmp	r2, r3
 8000d0a:	d10c      	bne.n	8000d26 <HAL_TIM_Base_MspInit+0x2e>
  {
  /* USER CODE BEGIN TIM2_MspInit 0 */

  /* USER CODE END TIM2_MspInit 0 */
    /* Peripheral clock enable */
    __HAL_RCC_TIM2_CLK_ENABLE();
 8000d0c:	4b10      	ldr	r3, [pc, #64]	; (8000d50 <HAL_TIM_Base_MspInit+0x58>)
 8000d0e:	6bda      	ldr	r2, [r3, #60]	; 0x3c
 8000d10:	4b0f      	ldr	r3, [pc, #60]	; (8000d50 <HAL_TIM_Base_MspInit+0x58>)
 8000d12:	2101      	movs	r1, #1
 8000d14:	430a      	orrs	r2, r1
 8000d16:	63da      	str	r2, [r3, #60]	; 0x3c
 8000d18:	4b0d      	ldr	r3, [pc, #52]	; (8000d50 <HAL_TIM_Base_MspInit+0x58>)
 8000d1a:	6bdb      	ldr	r3, [r3, #60]	; 0x3c
 8000d1c:	2201      	movs	r2, #1
 8000d1e:	4013      	ands	r3, r2
 8000d20:	60fb      	str	r3, [r7, #12]
 8000d22:	68fb      	ldr	r3, [r7, #12]
  /* USER CODE BEGIN TIM3_MspInit 1 */

  /* USER CODE END TIM3_MspInit 1 */
  }

}
 8000d24:	e010      	b.n	8000d48 <HAL_TIM_Base_MspInit+0x50>
  else if(htim_base->Instance==TIM3)
 8000d26:	687b      	ldr	r3, [r7, #4]
 8000d28:	681b      	ldr	r3, [r3, #0]
 8000d2a:	4a0a      	ldr	r2, [pc, #40]	; (8000d54 <HAL_TIM_Base_MspInit+0x5c>)
 8000d2c:	4293      	cmp	r3, r2
 8000d2e:	d10b      	bne.n	8000d48 <HAL_TIM_Base_MspInit+0x50>
    __HAL_RCC_TIM3_CLK_ENABLE();
 8000d30:	4b07      	ldr	r3, [pc, #28]	; (8000d50 <HAL_TIM_Base_MspInit+0x58>)
 8000d32:	6bda      	ldr	r2, [r3, #60]	; 0x3c
 8000d34:	4b06      	ldr	r3, [pc, #24]	; (8000d50 <HAL_TIM_Base_MspInit+0x58>)
 8000d36:	2102      	movs	r1, #2
 8000d38:	430a      	orrs	r2, r1
 8000d3a:	63da      	str	r2, [r3, #60]	; 0x3c
 8000d3c:	4b04      	ldr	r3, [pc, #16]	; (8000d50 <HAL_TIM_Base_MspInit+0x58>)
 8000d3e:	6bdb      	ldr	r3, [r3, #60]	; 0x3c
 8000d40:	2202      	movs	r2, #2
 8000d42:	4013      	ands	r3, r2
 8000d44:	60bb      	str	r3, [r7, #8]
 8000d46:	68bb      	ldr	r3, [r7, #8]
}
 8000d48:	46c0      	nop			; (mov r8, r8)
 8000d4a:	46bd      	mov	sp, r7
 8000d4c:	b004      	add	sp, #16
 8000d4e:	bd80      	pop	{r7, pc}
 8000d50:	40021000 	.word	0x40021000
 8000d54:	40000400 	.word	0x40000400

08000d58 <HAL_UART_MspInit>:
* This function configures the hardware resources used in this example
* @param huart: UART handle pointer
* @retval None
*/
void HAL_UART_MspInit(UART_HandleTypeDef* huart)
{
 8000d58:	b590      	push	{r4, r7, lr}
 8000d5a:	b09d      	sub	sp, #116	; 0x74
 8000d5c:	af00      	add	r7, sp, #0
 8000d5e:	6078      	str	r0, [r7, #4]
  GPIO_InitTypeDef GPIO_InitStruct = {0};
 8000d60:	235c      	movs	r3, #92	; 0x5c
 8000d62:	18fb      	adds	r3, r7, r3
 8000d64:	0018      	movs	r0, r3
 8000d66:	2314      	movs	r3, #20
 8000d68:	001a      	movs	r2, r3
 8000d6a:	2100      	movs	r1, #0
 8000d6c:	f003 ffae 	bl	8004ccc <memset>
  RCC_PeriphCLKInitTypeDef PeriphClkInit = {0};
 8000d70:	2410      	movs	r4, #16
 8000d72:	193b      	adds	r3, r7, r4
 8000d74:	0018      	movs	r0, r3
 8000d76:	234c      	movs	r3, #76	; 0x4c
 8000d78:	001a      	movs	r2, r3
 8000d7a:	2100      	movs	r1, #0
 8000d7c:	f003 ffa6 	bl	8004ccc <memset>
  if(huart->Instance==USART2)
 8000d80:	687b      	ldr	r3, [r7, #4]
 8000d82:	681b      	ldr	r3, [r3, #0]
 8000d84:	4a22      	ldr	r2, [pc, #136]	; (8000e10 <HAL_UART_MspInit+0xb8>)
 8000d86:	4293      	cmp	r3, r2
 8000d88:	d13e      	bne.n	8000e08 <HAL_UART_MspInit+0xb0>

  /* USER CODE END USART2_MspInit 0 */

  /** Initializes the peripherals clocks
  */
    PeriphClkInit.PeriphClockSelection = RCC_PERIPHCLK_USART2;
 8000d8a:	193b      	adds	r3, r7, r4
 8000d8c:	2202      	movs	r2, #2
 8000d8e:	601a      	str	r2, [r3, #0]
    PeriphClkInit.Usart2ClockSelection = RCC_USART2CLKSOURCE_PCLK1;
 8000d90:	193b      	adds	r3, r7, r4
 8000d92:	2200      	movs	r2, #0
 8000d94:	609a      	str	r2, [r3, #8]
    if (HAL_RCCEx_PeriphCLKConfig(&PeriphClkInit) != HAL_OK)
 8000d96:	193b      	adds	r3, r7, r4
 8000d98:	0018      	movs	r0, r3
 8000d9a:	f002 fa73 	bl	8003284 <HAL_RCCEx_PeriphCLKConfig>
 8000d9e:	1e03      	subs	r3, r0, #0
 8000da0:	d001      	beq.n	8000da6 <HAL_UART_MspInit+0x4e>
    {
      Error_Handler();
 8000da2:	f7ff fef3 	bl	8000b8c <Error_Handler>
    }

    /* Peripheral clock enable */
    __HAL_RCC_USART2_CLK_ENABLE();
 8000da6:	4b1b      	ldr	r3, [pc, #108]	; (8000e14 <HAL_UART_MspInit+0xbc>)
 8000da8:	6bda      	ldr	r2, [r3, #60]	; 0x3c
 8000daa:	4b1a      	ldr	r3, [pc, #104]	; (8000e14 <HAL_UART_MspInit+0xbc>)
 8000dac:	2180      	movs	r1, #128	; 0x80
 8000dae:	0289      	lsls	r1, r1, #10
 8000db0:	430a      	orrs	r2, r1
 8000db2:	63da      	str	r2, [r3, #60]	; 0x3c
 8000db4:	4b17      	ldr	r3, [pc, #92]	; (8000e14 <HAL_UART_MspInit+0xbc>)
 8000db6:	6bda      	ldr	r2, [r3, #60]	; 0x3c
 8000db8:	2380      	movs	r3, #128	; 0x80
 8000dba:	029b      	lsls	r3, r3, #10
 8000dbc:	4013      	ands	r3, r2
 8000dbe:	60fb      	str	r3, [r7, #12]
 8000dc0:	68fb      	ldr	r3, [r7, #12]

    __HAL_RCC_GPIOA_CLK_ENABLE();
 8000dc2:	4b14      	ldr	r3, [pc, #80]	; (8000e14 <HAL_UART_MspInit+0xbc>)
 8000dc4:	6b5a      	ldr	r2, [r3, #52]	; 0x34
 8000dc6:	4b13      	ldr	r3, [pc, #76]	; (8000e14 <HAL_UART_MspInit+0xbc>)
 8000dc8:	2101      	movs	r1, #1
 8000dca:	430a      	orrs	r2, r1
 8000dcc:	635a      	str	r2, [r3, #52]	; 0x34
 8000dce:	4b11      	ldr	r3, [pc, #68]	; (8000e14 <HAL_UART_MspInit+0xbc>)
 8000dd0:	6b5b      	ldr	r3, [r3, #52]	; 0x34
 8000dd2:	2201      	movs	r2, #1
 8000dd4:	4013      	ands	r3, r2
 8000dd6:	60bb      	str	r3, [r7, #8]
 8000dd8:	68bb      	ldr	r3, [r7, #8]
    /**USART2 GPIO Configuration
    PA2     ------> USART2_TX
    PA3     ------> USART2_RX
    */
    GPIO_InitStruct.Pin = GPIO_PIN_2|GPIO_PIN_3;
 8000dda:	215c      	movs	r1, #92	; 0x5c
 8000ddc:	187b      	adds	r3, r7, r1
 8000dde:	220c      	movs	r2, #12
 8000de0:	601a      	str	r2, [r3, #0]
    GPIO_InitStruct.Mode = GPIO_MODE_AF_PP;
 8000de2:	187b      	adds	r3, r7, r1
 8000de4:	2202      	movs	r2, #2
 8000de6:	605a      	str	r2, [r3, #4]
    GPIO_InitStruct.Pull = GPIO_NOPULL;
 8000de8:	187b      	adds	r3, r7, r1
 8000dea:	2200      	movs	r2, #0
 8000dec:	609a      	str	r2, [r3, #8]
    GPIO_InitStruct.Speed = GPIO_SPEED_FREQ_VERY_HIGH;
 8000dee:	187b      	adds	r3, r7, r1
 8000df0:	2203      	movs	r2, #3
 8000df2:	60da      	str	r2, [r3, #12]
    GPIO_InitStruct.Alternate = GPIO_AF1_USART2;
 8000df4:	187b      	adds	r3, r7, r1
 8000df6:	2201      	movs	r2, #1
 8000df8:	611a      	str	r2, [r3, #16]
    HAL_GPIO_Init(GPIOA, &GPIO_InitStruct);
 8000dfa:	187a      	adds	r2, r7, r1
 8000dfc:	23a0      	movs	r3, #160	; 0xa0
 8000dfe:	05db      	lsls	r3, r3, #23
 8000e00:	0011      	movs	r1, r2
 8000e02:	0018      	movs	r0, r3
 8000e04:	f000 fbea 	bl	80015dc <HAL_GPIO_Init>
  /* USER CODE BEGIN USART2_MspInit 1 */

  /* USER CODE END USART2_MspInit 1 */
  }

}
 8000e08:	46c0      	nop			; (mov r8, r8)
 8000e0a:	46bd      	mov	sp, r7
 8000e0c:	b01d      	add	sp, #116	; 0x74
 8000e0e:	bd90      	pop	{r4, r7, pc}
 8000e10:	40004400 	.word	0x40004400
 8000e14:	40021000 	.word	0x40021000

08000e18 <NMI_Handler>:
/******************************************************************************/
/**
  * @brief This function handles Non maskable interrupt.
  */
void NMI_Handler(void)
{
 8000e18:	b580      	push	{r7, lr}
 8000e1a:	af00      	add	r7, sp, #0
  /* USER CODE BEGIN NonMaskableInt_IRQn 0 */

  /* USER CODE END NonMaskableInt_IRQn 0 */
  /* USER CODE BEGIN NonMaskableInt_IRQn 1 */
  while (1)
 8000e1c:	e7fe      	b.n	8000e1c <NMI_Handler+0x4>

08000e1e <HardFault_Handler>:

/**
  * @brief This function handles Hard fault interrupt.
  */
void HardFault_Handler(void)
{
 8000e1e:	b580      	push	{r7, lr}
 8000e20:	af00      	add	r7, sp, #0
  /* USER CODE BEGIN HardFault_IRQn 0 */

  /* USER CODE END HardFault_IRQn 0 */
  while (1)
 8000e22:	e7fe      	b.n	8000e22 <HardFault_Handler+0x4>

08000e24 <SVC_Handler>:

/**
  * @brief This function handles System service call via SWI instruction.
  */
void SVC_Handler(void)
{
 8000e24:	b580      	push	{r7, lr}
 8000e26:	af00      	add	r7, sp, #0

  /* USER CODE END SVC_IRQn 0 */
  /* USER CODE BEGIN SVC_IRQn 1 */

  /* USER CODE END SVC_IRQn 1 */
}
 8000e28:	46c0      	nop			; (mov r8, r8)
 8000e2a:	46bd      	mov	sp, r7
 8000e2c:	bd80      	pop	{r7, pc}

08000e2e <PendSV_Handler>:

/**
  * @brief This function handles Pendable request for system service.
  */
void PendSV_Handler(void)
{
 8000e2e:	b580      	push	{r7, lr}
 8000e30:	af00      	add	r7, sp, #0

  /* USER CODE END PendSV_IRQn 0 */
  /* USER CODE BEGIN PendSV_IRQn 1 */

  /* USER CODE END PendSV_IRQn 1 */
}
 8000e32:	46c0      	nop			; (mov r8, r8)
 8000e34:	46bd      	mov	sp, r7
 8000e36:	bd80      	pop	{r7, pc}

08000e38 <SysTick_Handler>:

/**
  * @brief This function handles System tick timer.
  */
void SysTick_Handler(void)
{
 8000e38:	b580      	push	{r7, lr}
 8000e3a:	af00      	add	r7, sp, #0
  /* USER CODE BEGIN SysTick_IRQn 0 */

  /* USER CODE END SysTick_IRQn 0 */
  HAL_IncTick();
 8000e3c:	f000 fada 	bl	80013f4 <HAL_IncTick>
  /* USER CODE BEGIN SysTick_IRQn 1 */

  /* USER CODE END SysTick_IRQn 1 */
}
 8000e40:	46c0      	nop			; (mov r8, r8)
 8000e42:	46bd      	mov	sp, r7
 8000e44:	bd80      	pop	{r7, pc}

08000e46 <SystemInit>:
  * @brief  Setup the microcontroller system.
  * @param  None
  * @retval None
  */
void SystemInit(void)
{
 8000e46:	b580      	push	{r7, lr}
 8000e48:	af00      	add	r7, sp, #0
  /* Configure the Vector Table location -------------------------------------*/
#if defined(USER_VECT_TAB_ADDRESS)
  SCB->VTOR = VECT_TAB_BASE_ADDRESS | VECT_TAB_OFFSET; /* Vector Table Relocation */
#endif /* USER_VECT_TAB_ADDRESS */
}
 8000e4a:	46c0      	nop			; (mov r8, r8)
 8000e4c:	46bd      	mov	sp, r7
 8000e4e:	bd80      	pop	{r7, pc}

08000e50 <Reset_Handler>:
 8000e50:	480d      	ldr	r0, [pc, #52]	; (8000e88 <LoopForever+0x2>)
 8000e52:	4685      	mov	sp, r0
 8000e54:	f7ff fff7 	bl	8000e46 <SystemInit>
 8000e58:	480c      	ldr	r0, [pc, #48]	; (8000e8c <LoopForever+0x6>)
 8000e5a:	490d      	ldr	r1, [pc, #52]	; (8000e90 <LoopForever+0xa>)
 8000e5c:	4a0d      	ldr	r2, [pc, #52]	; (8000e94 <LoopForever+0xe>)
 8000e5e:	2300      	movs	r3, #0
 8000e60:	e002      	b.n	8000e68 <LoopCopyDataInit>

08000e62 <CopyDataInit>:
 8000e62:	58d4      	ldr	r4, [r2, r3]
 8000e64:	50c4      	str	r4, [r0, r3]
 8000e66:	3304      	adds	r3, #4

08000e68 <LoopCopyDataInit>:
 8000e68:	18c4      	adds	r4, r0, r3
 8000e6a:	428c      	cmp	r4, r1
 8000e6c:	d3f9      	bcc.n	8000e62 <CopyDataInit>
 8000e6e:	4a0a      	ldr	r2, [pc, #40]	; (8000e98 <LoopForever+0x12>)
 8000e70:	4c0a      	ldr	r4, [pc, #40]	; (8000e9c <LoopForever+0x16>)
 8000e72:	2300      	movs	r3, #0
 8000e74:	e001      	b.n	8000e7a <LoopFillZerobss>

08000e76 <FillZerobss>:
 8000e76:	6013      	str	r3, [r2, #0]
 8000e78:	3204      	adds	r2, #4

08000e7a <LoopFillZerobss>:
 8000e7a:	42a2      	cmp	r2, r4
 8000e7c:	d3fb      	bcc.n	8000e76 <FillZerobss>
 8000e7e:	f003 ff01 	bl	8004c84 <__libc_init_array>
 8000e82:	f7ff fc3b 	bl	80006fc <main>

08000e86 <LoopForever>:
 8000e86:	e7fe      	b.n	8000e86 <LoopForever>
 8000e88:	20024000 	.word	0x20024000
 8000e8c:	20000000 	.word	0x20000000
 8000e90:	2000000c 	.word	0x2000000c
 8000e94:	08004db4 	.word	0x08004db4
 8000e98:	2000000c 	.word	0x2000000c
 8000e9c:	200001e8 	.word	0x200001e8

08000ea0 <ADC1_COMP_IRQHandler>:
 8000ea0:	e7fe      	b.n	8000ea0 <ADC1_COMP_IRQHandler>
	...

08000ea4 <LED12A1_Init>:
/**
* @brief  LED12A1 Board Initialization 
* @retval 0 in case of success, an error code otherwise
*/
int32_t LED12A1_Init( void )
{
 8000ea4:	b580      	push	{r7, lr}
 8000ea6:	b088      	sub	sp, #32
 8000ea8:	af00      	add	r7, sp, #0
  volatile int32_t ret =  (int32_t)LED1202_OK;
 8000eaa:	2300      	movs	r3, #0
 8000eac:	61fb      	str	r3, [r7, #28]
  LED1202_IO_TypeDef ledIO;
  
  /*register SPI bus function to the component */
  ledIO.BusType = LED1202_I2C_BUS;
 8000eae:	003b      	movs	r3, r7
 8000eb0:	2200      	movs	r2, #0
 8000eb2:	601a      	str	r2, [r3, #0]
  ledIO.Address = LED1202_I2C_ADDR;
 8000eb4:	003b      	movs	r3, r7
 8000eb6:	225c      	movs	r2, #92	; 0x5c
 8000eb8:	711a      	strb	r2, [r3, #4]
  ledIO.Init = LED12A1_I2C_Init;
 8000eba:	003b      	movs	r3, r7
 8000ebc:	4a0d      	ldr	r2, [pc, #52]	; (8000ef4 <LED12A1_Init+0x50>)
 8000ebe:	609a      	str	r2, [r3, #8]
  ledIO.DeInit = LED12A1_I2C_DeInit;
 8000ec0:	003b      	movs	r3, r7
 8000ec2:	4a0d      	ldr	r2, [pc, #52]	; (8000ef8 <LED12A1_Init+0x54>)
 8000ec4:	60da      	str	r2, [r3, #12]
  ledIO.Write = LED12A1_I2C_Write;
 8000ec6:	003b      	movs	r3, r7
 8000ec8:	4a0c      	ldr	r2, [pc, #48]	; (8000efc <LED12A1_Init+0x58>)
 8000eca:	611a      	str	r2, [r3, #16]
  ledIO.Read = LED12A1_I2C_Read;
 8000ecc:	003b      	movs	r3, r7
 8000ece:	4a0c      	ldr	r2, [pc, #48]	; (8000f00 <LED12A1_Init+0x5c>)
 8000ed0:	615a      	str	r2, [r3, #20]
  ledIO.Delay = LED12A1_Delay;
 8000ed2:	003b      	movs	r3, r7
 8000ed4:	4a0b      	ldr	r2, [pc, #44]	; (8000f04 <LED12A1_Init+0x60>)
 8000ed6:	619a      	str	r2, [r3, #24]
  
  ret = LED1202_RegisterBusIO (&LED1202Obj, &ledIO);
 8000ed8:	003a      	movs	r2, r7
 8000eda:	4b0b      	ldr	r3, [pc, #44]	; (8000f08 <LED12A1_Init+0x64>)
 8000edc:	0011      	movs	r1, r2
 8000ede:	0018      	movs	r0, r3
 8000ee0:	f003 fd66 	bl	80049b0 <LED1202_RegisterBusIO>
 8000ee4:	0003      	movs	r3, r0
 8000ee6:	61fb      	str	r3, [r7, #28]
  
  return (ret);
 8000ee8:	69fb      	ldr	r3, [r7, #28]
}
 8000eea:	0018      	movs	r0, r3
 8000eec:	46bd      	mov	sp, r7
 8000eee:	b008      	add	sp, #32
 8000ef0:	bd80      	pop	{r7, pc}
 8000ef2:	46c0      	nop			; (mov r8, r8)
 8000ef4:	08000f0d 	.word	0x08000f0d
 8000ef8:	08000f1d 	.word	0x08000f1d
 8000efc:	08000f41 	.word	0x08000f41
 8000f00:	08000fa5 	.word	0x08000fa5
 8000f04:	0800142d 	.word	0x0800142d
 8000f08:	200001b4 	.word	0x200001b4

08000f0c <BSP_I2C_Init>:
/**
* @brief  LED12A1 I2C Initialization 
* @retval 0 in case of success, an error code otherwise
*/
int32_t  BSP_I2C_Init(void)
{
 8000f0c:	b580      	push	{r7, lr}
 8000f0e:	af00      	add	r7, sp, #0
  MX_I2C1_Init();
 8000f10:	f7ff fc8e 	bl	8000830 <MX_I2C1_Init>
  return (0);
 8000f14:	2300      	movs	r3, #0
}
 8000f16:	0018      	movs	r0, r3
 8000f18:	46bd      	mov	sp, r7
 8000f1a:	bd80      	pop	{r7, pc}

08000f1c <BSP_I2C_DeInit>:
/**
* @brief  LED12A1 I2C DeInitialization 
* @retval 0 in case of success, an error code otherwise
*/
int32_t BSP_I2C_DeInit(void)
{
 8000f1c:	b590      	push	{r4, r7, lr}
 8000f1e:	b083      	sub	sp, #12
 8000f20:	af00      	add	r7, sp, #0
  HAL_StatusTypeDef ret;
  ret  = HAL_I2C_DeInit(&hi2c1);
 8000f22:	1dfc      	adds	r4, r7, #7
 8000f24:	4b05      	ldr	r3, [pc, #20]	; (8000f3c <BSP_I2C_DeInit+0x20>)
 8000f26:	0018      	movs	r0, r3
 8000f28:	f000 fe50 	bl	8001bcc <HAL_I2C_DeInit>
 8000f2c:	0003      	movs	r3, r0
 8000f2e:	7023      	strb	r3, [r4, #0]
  return((int32_t)ret);
 8000f30:	1dfb      	adds	r3, r7, #7
 8000f32:	781b      	ldrb	r3, [r3, #0]
}
 8000f34:	0018      	movs	r0, r3
 8000f36:	46bd      	mov	sp, r7
 8000f38:	b003      	add	sp, #12
 8000f3a:	bd90      	pop	{r4, r7, pc}
 8000f3c:	20000028 	.word	0x20000028

08000f40 <BSP_I2C_Write>:
* @param  Reg: The target register address to write
* @param  Value: The target register value to be written
* @retval BSP status
*/
int32_t BSP_I2C_Write(uint16_t DevAddr, uint16_t Reg, const uint8_t* pData, uint16_t Len)
{
 8000f40:	b5b0      	push	{r4, r5, r7, lr}
 8000f42:	b08a      	sub	sp, #40	; 0x28
 8000f44:	af04      	add	r7, sp, #16
 8000f46:	0004      	movs	r4, r0
 8000f48:	0008      	movs	r0, r1
 8000f4a:	60ba      	str	r2, [r7, #8]
 8000f4c:	0019      	movs	r1, r3
 8000f4e:	250e      	movs	r5, #14
 8000f50:	197b      	adds	r3, r7, r5
 8000f52:	1c22      	adds	r2, r4, #0
 8000f54:	801a      	strh	r2, [r3, #0]
 8000f56:	240c      	movs	r4, #12
 8000f58:	193b      	adds	r3, r7, r4
 8000f5a:	1c02      	adds	r2, r0, #0
 8000f5c:	801a      	strh	r2, [r3, #0]
 8000f5e:	1dbb      	adds	r3, r7, #6
 8000f60:	1c0a      	adds	r2, r1, #0
 8000f62:	801a      	strh	r2, [r3, #0]
  int32_t ret = (int32_t)BSP_ERROR_BUS_FAILURE;
 8000f64:	2308      	movs	r3, #8
 8000f66:	425b      	negs	r3, r3
 8000f68:	617b      	str	r3, [r7, #20]
  
  if (HAL_I2C_Mem_Write(&hi2c1, (uint8_t)DevAddr,
 8000f6a:	197b      	adds	r3, r7, r5
 8000f6c:	881b      	ldrh	r3, [r3, #0]
 8000f6e:	b2db      	uxtb	r3, r3
 8000f70:	b299      	uxth	r1, r3
 8000f72:	193b      	adds	r3, r7, r4
 8000f74:	881a      	ldrh	r2, [r3, #0]
 8000f76:	480a      	ldr	r0, [pc, #40]	; (8000fa0 <BSP_I2C_Write+0x60>)
 8000f78:	23fa      	movs	r3, #250	; 0xfa
 8000f7a:	009b      	lsls	r3, r3, #2
 8000f7c:	9302      	str	r3, [sp, #8]
 8000f7e:	1dbb      	adds	r3, r7, #6
 8000f80:	881b      	ldrh	r3, [r3, #0]
 8000f82:	9301      	str	r3, [sp, #4]
 8000f84:	68bb      	ldr	r3, [r7, #8]
 8000f86:	9300      	str	r3, [sp, #0]
 8000f88:	2301      	movs	r3, #1
 8000f8a:	f000 fe4f 	bl	8001c2c <HAL_I2C_Mem_Write>
 8000f8e:	1e03      	subs	r3, r0, #0
 8000f90:	d101      	bne.n	8000f96 <BSP_I2C_Write+0x56>
                        (uint16_t)Reg, I2C_MEMADD_SIZE_8BIT,
                        (uint8_t *)pData, Len, TIMEOUT_DURATION) == HAL_OK)
  {
    ret = BSP_ERROR_NONE;
 8000f92:	2300      	movs	r3, #0
 8000f94:	617b      	str	r3, [r7, #20]
  }
  
  return ret;
 8000f96:	697b      	ldr	r3, [r7, #20]
}
 8000f98:	0018      	movs	r0, r3
 8000f9a:	46bd      	mov	sp, r7
 8000f9c:	b006      	add	sp, #24
 8000f9e:	bdb0      	pop	{r4, r5, r7, pc}
 8000fa0:	20000028 	.word	0x20000028

08000fa4 <BSP_I2C_Read>:
* @param  DevAddr: Device address on BUS
* @param  Reg: The target register address to read
* @retval BSP status
*/
int32_t BSP_I2C_Read(uint16_t DevAddr, uint16_t Reg, const uint8_t* pData, uint16_t Len)
{
 8000fa4:	b5b0      	push	{r4, r5, r7, lr}
 8000fa6:	b08a      	sub	sp, #40	; 0x28
 8000fa8:	af04      	add	r7, sp, #16
 8000faa:	0004      	movs	r4, r0
 8000fac:	0008      	movs	r0, r1
 8000fae:	60ba      	str	r2, [r7, #8]
 8000fb0:	0019      	movs	r1, r3
 8000fb2:	250e      	movs	r5, #14
 8000fb4:	197b      	adds	r3, r7, r5
 8000fb6:	1c22      	adds	r2, r4, #0
 8000fb8:	801a      	strh	r2, [r3, #0]
 8000fba:	240c      	movs	r4, #12
 8000fbc:	193b      	adds	r3, r7, r4
 8000fbe:	1c02      	adds	r2, r0, #0
 8000fc0:	801a      	strh	r2, [r3, #0]
 8000fc2:	1dbb      	adds	r3, r7, #6
 8000fc4:	1c0a      	adds	r2, r1, #0
 8000fc6:	801a      	strh	r2, [r3, #0]
  int32_t ret = BSP_ERROR_BUS_FAILURE;
 8000fc8:	2308      	movs	r3, #8
 8000fca:	425b      	negs	r3, r3
 8000fcc:	617b      	str	r3, [r7, #20]
  
  if (HAL_I2C_Mem_Read(&hi2c1, DevAddr, (uint16_t)Reg,
 8000fce:	193b      	adds	r3, r7, r4
 8000fd0:	881a      	ldrh	r2, [r3, #0]
 8000fd2:	197b      	adds	r3, r7, r5
 8000fd4:	8819      	ldrh	r1, [r3, #0]
 8000fd6:	480a      	ldr	r0, [pc, #40]	; (8001000 <BSP_I2C_Read+0x5c>)
 8000fd8:	23fa      	movs	r3, #250	; 0xfa
 8000fda:	009b      	lsls	r3, r3, #2
 8000fdc:	9302      	str	r3, [sp, #8]
 8000fde:	1dbb      	adds	r3, r7, #6
 8000fe0:	881b      	ldrh	r3, [r3, #0]
 8000fe2:	9301      	str	r3, [sp, #4]
 8000fe4:	68bb      	ldr	r3, [r7, #8]
 8000fe6:	9300      	str	r3, [sp, #0]
 8000fe8:	2301      	movs	r3, #1
 8000fea:	f000 ff4d 	bl	8001e88 <HAL_I2C_Mem_Read>
 8000fee:	1e03      	subs	r3, r0, #0
 8000ff0:	d101      	bne.n	8000ff6 <BSP_I2C_Read+0x52>
                       I2C_MEMADD_SIZE_8BIT, (uint8_t *)pData,
                       Len, TIMEOUT_DURATION) == HAL_OK)
  {
    ret = BSP_ERROR_NONE;
 8000ff2:	2300      	movs	r3, #0
 8000ff4:	617b      	str	r3, [r7, #20]
  }
  
  return ret;
 8000ff6:	697b      	ldr	r3, [r7, #20]
}
 8000ff8:	0018      	movs	r0, r3
 8000ffa:	46bd      	mov	sp, r7
 8000ffc:	b006      	add	sp, #24
 8000ffe:	bdb0      	pop	{r4, r5, r7, pc}
 8001000:	20000028 	.word	0x20000028

08001004 <ReadRegWrap>:
* @param  pData the stored data pointer
* @param  Length the length
* @retval 0 in case of success, an error code otherwise
*/
int32_t ReadRegWrap(void *Handle, uint8_t Reg, const uint8_t *pData, uint16_t Length)
{
 8001004:	b5f0      	push	{r4, r5, r6, r7, lr}
 8001006:	b087      	sub	sp, #28
 8001008:	af00      	add	r7, sp, #0
 800100a:	60f8      	str	r0, [r7, #12]
 800100c:	0008      	movs	r0, r1
 800100e:	607a      	str	r2, [r7, #4]
 8001010:	0019      	movs	r1, r3
 8001012:	250b      	movs	r5, #11
 8001014:	197b      	adds	r3, r7, r5
 8001016:	1c02      	adds	r2, r0, #0
 8001018:	701a      	strb	r2, [r3, #0]
 800101a:	2608      	movs	r6, #8
 800101c:	19bb      	adds	r3, r7, r6
 800101e:	1c0a      	adds	r2, r1, #0
 8001020:	801a      	strh	r2, [r3, #0]
  LED1202_Object_TypeDef *led1202Obj = (LED1202_Object_TypeDef *)Handle;
 8001022:	68fb      	ldr	r3, [r7, #12]
 8001024:	617b      	str	r3, [r7, #20]
  
  return led1202Obj->IO.Read(led1202Obj->IO.Address, Reg, pData, Length);
 8001026:	697b      	ldr	r3, [r7, #20]
 8001028:	695c      	ldr	r4, [r3, #20]
 800102a:	697b      	ldr	r3, [r7, #20]
 800102c:	791b      	ldrb	r3, [r3, #4]
 800102e:	b298      	uxth	r0, r3
 8001030:	197b      	adds	r3, r7, r5
 8001032:	781b      	ldrb	r3, [r3, #0]
 8001034:	b299      	uxth	r1, r3
 8001036:	19bb      	adds	r3, r7, r6
 8001038:	881b      	ldrh	r3, [r3, #0]
 800103a:	687a      	ldr	r2, [r7, #4]
 800103c:	47a0      	blx	r4
 800103e:	0003      	movs	r3, r0
}
 8001040:	0018      	movs	r0, r3
 8001042:	46bd      	mov	sp, r7
 8001044:	b007      	add	sp, #28
 8001046:	bdf0      	pop	{r4, r5, r6, r7, pc}

08001048 <WriteRegWrap>:
* @param  pData the stored data pointer
* @param  Length the length
* @retval 0 in case of success, an error code otherwise
*/
int32_t WriteRegWrap(void *Handle, uint8_t Reg, const uint8_t *pData, uint16_t Length)
{
 8001048:	b5f0      	push	{r4, r5, r6, r7, lr}
 800104a:	b087      	sub	sp, #28
 800104c:	af00      	add	r7, sp, #0
 800104e:	60f8      	str	r0, [r7, #12]
 8001050:	0008      	movs	r0, r1
 8001052:	607a      	str	r2, [r7, #4]
 8001054:	0019      	movs	r1, r3
 8001056:	250b      	movs	r5, #11
 8001058:	197b      	adds	r3, r7, r5
 800105a:	1c02      	adds	r2, r0, #0
 800105c:	701a      	strb	r2, [r3, #0]
 800105e:	2608      	movs	r6, #8
 8001060:	19bb      	adds	r3, r7, r6
 8001062:	1c0a      	adds	r2, r1, #0
 8001064:	801a      	strh	r2, [r3, #0]
  LED1202_Object_TypeDef *led1202Obj  = (LED1202_Object_TypeDef *)Handle;
 8001066:	68fb      	ldr	r3, [r7, #12]
 8001068:	617b      	str	r3, [r7, #20]
  
  return led1202Obj->IO.Write(led1202Obj->IO.Address, Reg, pData, Length);
 800106a:	697b      	ldr	r3, [r7, #20]
 800106c:	691c      	ldr	r4, [r3, #16]
 800106e:	697b      	ldr	r3, [r7, #20]
 8001070:	791b      	ldrb	r3, [r3, #4]
 8001072:	b298      	uxth	r0, r3
 8001074:	197b      	adds	r3, r7, r5
 8001076:	781b      	ldrb	r3, [r3, #0]
 8001078:	b299      	uxth	r1, r3
 800107a:	19bb      	adds	r3, r7, r6
 800107c:	881b      	ldrh	r3, [r3, #0]
 800107e:	687a      	ldr	r2, [r7, #4]
 8001080:	47a0      	blx	r4
 8001082:	0003      	movs	r3, r0
}
 8001084:	0018      	movs	r0, r3
 8001086:	46bd      	mov	sp, r7
 8001088:	b007      	add	sp, #28
 800108a:	bdf0      	pop	{r4, r5, r6, r7, pc}

0800108c <LED12A1_DeviceEnable>:
* @param  pObj pointer to Object
* @param  DevSelect Device selected (LED_DEVICE1, LED_DEVICE2 ,LED_DEVICE3 or LED_DEVICE_ALL)
* @retval 0 in case of success, an error code otherwise
*/
int32_t LED12A1_DeviceEnable( LED1202_Object_TypeDef* pObj , TypedefEnumDevAddr DevSelect)
{
 800108c:	b580      	push	{r7, lr}
 800108e:	b086      	sub	sp, #24
 8001090:	af00      	add	r7, sp, #0
 8001092:	6078      	str	r0, [r7, #4]
 8001094:	000a      	movs	r2, r1
 8001096:	1cfb      	adds	r3, r7, #3
 8001098:	701a      	strb	r2, [r3, #0]
  volatile int32_t ret = (int32_t) LED1202_OK;
 800109a:	2300      	movs	r3, #0
 800109c:	613b      	str	r3, [r7, #16]
  uint8_t tmp = 0x01;
 800109e:	230f      	movs	r3, #15
 80010a0:	18fb      	adds	r3, r7, r3
 80010a2:	2201      	movs	r2, #1
 80010a4:	701a      	strb	r2, [r3, #0]
  uint8_t devAddr;
  
  switch(DevSelect)
 80010a6:	1cfb      	adds	r3, r7, #3
 80010a8:	781b      	ldrb	r3, [r3, #0]
 80010aa:	2b04      	cmp	r3, #4
 80010ac:	d81d      	bhi.n	80010ea <LED12A1_DeviceEnable+0x5e>
 80010ae:	009a      	lsls	r2, r3, #2
 80010b0:	4b1c      	ldr	r3, [pc, #112]	; (8001124 <LED12A1_DeviceEnable+0x98>)
 80010b2:	18d3      	adds	r3, r2, r3
 80010b4:	681b      	ldr	r3, [r3, #0]
 80010b6:	469f      	mov	pc, r3
  {
  case LED_DEVICE1:
    devAddr = LED1202_DEV1_7BIT_ADDR;
 80010b8:	2317      	movs	r3, #23
 80010ba:	18fb      	adds	r3, r7, r3
 80010bc:	2258      	movs	r2, #88	; 0x58
 80010be:	701a      	strb	r2, [r3, #0]
    
    break;
 80010c0:	e018      	b.n	80010f4 <LED12A1_DeviceEnable+0x68>
    
  case LED_DEVICE2:
    devAddr = LED1202_DEV2_7BIT_ADDR;
 80010c2:	2317      	movs	r3, #23
 80010c4:	18fb      	adds	r3, r7, r3
 80010c6:	2259      	movs	r2, #89	; 0x59
 80010c8:	701a      	strb	r2, [r3, #0]
    break;
 80010ca:	e013      	b.n	80010f4 <LED12A1_DeviceEnable+0x68>
    
  case LED_DEVICE3:
    devAddr = LED1202_DEV3_7BIT_ADDR;
 80010cc:	2317      	movs	r3, #23
 80010ce:	18fb      	adds	r3, r7, r3
 80010d0:	225a      	movs	r2, #90	; 0x5a
 80010d2:	701a      	strb	r2, [r3, #0]
    break;
 80010d4:	e00e      	b.n	80010f4 <LED12A1_DeviceEnable+0x68>
    
  case LED_DEVICE4:
    devAddr = LED1202_DEV4_7BIT_ADDR;
 80010d6:	2317      	movs	r3, #23
 80010d8:	18fb      	adds	r3, r7, r3
 80010da:	225b      	movs	r2, #91	; 0x5b
 80010dc:	701a      	strb	r2, [r3, #0]
    break;  
 80010de:	e009      	b.n	80010f4 <LED12A1_DeviceEnable+0x68>
    
  case LED_DEVICE_ALL:
    devAddr = LED1202_GLOBAL_7BIT_ADDR; /*GLOBAL ADDRESS*/
 80010e0:	2317      	movs	r3, #23
 80010e2:	18fb      	adds	r3, r7, r3
 80010e4:	225c      	movs	r2, #92	; 0x5c
 80010e6:	701a      	strb	r2, [r3, #0]
    break;
 80010e8:	e004      	b.n	80010f4 <LED12A1_DeviceEnable+0x68>
    
  default:
    devAddr = LED1202_GLOBAL_7BIT_ADDR;
 80010ea:	2317      	movs	r3, #23
 80010ec:	18fb      	adds	r3, r7, r3
 80010ee:	225c      	movs	r2, #92	; 0x5c
 80010f0:	701a      	strb	r2, [r3, #0]
    break;
 80010f2:	46c0      	nop			; (mov r8, r8)
    
  }
  
  pObj->IO.Address = (uint8_t)(devAddr<<1);
 80010f4:	2317      	movs	r3, #23
 80010f6:	18fb      	adds	r3, r7, r3
 80010f8:	781b      	ldrb	r3, [r3, #0]
 80010fa:	18db      	adds	r3, r3, r3
 80010fc:	b2da      	uxtb	r2, r3
 80010fe:	687b      	ldr	r3, [r7, #4]
 8001100:	711a      	strb	r2, [r3, #4]
  
  ret = LED1202_WriteReg(&(pObj->Ctx), LED1202_DEVICE_ENABLE, &tmp, 1);
 8001102:	687b      	ldr	r3, [r7, #4]
 8001104:	331c      	adds	r3, #28
 8001106:	0018      	movs	r0, r3
 8001108:	230f      	movs	r3, #15
 800110a:	18fa      	adds	r2, r7, r3
 800110c:	2301      	movs	r3, #1
 800110e:	2101      	movs	r1, #1
 8001110:	f003 fd96 	bl	8004c40 <LED1202_WriteReg>
 8001114:	0003      	movs	r3, r0
 8001116:	613b      	str	r3, [r7, #16]
  return(ret);
 8001118:	693b      	ldr	r3, [r7, #16]
}
 800111a:	0018      	movs	r0, r3
 800111c:	46bd      	mov	sp, r7
 800111e:	b006      	add	sp, #24
 8001120:	bd80      	pop	{r7, pc}
 8001122:	46c0      	nop			; (mov r8, r8)
 8001124:	08004d54 	.word	0x08004d54

08001128 <LED12A1_SetDeviceAddr>:
* @param  pObj pointer to Object
* @param  DevSelect Device selected (LED_DEVICE1, LED_DEVICE2 ,LED_DEVICE3 or LED_DEVICE_ALL)
* @retval 0 in case of success, an error code otherwise
*/
int32_t LED12A1_SetDeviceAddr( LED1202_Object_TypeDef* pObj , TypedefEnumDevAddr DevSelect)
{
 8001128:	b580      	push	{r7, lr}
 800112a:	b084      	sub	sp, #16
 800112c:	af00      	add	r7, sp, #0
 800112e:	6078      	str	r0, [r7, #4]
 8001130:	000a      	movs	r2, r1
 8001132:	1cfb      	adds	r3, r7, #3
 8001134:	701a      	strb	r2, [r3, #0]
  volatile int32_t ret = (int32_t) LED1202_OK;
 8001136:	2300      	movs	r3, #0
 8001138:	60bb      	str	r3, [r7, #8]
  uint8_t devAddr;
  
  switch(DevSelect)
 800113a:	1cfb      	adds	r3, r7, #3
 800113c:	781b      	ldrb	r3, [r3, #0]
 800113e:	2b04      	cmp	r3, #4
 8001140:	d81d      	bhi.n	800117e <LED12A1_SetDeviceAddr+0x56>
 8001142:	009a      	lsls	r2, r3, #2
 8001144:	4b15      	ldr	r3, [pc, #84]	; (800119c <LED12A1_SetDeviceAddr+0x74>)
 8001146:	18d3      	adds	r3, r2, r3
 8001148:	681b      	ldr	r3, [r3, #0]
 800114a:	469f      	mov	pc, r3
  {
  case LED_DEVICE1:
    devAddr = LED1202_DEV1_7BIT_ADDR;
 800114c:	230f      	movs	r3, #15
 800114e:	18fb      	adds	r3, r7, r3
 8001150:	2258      	movs	r2, #88	; 0x58
 8001152:	701a      	strb	r2, [r3, #0]
    
    break;
 8001154:	e018      	b.n	8001188 <LED12A1_SetDeviceAddr+0x60>
    
  case LED_DEVICE2:
    devAddr = LED1202_DEV2_7BIT_ADDR;
 8001156:	230f      	movs	r3, #15
 8001158:	18fb      	adds	r3, r7, r3
 800115a:	2259      	movs	r2, #89	; 0x59
 800115c:	701a      	strb	r2, [r3, #0]
    break;
 800115e:	e013      	b.n	8001188 <LED12A1_SetDeviceAddr+0x60>
    
  case LED_DEVICE3:
    devAddr = LED1202_DEV3_7BIT_ADDR;
 8001160:	230f      	movs	r3, #15
 8001162:	18fb      	adds	r3, r7, r3
 8001164:	225a      	movs	r2, #90	; 0x5a
 8001166:	701a      	strb	r2, [r3, #0]
    break;
 8001168:	e00e      	b.n	8001188 <LED12A1_SetDeviceAddr+0x60>
    
  case LED_DEVICE4:
    devAddr = LED1202_DEV4_7BIT_ADDR;
 800116a:	230f      	movs	r3, #15
 800116c:	18fb      	adds	r3, r7, r3
 800116e:	225b      	movs	r2, #91	; 0x5b
 8001170:	701a      	strb	r2, [r3, #0]
    break;
 8001172:	e009      	b.n	8001188 <LED12A1_SetDeviceAddr+0x60>
    
  case LED_DEVICE_ALL:
    devAddr = LED1202_GLOBAL_7BIT_ADDR; /*GLOBAL ADDRESS*/
 8001174:	230f      	movs	r3, #15
 8001176:	18fb      	adds	r3, r7, r3
 8001178:	225c      	movs	r2, #92	; 0x5c
 800117a:	701a      	strb	r2, [r3, #0]
    break;
 800117c:	e004      	b.n	8001188 <LED12A1_SetDeviceAddr+0x60>
    
  default:
    devAddr = LED1202_GLOBAL_7BIT_ADDR;
 800117e:	230f      	movs	r3, #15
 8001180:	18fb      	adds	r3, r7, r3
 8001182:	225c      	movs	r2, #92	; 0x5c
 8001184:	701a      	strb	r2, [r3, #0]
    break;
 8001186:	46c0      	nop			; (mov r8, r8)
    
  }
  
  pObj->IO.Address = devAddr;
 8001188:	687b      	ldr	r3, [r7, #4]
 800118a:	220f      	movs	r2, #15
 800118c:	18ba      	adds	r2, r7, r2
 800118e:	7812      	ldrb	r2, [r2, #0]
 8001190:	711a      	strb	r2, [r3, #4]
  
  return(ret);
 8001192:	68bb      	ldr	r3, [r7, #8]
}
 8001194:	0018      	movs	r0, r3
 8001196:	46bd      	mov	sp, r7
 8001198:	b004      	add	sp, #16
 800119a:	bd80      	pop	{r7, pc}
 800119c:	08004d68 	.word	0x08004d68

080011a0 <LED12A1_ScanAvailDevice>:
* @param  pObj pointer to Object
* @param  pBuff Pointer to buffer to store the Available devices 7 bit addresses
* @retval Number of LED1202 devices available on board
*/
int32_t LED12A1_ScanAvailDevice( LED1202_Object_TypeDef* pObj ,uint8_t *pBuff)
{
 80011a0:	b590      	push	{r4, r7, lr}
 80011a2:	b089      	sub	sp, #36	; 0x24
 80011a4:	af00      	add	r7, sp, #0
 80011a6:	6078      	str	r0, [r7, #4]
 80011a8:	6039      	str	r1, [r7, #0]
  uint8_t i2cStartAddr = 0x58;
 80011aa:	2113      	movs	r1, #19
 80011ac:	187b      	adds	r3, r7, r1
 80011ae:	2258      	movs	r2, #88	; 0x58
 80011b0:	701a      	strb	r2, [r3, #0]
  uint8_t i2cEndAddr = 0x60;
 80011b2:	2312      	movs	r3, #18
 80011b4:	18fb      	adds	r3, r7, r3
 80011b6:	2260      	movs	r2, #96	; 0x60
 80011b8:	701a      	strb	r2, [r3, #0]
  uint8_t addr;
  uint8_t *buffPtr = pBuff;
 80011ba:	683b      	ldr	r3, [r7, #0]
 80011bc:	61bb      	str	r3, [r7, #24]
  uint8_t devId;
  int32_t status;
  int32_t numDev = 0;
 80011be:	2300      	movs	r3, #0
 80011c0:	617b      	str	r3, [r7, #20]
  
  for (addr = i2cStartAddr; addr<=i2cEndAddr; addr++)
 80011c2:	231f      	movs	r3, #31
 80011c4:	18fb      	adds	r3, r7, r3
 80011c6:	187a      	adds	r2, r7, r1
 80011c8:	7812      	ldrb	r2, [r2, #0]
 80011ca:	701a      	strb	r2, [r3, #0]
 80011cc:	e020      	b.n	8001210 <LED12A1_ScanAvailDevice+0x70>
  {
    devId = 0;
 80011ce:	210b      	movs	r1, #11
 80011d0:	187b      	adds	r3, r7, r1
 80011d2:	2200      	movs	r2, #0
 80011d4:	701a      	strb	r2, [r3, #0]
    status =  LED1202_ReadID(pObj, &devId, addr);
 80011d6:	241f      	movs	r4, #31
 80011d8:	193b      	adds	r3, r7, r4
 80011da:	781a      	ldrb	r2, [r3, #0]
 80011dc:	1879      	adds	r1, r7, r1
 80011de:	687b      	ldr	r3, [r7, #4]
 80011e0:	0018      	movs	r0, r3
 80011e2:	f003 fc2f 	bl	8004a44 <LED1202_ReadID>
 80011e6:	0003      	movs	r3, r0
 80011e8:	60fb      	str	r3, [r7, #12]
    
    if(status == ((int32_t)LED1202_OK))
 80011ea:	68fb      	ldr	r3, [r7, #12]
 80011ec:	2b00      	cmp	r3, #0
 80011ee:	d109      	bne.n	8001204 <LED12A1_ScanAvailDevice+0x64>
    {
      numDev++;
 80011f0:	697b      	ldr	r3, [r7, #20]
 80011f2:	3301      	adds	r3, #1
 80011f4:	617b      	str	r3, [r7, #20]
      *buffPtr = addr;
 80011f6:	69bb      	ldr	r3, [r7, #24]
 80011f8:	193a      	adds	r2, r7, r4
 80011fa:	7812      	ldrb	r2, [r2, #0]
 80011fc:	701a      	strb	r2, [r3, #0]
      buffPtr++;
 80011fe:	69bb      	ldr	r3, [r7, #24]
 8001200:	3301      	adds	r3, #1
 8001202:	61bb      	str	r3, [r7, #24]
  for (addr = i2cStartAddr; addr<=i2cEndAddr; addr++)
 8001204:	211f      	movs	r1, #31
 8001206:	187b      	adds	r3, r7, r1
 8001208:	781a      	ldrb	r2, [r3, #0]
 800120a:	187b      	adds	r3, r7, r1
 800120c:	3201      	adds	r2, #1
 800120e:	701a      	strb	r2, [r3, #0]
 8001210:	231f      	movs	r3, #31
 8001212:	18fa      	adds	r2, r7, r3
 8001214:	2312      	movs	r3, #18
 8001216:	18fb      	adds	r3, r7, r3
 8001218:	7812      	ldrb	r2, [r2, #0]
 800121a:	781b      	ldrb	r3, [r3, #0]
 800121c:	429a      	cmp	r2, r3
 800121e:	d9d6      	bls.n	80011ce <LED12A1_ScanAvailDevice+0x2e>
    }
  }
  
  return(numDev);
 8001220:	697b      	ldr	r3, [r7, #20]
}
 8001222:	0018      	movs	r0, r3
 8001224:	46bd      	mov	sp, r7
 8001226:	b009      	add	sp, #36	; 0x24
 8001228:	bd90      	pop	{r4, r7, pc}

0800122a <LED12A1_AnalogDimming>:
* @param  Channel The channel to be written (0 to 11)
* @param  DevSelect Device selected (LED_DEVICE1, LED_DEVICE2 ,LED_DEVICE3 or LED_DEVICE_ALL)
* @retval Number of LED1202 devices available on board
*/
int32_t LED12A1_AnalogDimming( LED1202_Object_TypeDef* pObj , uint8_t Current, uint8_t Channel, TypedefEnumDevAddr DevSelect)
{
 800122a:	b590      	push	{r4, r7, lr}
 800122c:	b085      	sub	sp, #20
 800122e:	af00      	add	r7, sp, #0
 8001230:	6078      	str	r0, [r7, #4]
 8001232:	000c      	movs	r4, r1
 8001234:	0010      	movs	r0, r2
 8001236:	0019      	movs	r1, r3
 8001238:	1cfb      	adds	r3, r7, #3
 800123a:	1c22      	adds	r2, r4, #0
 800123c:	701a      	strb	r2, [r3, #0]
 800123e:	1cbb      	adds	r3, r7, #2
 8001240:	1c02      	adds	r2, r0, #0
 8001242:	701a      	strb	r2, [r3, #0]
 8001244:	1c7b      	adds	r3, r7, #1
 8001246:	1c0a      	adds	r2, r1, #0
 8001248:	701a      	strb	r2, [r3, #0]
  volatile int32_t ret = (int32_t) LED1202_OK;
 800124a:	2300      	movs	r3, #0
 800124c:	60fb      	str	r3, [r7, #12]
  ret = LED12A1_SetDeviceAddr(pObj ,DevSelect);
 800124e:	1c7b      	adds	r3, r7, #1
 8001250:	781a      	ldrb	r2, [r3, #0]
 8001252:	687b      	ldr	r3, [r7, #4]
 8001254:	0011      	movs	r1, r2
 8001256:	0018      	movs	r0, r3
 8001258:	f7ff ff66 	bl	8001128 <LED12A1_SetDeviceAddr>
 800125c:	0003      	movs	r3, r0
 800125e:	60fb      	str	r3, [r7, #12]
  ret = LED1202_WriteLEDCurrentReg(pObj ,Current, Channel, pObj->IO.Address); 
 8001260:	1cbb      	adds	r3, r7, #2
 8001262:	781b      	ldrb	r3, [r3, #0]
 8001264:	b29a      	uxth	r2, r3
 8001266:	687b      	ldr	r3, [r7, #4]
 8001268:	791c      	ldrb	r4, [r3, #4]
 800126a:	1cfb      	adds	r3, r7, #3
 800126c:	7819      	ldrb	r1, [r3, #0]
 800126e:	6878      	ldr	r0, [r7, #4]
 8001270:	0023      	movs	r3, r4
 8001272:	f003 fc84 	bl	8004b7e <LED1202_WriteLEDCurrentReg>
 8001276:	0003      	movs	r3, r0
 8001278:	60fb      	str	r3, [r7, #12]
  return(ret);
 800127a:	68fb      	ldr	r3, [r7, #12]
}
 800127c:	0018      	movs	r0, r3
 800127e:	46bd      	mov	sp, r7
 8001280:	b005      	add	sp, #20
 8001282:	bd90      	pop	{r4, r7, pc}

08001284 <LED12A1_ChannelEnable>:
* @param  Channel any combination of LED_CHANNEL_0,LED_CHANNEL_1,LED_CHANNEL_2..LED_CHANNEL_11 can be passed
* @param  DevSelect Selected Device(  LED_DEVICE1 ,LED_DEVICE2,LED_DEVICE3 or LED_DEVICE_ALL)
* @retval 0 in case of success, an error code otherwise
*/
int32_t LED12A1_ChannelEnable( LED1202_Object_TypeDef* pObj , TypeDefChannel Channel, TypedefEnumDevAddr DevSelect)
{
 8001284:	b580      	push	{r7, lr}
 8001286:	b084      	sub	sp, #16
 8001288:	af00      	add	r7, sp, #0
 800128a:	6078      	str	r0, [r7, #4]
 800128c:	0008      	movs	r0, r1
 800128e:	0011      	movs	r1, r2
 8001290:	1cbb      	adds	r3, r7, #2
 8001292:	1c02      	adds	r2, r0, #0
 8001294:	801a      	strh	r2, [r3, #0]
 8001296:	1c7b      	adds	r3, r7, #1
 8001298:	1c0a      	adds	r2, r1, #0
 800129a:	701a      	strb	r2, [r3, #0]
  volatile int32_t ret = (int32_t) LED1202_OK;
 800129c:	2300      	movs	r3, #0
 800129e:	60fb      	str	r3, [r7, #12]
  ret = LED12A1_SetDeviceAddr(pObj ,DevSelect);
 80012a0:	1c7b      	adds	r3, r7, #1
 80012a2:	781a      	ldrb	r2, [r3, #0]
 80012a4:	687b      	ldr	r3, [r7, #4]
 80012a6:	0011      	movs	r1, r2
 80012a8:	0018      	movs	r0, r3
 80012aa:	f7ff ff3d 	bl	8001128 <LED12A1_SetDeviceAddr>
 80012ae:	0003      	movs	r3, r0
 80012b0:	60fb      	str	r3, [r7, #12]
  ret = LED1202_SetChannelState(pObj ,(uint16_t) Channel ,CH_STATE_ENABLE, pObj->IO.Address);
 80012b2:	687b      	ldr	r3, [r7, #4]
 80012b4:	791a      	ldrb	r2, [r3, #4]
 80012b6:	1cbb      	adds	r3, r7, #2
 80012b8:	8819      	ldrh	r1, [r3, #0]
 80012ba:	6878      	ldr	r0, [r7, #4]
 80012bc:	0013      	movs	r3, r2
 80012be:	2200      	movs	r2, #0
 80012c0:	f003 fbe8 	bl	8004a94 <LED1202_SetChannelState>
 80012c4:	0003      	movs	r3, r0
 80012c6:	60fb      	str	r3, [r7, #12]
  
  return(ret);
 80012c8:	68fb      	ldr	r3, [r7, #12]
}
 80012ca:	0018      	movs	r0, r3
 80012cc:	46bd      	mov	sp, r7
 80012ce:	b004      	add	sp, #16
 80012d0:	bd80      	pop	{r7, pc}

080012d2 <LED12A1_ChannelDisable>:
* @param  Channel any combination of LED_CHANNEL_0,LED_CHANNEL_1,LED_CHANNEL_2..LED_CHANNEL_11 can be passed
* @param  DevSelect Selected Device(  LED_DEVICE1 ,LED_DEVICE2,LED_DEVICE3 or LED_DEVICE_ALL)
* @retval 0 in case of success, an error code otherwise
*/
int32_t LED12A1_ChannelDisable( LED1202_Object_TypeDef* pObj , TypeDefChannel Channel,TypedefEnumDevAddr DevSelect)
{
 80012d2:	b580      	push	{r7, lr}
 80012d4:	b084      	sub	sp, #16
 80012d6:	af00      	add	r7, sp, #0
 80012d8:	6078      	str	r0, [r7, #4]
 80012da:	0008      	movs	r0, r1
 80012dc:	0011      	movs	r1, r2
 80012de:	1cbb      	adds	r3, r7, #2
 80012e0:	1c02      	adds	r2, r0, #0
 80012e2:	801a      	strh	r2, [r3, #0]
 80012e4:	1c7b      	adds	r3, r7, #1
 80012e6:	1c0a      	adds	r2, r1, #0
 80012e8:	701a      	strb	r2, [r3, #0]
  volatile int32_t ret =  (int32_t)LED1202_OK;
 80012ea:	2300      	movs	r3, #0
 80012ec:	60fb      	str	r3, [r7, #12]
  ret = LED12A1_SetDeviceAddr(pObj ,DevSelect);
 80012ee:	1c7b      	adds	r3, r7, #1
 80012f0:	781a      	ldrb	r2, [r3, #0]
 80012f2:	687b      	ldr	r3, [r7, #4]
 80012f4:	0011      	movs	r1, r2
 80012f6:	0018      	movs	r0, r3
 80012f8:	f7ff ff16 	bl	8001128 <LED12A1_SetDeviceAddr>
 80012fc:	0003      	movs	r3, r0
 80012fe:	60fb      	str	r3, [r7, #12]
  ret = LED1202_SetChannelState(pObj , (uint16_t) Channel ,CH_STATE_DISABLE, pObj->IO.Address);
 8001300:	687b      	ldr	r3, [r7, #4]
 8001302:	791a      	ldrb	r2, [r3, #4]
 8001304:	1cbb      	adds	r3, r7, #2
 8001306:	8819      	ldrh	r1, [r3, #0]
 8001308:	6878      	ldr	r0, [r7, #4]
 800130a:	0013      	movs	r3, r2
 800130c:	2201      	movs	r2, #1
 800130e:	f003 fbc1 	bl	8004a94 <LED1202_SetChannelState>
 8001312:	0003      	movs	r3, r0
 8001314:	60fb      	str	r3, [r7, #12]
  
  return(ret);
 8001316:	68fb      	ldr	r3, [r7, #12]
}
 8001318:	0018      	movs	r0, r3
 800131a:	46bd      	mov	sp, r7
 800131c:	b004      	add	sp, #16
 800131e:	bd80      	pop	{r7, pc}

08001320 <HAL_Init>:
  *         each 1ms in the SysTick_Handler() interrupt handler.
  *
  * @retval HAL status
  */
HAL_StatusTypeDef HAL_Init(void)
{
 8001320:	b580      	push	{r7, lr}
 8001322:	b082      	sub	sp, #8
 8001324:	af00      	add	r7, sp, #0
  HAL_StatusTypeDef  status = HAL_OK;
 8001326:	1dfb      	adds	r3, r7, #7
 8001328:	2200      	movs	r2, #0
 800132a:	701a      	strb	r2, [r3, #0]
#if (INSTRUCTION_CACHE_ENABLE == 0U)
  __HAL_FLASH_INSTRUCTION_CACHE_DISABLE();
#endif /* INSTRUCTION_CACHE_ENABLE */

#if (PREFETCH_ENABLE != 0U)
  __HAL_FLASH_PREFETCH_BUFFER_ENABLE();
 800132c:	4b0b      	ldr	r3, [pc, #44]	; (800135c <HAL_Init+0x3c>)
 800132e:	681a      	ldr	r2, [r3, #0]
 8001330:	4b0a      	ldr	r3, [pc, #40]	; (800135c <HAL_Init+0x3c>)
 8001332:	2180      	movs	r1, #128	; 0x80
 8001334:	0049      	lsls	r1, r1, #1
 8001336:	430a      	orrs	r2, r1
 8001338:	601a      	str	r2, [r3, #0]
#endif /* PREFETCH_ENABLE */

  /* Use SysTick as time base source and configure 1ms tick (default clock after Reset is HSI) */
  if (HAL_InitTick(TICK_INT_PRIORITY) != HAL_OK)
 800133a:	2003      	movs	r0, #3
 800133c:	f000 f810 	bl	8001360 <HAL_InitTick>
 8001340:	1e03      	subs	r3, r0, #0
 8001342:	d003      	beq.n	800134c <HAL_Init+0x2c>
  {
    status = HAL_ERROR;
 8001344:	1dfb      	adds	r3, r7, #7
 8001346:	2201      	movs	r2, #1
 8001348:	701a      	strb	r2, [r3, #0]
 800134a:	e001      	b.n	8001350 <HAL_Init+0x30>
  }
  else
  {
  /* Init the low level hardware */
  HAL_MspInit();
 800134c:	f7ff fc24 	bl	8000b98 <HAL_MspInit>
  }

  /* Return function status */
  return status;
 8001350:	1dfb      	adds	r3, r7, #7
 8001352:	781b      	ldrb	r3, [r3, #0]
}
 8001354:	0018      	movs	r0, r3
 8001356:	46bd      	mov	sp, r7
 8001358:	b002      	add	sp, #8
 800135a:	bd80      	pop	{r7, pc}
 800135c:	40022000 	.word	0x40022000

08001360 <HAL_InitTick>:
  *       implementation  in user file.
  * @param TickPriority Tick interrupt priority.
  * @retval HAL status
  */
__weak HAL_StatusTypeDef HAL_InitTick(uint32_t TickPriority)
{
 8001360:	b590      	push	{r4, r7, lr}
 8001362:	b085      	sub	sp, #20
 8001364:	af00      	add	r7, sp, #0
 8001366:	6078      	str	r0, [r7, #4]
  HAL_StatusTypeDef  status = HAL_OK;
 8001368:	230f      	movs	r3, #15
 800136a:	18fb      	adds	r3, r7, r3
 800136c:	2200      	movs	r2, #0
 800136e:	701a      	strb	r2, [r3, #0]

  /* Check uwTickFreq for MisraC 2012 (even if uwTickFreq is a enum type that doesn't take the value zero)*/ 
  if ((uint32_t)uwTickFreq != 0U)
 8001370:	4b1d      	ldr	r3, [pc, #116]	; (80013e8 <HAL_InitTick+0x88>)
 8001372:	781b      	ldrb	r3, [r3, #0]
 8001374:	2b00      	cmp	r3, #0
 8001376:	d02b      	beq.n	80013d0 <HAL_InitTick+0x70>
  {
    /*Configure the SysTick to have interrupt in 1ms time basis*/
    if (HAL_SYSTICK_Config(SystemCoreClock / (1000U /(uint32_t)uwTickFreq)) == 0U)
 8001378:	4b1c      	ldr	r3, [pc, #112]	; (80013ec <HAL_InitTick+0x8c>)
 800137a:	681c      	ldr	r4, [r3, #0]
 800137c:	4b1a      	ldr	r3, [pc, #104]	; (80013e8 <HAL_InitTick+0x88>)
 800137e:	781b      	ldrb	r3, [r3, #0]
 8001380:	0019      	movs	r1, r3
 8001382:	23fa      	movs	r3, #250	; 0xfa
 8001384:	0098      	lsls	r0, r3, #2
 8001386:	f7fe febd 	bl	8000104 <__udivsi3>
 800138a:	0003      	movs	r3, r0
 800138c:	0019      	movs	r1, r3
 800138e:	0020      	movs	r0, r4
 8001390:	f7fe feb8 	bl	8000104 <__udivsi3>
 8001394:	0003      	movs	r3, r0
 8001396:	0018      	movs	r0, r3
 8001398:	f000 f913 	bl	80015c2 <HAL_SYSTICK_Config>
 800139c:	1e03      	subs	r3, r0, #0
 800139e:	d112      	bne.n	80013c6 <HAL_InitTick+0x66>
    {
      /* Configure the SysTick IRQ priority */
      if (TickPriority < (1UL << __NVIC_PRIO_BITS))
 80013a0:	687b      	ldr	r3, [r7, #4]
 80013a2:	2b03      	cmp	r3, #3
 80013a4:	d80a      	bhi.n	80013bc <HAL_InitTick+0x5c>
      {
        HAL_NVIC_SetPriority(SysTick_IRQn, TickPriority, 0U);
 80013a6:	6879      	ldr	r1, [r7, #4]
 80013a8:	2301      	movs	r3, #1
 80013aa:	425b      	negs	r3, r3
 80013ac:	2200      	movs	r2, #0
 80013ae:	0018      	movs	r0, r3
 80013b0:	f000 f8f2 	bl	8001598 <HAL_NVIC_SetPriority>
        uwTickPrio = TickPriority;
 80013b4:	4b0e      	ldr	r3, [pc, #56]	; (80013f0 <HAL_InitTick+0x90>)
 80013b6:	687a      	ldr	r2, [r7, #4]
 80013b8:	601a      	str	r2, [r3, #0]
 80013ba:	e00d      	b.n	80013d8 <HAL_InitTick+0x78>
      }
      else
      {
        status = HAL_ERROR;
 80013bc:	230f      	movs	r3, #15
 80013be:	18fb      	adds	r3, r7, r3
 80013c0:	2201      	movs	r2, #1
 80013c2:	701a      	strb	r2, [r3, #0]
 80013c4:	e008      	b.n	80013d8 <HAL_InitTick+0x78>
      }
    }
    else
    {
      status = HAL_ERROR;
 80013c6:	230f      	movs	r3, #15
 80013c8:	18fb      	adds	r3, r7, r3
 80013ca:	2201      	movs	r2, #1
 80013cc:	701a      	strb	r2, [r3, #0]
 80013ce:	e003      	b.n	80013d8 <HAL_InitTick+0x78>
    }
  }
  else
  {
    status = HAL_ERROR;
 80013d0:	230f      	movs	r3, #15
 80013d2:	18fb      	adds	r3, r7, r3
 80013d4:	2201      	movs	r2, #1
 80013d6:	701a      	strb	r2, [r3, #0]
  }

  /* Return function status */
  return status;
 80013d8:	230f      	movs	r3, #15
 80013da:	18fb      	adds	r3, r7, r3
 80013dc:	781b      	ldrb	r3, [r3, #0]
}
 80013de:	0018      	movs	r0, r3
 80013e0:	46bd      	mov	sp, r7
 80013e2:	b005      	add	sp, #20
 80013e4:	bd90      	pop	{r4, r7, pc}
 80013e6:	46c0      	nop			; (mov r8, r8)
 80013e8:	20000008 	.word	0x20000008
 80013ec:	20000000 	.word	0x20000000
 80013f0:	20000004 	.word	0x20000004

080013f4 <HAL_IncTick>:
  * @note This function is declared as __weak to be overwritten in case of other
  *      implementations in user file.
  * @retval None
  */
__weak void HAL_IncTick(void)
{
 80013f4:	b580      	push	{r7, lr}
 80013f6:	af00      	add	r7, sp, #0
  uwTick += (uint32_t)uwTickFreq;
 80013f8:	4b05      	ldr	r3, [pc, #20]	; (8001410 <HAL_IncTick+0x1c>)
 80013fa:	781b      	ldrb	r3, [r3, #0]
 80013fc:	001a      	movs	r2, r3
 80013fe:	4b05      	ldr	r3, [pc, #20]	; (8001414 <HAL_IncTick+0x20>)
 8001400:	681b      	ldr	r3, [r3, #0]
 8001402:	18d2      	adds	r2, r2, r3
 8001404:	4b03      	ldr	r3, [pc, #12]	; (8001414 <HAL_IncTick+0x20>)
 8001406:	601a      	str	r2, [r3, #0]
}
 8001408:	46c0      	nop			; (mov r8, r8)
 800140a:	46bd      	mov	sp, r7
 800140c:	bd80      	pop	{r7, pc}
 800140e:	46c0      	nop			; (mov r8, r8)
 8001410:	20000008 	.word	0x20000008
 8001414:	200001e0 	.word	0x200001e0

08001418 <HAL_GetTick>:
  * @note This function is declared as __weak to be overwritten in case of other
  *       implementations in user file.
  * @retval tick value
  */
__weak uint32_t HAL_GetTick(void)
{
 8001418:	b580      	push	{r7, lr}
 800141a:	af00      	add	r7, sp, #0
  return uwTick;
 800141c:	4b02      	ldr	r3, [pc, #8]	; (8001428 <HAL_GetTick+0x10>)
 800141e:	681b      	ldr	r3, [r3, #0]
}
 8001420:	0018      	movs	r0, r3
 8001422:	46bd      	mov	sp, r7
 8001424:	bd80      	pop	{r7, pc}
 8001426:	46c0      	nop			; (mov r8, r8)
 8001428:	200001e0 	.word	0x200001e0

0800142c <HAL_Delay>:
  *       implementations in user file.
  * @param Delay  specifies the delay time length, in milliseconds.
  * @retval None
  */
__weak void HAL_Delay(uint32_t Delay)
{
 800142c:	b580      	push	{r7, lr}
 800142e:	b084      	sub	sp, #16
 8001430:	af00      	add	r7, sp, #0
 8001432:	6078      	str	r0, [r7, #4]
  uint32_t tickstart = HAL_GetTick();
 8001434:	f7ff fff0 	bl	8001418 <HAL_GetTick>
 8001438:	0003      	movs	r3, r0
 800143a:	60bb      	str	r3, [r7, #8]
  uint32_t wait = Delay;
 800143c:	687b      	ldr	r3, [r7, #4]
 800143e:	60fb      	str	r3, [r7, #12]

  /* Add a freq to guarantee minimum wait */
  if (wait < HAL_MAX_DELAY)
 8001440:	68fb      	ldr	r3, [r7, #12]
 8001442:	3301      	adds	r3, #1
 8001444:	d005      	beq.n	8001452 <HAL_Delay+0x26>
  {
    wait += (uint32_t)(uwTickFreq);
 8001446:	4b0a      	ldr	r3, [pc, #40]	; (8001470 <HAL_Delay+0x44>)
 8001448:	781b      	ldrb	r3, [r3, #0]
 800144a:	001a      	movs	r2, r3
 800144c:	68fb      	ldr	r3, [r7, #12]
 800144e:	189b      	adds	r3, r3, r2
 8001450:	60fb      	str	r3, [r7, #12]
  }

  while ((HAL_GetTick() - tickstart) < wait)
 8001452:	46c0      	nop			; (mov r8, r8)
 8001454:	f7ff ffe0 	bl	8001418 <HAL_GetTick>
 8001458:	0002      	movs	r2, r0
 800145a:	68bb      	ldr	r3, [r7, #8]
 800145c:	1ad3      	subs	r3, r2, r3
 800145e:	68fa      	ldr	r2, [r7, #12]
 8001460:	429a      	cmp	r2, r3
 8001462:	d8f7      	bhi.n	8001454 <HAL_Delay+0x28>
  {
  }
}
 8001464:	46c0      	nop			; (mov r8, r8)
 8001466:	46c0      	nop			; (mov r8, r8)
 8001468:	46bd      	mov	sp, r7
 800146a:	b004      	add	sp, #16
 800146c:	bd80      	pop	{r7, pc}
 800146e:	46c0      	nop			; (mov r8, r8)
 8001470:	20000008 	.word	0x20000008

08001474 <__NVIC_SetPriority>:
  \param [in]      IRQn  Interrupt number.
  \param [in]  priority  Priority to set.
  \note    The priority cannot be set for every processor exception.
 */
__STATIC_INLINE void __NVIC_SetPriority(IRQn_Type IRQn, uint32_t priority)
{
 8001474:	b590      	push	{r4, r7, lr}
 8001476:	b083      	sub	sp, #12
 8001478:	af00      	add	r7, sp, #0
 800147a:	0002      	movs	r2, r0
 800147c:	6039      	str	r1, [r7, #0]
 800147e:	1dfb      	adds	r3, r7, #7
 8001480:	701a      	strb	r2, [r3, #0]
  if ((int32_t)(IRQn) >= 0)
 8001482:	1dfb      	adds	r3, r7, #7
 8001484:	781b      	ldrb	r3, [r3, #0]
 8001486:	2b7f      	cmp	r3, #127	; 0x7f
 8001488:	d828      	bhi.n	80014dc <__NVIC_SetPriority+0x68>
  {
    NVIC->IP[_IP_IDX(IRQn)]  = ((uint32_t)(NVIC->IP[_IP_IDX(IRQn)]  & ~(0xFFUL << _BIT_SHIFT(IRQn))) |
 800148a:	4a2f      	ldr	r2, [pc, #188]	; (8001548 <__NVIC_SetPriority+0xd4>)
 800148c:	1dfb      	adds	r3, r7, #7
 800148e:	781b      	ldrb	r3, [r3, #0]
 8001490:	b25b      	sxtb	r3, r3
 8001492:	089b      	lsrs	r3, r3, #2
 8001494:	33c0      	adds	r3, #192	; 0xc0
 8001496:	009b      	lsls	r3, r3, #2
 8001498:	589b      	ldr	r3, [r3, r2]
 800149a:	1dfa      	adds	r2, r7, #7
 800149c:	7812      	ldrb	r2, [r2, #0]
 800149e:	0011      	movs	r1, r2
 80014a0:	2203      	movs	r2, #3
 80014a2:	400a      	ands	r2, r1
 80014a4:	00d2      	lsls	r2, r2, #3
 80014a6:	21ff      	movs	r1, #255	; 0xff
 80014a8:	4091      	lsls	r1, r2
 80014aa:	000a      	movs	r2, r1
 80014ac:	43d2      	mvns	r2, r2
 80014ae:	401a      	ands	r2, r3
 80014b0:	0011      	movs	r1, r2
       (((priority << (8U - __NVIC_PRIO_BITS)) & (uint32_t)0xFFUL) << _BIT_SHIFT(IRQn)));
 80014b2:	683b      	ldr	r3, [r7, #0]
 80014b4:	019b      	lsls	r3, r3, #6
 80014b6:	22ff      	movs	r2, #255	; 0xff
 80014b8:	401a      	ands	r2, r3
 80014ba:	1dfb      	adds	r3, r7, #7
 80014bc:	781b      	ldrb	r3, [r3, #0]
 80014be:	0018      	movs	r0, r3
 80014c0:	2303      	movs	r3, #3
 80014c2:	4003      	ands	r3, r0
 80014c4:	00db      	lsls	r3, r3, #3
 80014c6:	409a      	lsls	r2, r3
    NVIC->IP[_IP_IDX(IRQn)]  = ((uint32_t)(NVIC->IP[_IP_IDX(IRQn)]  & ~(0xFFUL << _BIT_SHIFT(IRQn))) |
 80014c8:	481f      	ldr	r0, [pc, #124]	; (8001548 <__NVIC_SetPriority+0xd4>)
 80014ca:	1dfb      	adds	r3, r7, #7
 80014cc:	781b      	ldrb	r3, [r3, #0]
 80014ce:	b25b      	sxtb	r3, r3
 80014d0:	089b      	lsrs	r3, r3, #2
 80014d2:	430a      	orrs	r2, r1
 80014d4:	33c0      	adds	r3, #192	; 0xc0
 80014d6:	009b      	lsls	r3, r3, #2
 80014d8:	501a      	str	r2, [r3, r0]
  else
  {
    SCB->SHP[_SHP_IDX(IRQn)] = ((uint32_t)(SCB->SHP[_SHP_IDX(IRQn)] & ~(0xFFUL << _BIT_SHIFT(IRQn))) |
       (((priority << (8U - __NVIC_PRIO_BITS)) & (uint32_t)0xFFUL) << _BIT_SHIFT(IRQn)));
  }
}
 80014da:	e031      	b.n	8001540 <__NVIC_SetPriority+0xcc>
    SCB->SHP[_SHP_IDX(IRQn)] = ((uint32_t)(SCB->SHP[_SHP_IDX(IRQn)] & ~(0xFFUL << _BIT_SHIFT(IRQn))) |
 80014dc:	4a1b      	ldr	r2, [pc, #108]	; (800154c <__NVIC_SetPriority+0xd8>)
 80014de:	1dfb      	adds	r3, r7, #7
 80014e0:	781b      	ldrb	r3, [r3, #0]
 80014e2:	0019      	movs	r1, r3
 80014e4:	230f      	movs	r3, #15
 80014e6:	400b      	ands	r3, r1
 80014e8:	3b08      	subs	r3, #8
 80014ea:	089b      	lsrs	r3, r3, #2
 80014ec:	3306      	adds	r3, #6
 80014ee:	009b      	lsls	r3, r3, #2
 80014f0:	18d3      	adds	r3, r2, r3
 80014f2:	3304      	adds	r3, #4
 80014f4:	681b      	ldr	r3, [r3, #0]
 80014f6:	1dfa      	adds	r2, r7, #7
 80014f8:	7812      	ldrb	r2, [r2, #0]
 80014fa:	0011      	movs	r1, r2
 80014fc:	2203      	movs	r2, #3
 80014fe:	400a      	ands	r2, r1
 8001500:	00d2      	lsls	r2, r2, #3
 8001502:	21ff      	movs	r1, #255	; 0xff
 8001504:	4091      	lsls	r1, r2
 8001506:	000a      	movs	r2, r1
 8001508:	43d2      	mvns	r2, r2
 800150a:	401a      	ands	r2, r3
 800150c:	0011      	movs	r1, r2
       (((priority << (8U - __NVIC_PRIO_BITS)) & (uint32_t)0xFFUL) << _BIT_SHIFT(IRQn)));
 800150e:	683b      	ldr	r3, [r7, #0]
 8001510:	019b      	lsls	r3, r3, #6
 8001512:	22ff      	movs	r2, #255	; 0xff
 8001514:	401a      	ands	r2, r3
 8001516:	1dfb      	adds	r3, r7, #7
 8001518:	781b      	ldrb	r3, [r3, #0]
 800151a:	0018      	movs	r0, r3
 800151c:	2303      	movs	r3, #3
 800151e:	4003      	ands	r3, r0
 8001520:	00db      	lsls	r3, r3, #3
 8001522:	409a      	lsls	r2, r3
    SCB->SHP[_SHP_IDX(IRQn)] = ((uint32_t)(SCB->SHP[_SHP_IDX(IRQn)] & ~(0xFFUL << _BIT_SHIFT(IRQn))) |
 8001524:	4809      	ldr	r0, [pc, #36]	; (800154c <__NVIC_SetPriority+0xd8>)
 8001526:	1dfb      	adds	r3, r7, #7
 8001528:	781b      	ldrb	r3, [r3, #0]
 800152a:	001c      	movs	r4, r3
 800152c:	230f      	movs	r3, #15
 800152e:	4023      	ands	r3, r4
 8001530:	3b08      	subs	r3, #8
 8001532:	089b      	lsrs	r3, r3, #2
 8001534:	430a      	orrs	r2, r1
 8001536:	3306      	adds	r3, #6
 8001538:	009b      	lsls	r3, r3, #2
 800153a:	18c3      	adds	r3, r0, r3
 800153c:	3304      	adds	r3, #4
 800153e:	601a      	str	r2, [r3, #0]
}
 8001540:	46c0      	nop			; (mov r8, r8)
 8001542:	46bd      	mov	sp, r7
 8001544:	b003      	add	sp, #12
 8001546:	bd90      	pop	{r4, r7, pc}
 8001548:	e000e100 	.word	0xe000e100
 800154c:	e000ed00 	.word	0xe000ed00

08001550 <SysTick_Config>:
  \note    When the variable <b>__Vendor_SysTickConfig</b> is set to 1, then the
           function <b>SysTick_Config</b> is not included. In this case, the file <b><i>device</i>.h</b>
           must contain a vendor-specific implementation of this function.
 */
__STATIC_INLINE uint32_t SysTick_Config(uint32_t ticks)
{
 8001550:	b580      	push	{r7, lr}
 8001552:	b082      	sub	sp, #8
 8001554:	af00      	add	r7, sp, #0
 8001556:	6078      	str	r0, [r7, #4]
  if ((ticks - 1UL) > SysTick_LOAD_RELOAD_Msk)
 8001558:	687b      	ldr	r3, [r7, #4]
 800155a:	1e5a      	subs	r2, r3, #1
 800155c:	2380      	movs	r3, #128	; 0x80
 800155e:	045b      	lsls	r3, r3, #17
 8001560:	429a      	cmp	r2, r3
 8001562:	d301      	bcc.n	8001568 <SysTick_Config+0x18>
  {
    return (1UL);                                                   /* Reload value impossible */
 8001564:	2301      	movs	r3, #1
 8001566:	e010      	b.n	800158a <SysTick_Config+0x3a>
  }

  SysTick->LOAD  = (uint32_t)(ticks - 1UL);                         /* set reload register */
 8001568:	4b0a      	ldr	r3, [pc, #40]	; (8001594 <SysTick_Config+0x44>)
 800156a:	687a      	ldr	r2, [r7, #4]
 800156c:	3a01      	subs	r2, #1
 800156e:	605a      	str	r2, [r3, #4]
  NVIC_SetPriority (SysTick_IRQn, (1UL << __NVIC_PRIO_BITS) - 1UL); /* set Priority for Systick Interrupt */
 8001570:	2301      	movs	r3, #1
 8001572:	425b      	negs	r3, r3
 8001574:	2103      	movs	r1, #3
 8001576:	0018      	movs	r0, r3
 8001578:	f7ff ff7c 	bl	8001474 <__NVIC_SetPriority>
  SysTick->VAL   = 0UL;                                             /* Load the SysTick Counter Value */
 800157c:	4b05      	ldr	r3, [pc, #20]	; (8001594 <SysTick_Config+0x44>)
 800157e:	2200      	movs	r2, #0
 8001580:	609a      	str	r2, [r3, #8]
  SysTick->CTRL  = SysTick_CTRL_CLKSOURCE_Msk |
 8001582:	4b04      	ldr	r3, [pc, #16]	; (8001594 <SysTick_Config+0x44>)
 8001584:	2207      	movs	r2, #7
 8001586:	601a      	str	r2, [r3, #0]
                   SysTick_CTRL_TICKINT_Msk   |
                   SysTick_CTRL_ENABLE_Msk;                         /* Enable SysTick IRQ and SysTick Timer */
  return (0UL);                                                     /* Function successful */
 8001588:	2300      	movs	r3, #0
}
 800158a:	0018      	movs	r0, r3
 800158c:	46bd      	mov	sp, r7
 800158e:	b002      	add	sp, #8
 8001590:	bd80      	pop	{r7, pc}
 8001592:	46c0      	nop			; (mov r8, r8)
 8001594:	e000e010 	.word	0xe000e010

08001598 <HAL_NVIC_SetPriority>:
  *         with stm32g0xx devices, this parameter is a dummy value and it is ignored, because
  *         no subpriority supported in Cortex M0+ based products.
  * @retval None
  */
void HAL_NVIC_SetPriority(IRQn_Type IRQn, uint32_t PreemptPriority, uint32_t SubPriority)
{
 8001598:	b580      	push	{r7, lr}
 800159a:	b084      	sub	sp, #16
 800159c:	af00      	add	r7, sp, #0
 800159e:	60b9      	str	r1, [r7, #8]
 80015a0:	607a      	str	r2, [r7, #4]
 80015a2:	210f      	movs	r1, #15
 80015a4:	187b      	adds	r3, r7, r1
 80015a6:	1c02      	adds	r2, r0, #0
 80015a8:	701a      	strb	r2, [r3, #0]
  /* Prevent unused argument(s) compilation warning */
  UNUSED(SubPriority);

  /* Check the parameters */
  assert_param(IS_NVIC_PREEMPTION_PRIORITY(PreemptPriority));
  NVIC_SetPriority(IRQn, PreemptPriority);
 80015aa:	68ba      	ldr	r2, [r7, #8]
 80015ac:	187b      	adds	r3, r7, r1
 80015ae:	781b      	ldrb	r3, [r3, #0]
 80015b0:	b25b      	sxtb	r3, r3
 80015b2:	0011      	movs	r1, r2
 80015b4:	0018      	movs	r0, r3
 80015b6:	f7ff ff5d 	bl	8001474 <__NVIC_SetPriority>
}
 80015ba:	46c0      	nop			; (mov r8, r8)
 80015bc:	46bd      	mov	sp, r7
 80015be:	b004      	add	sp, #16
 80015c0:	bd80      	pop	{r7, pc}

080015c2 <HAL_SYSTICK_Config>:
  * @param  TicksNumb Specifies the ticks Number of ticks between two interrupts.
  * @retval status:  - 0  Function succeeded.
  *                  - 1  Function failed.
  */
uint32_t HAL_SYSTICK_Config(uint32_t TicksNumb)
{
 80015c2:	b580      	push	{r7, lr}
 80015c4:	b082      	sub	sp, #8
 80015c6:	af00      	add	r7, sp, #0
 80015c8:	6078      	str	r0, [r7, #4]
  return SysTick_Config(TicksNumb);
 80015ca:	687b      	ldr	r3, [r7, #4]
 80015cc:	0018      	movs	r0, r3
 80015ce:	f7ff ffbf 	bl	8001550 <SysTick_Config>
 80015d2:	0003      	movs	r3, r0
}
 80015d4:	0018      	movs	r0, r3
 80015d6:	46bd      	mov	sp, r7
 80015d8:	b002      	add	sp, #8
 80015da:	bd80      	pop	{r7, pc}

080015dc <HAL_GPIO_Init>:
  * @param  GPIO_Init pointer to a GPIO_InitTypeDef structure that contains
  *         the configuration information for the specified GPIO peripheral.
  * @retval None
  */
void HAL_GPIO_Init(GPIO_TypeDef  *GPIOx, GPIO_InitTypeDef *GPIO_Init)
{
 80015dc:	b580      	push	{r7, lr}
 80015de:	b086      	sub	sp, #24
 80015e0:	af00      	add	r7, sp, #0
 80015e2:	6078      	str	r0, [r7, #4]
 80015e4:	6039      	str	r1, [r7, #0]
  uint32_t position = 0x00u;
 80015e6:	2300      	movs	r3, #0
 80015e8:	617b      	str	r3, [r7, #20]
  assert_param(IS_GPIO_ALL_INSTANCE(GPIOx));
  assert_param(IS_GPIO_PIN(GPIO_Init->Pin));
  assert_param(IS_GPIO_MODE(GPIO_Init->Mode));

  /* Configure the port pins */
  while (((GPIO_Init->Pin) >> position) != 0x00u)
 80015ea:	e14d      	b.n	8001888 <HAL_GPIO_Init+0x2ac>
  {
    /* Get current io position */
    iocurrent = (GPIO_Init->Pin) & (1uL << position);
 80015ec:	683b      	ldr	r3, [r7, #0]
 80015ee:	681b      	ldr	r3, [r3, #0]
 80015f0:	2101      	movs	r1, #1
 80015f2:	697a      	ldr	r2, [r7, #20]
 80015f4:	4091      	lsls	r1, r2
 80015f6:	000a      	movs	r2, r1
 80015f8:	4013      	ands	r3, r2
 80015fa:	60fb      	str	r3, [r7, #12]

    if (iocurrent != 0x00u)
 80015fc:	68fb      	ldr	r3, [r7, #12]
 80015fe:	2b00      	cmp	r3, #0
 8001600:	d100      	bne.n	8001604 <HAL_GPIO_Init+0x28>
 8001602:	e13e      	b.n	8001882 <HAL_GPIO_Init+0x2a6>
    {
      /*--------------------- GPIO Mode Configuration ------------------------*/
      /* In case of Output or Alternate function mode selection */
      if (((GPIO_Init->Mode & GPIO_MODE) == MODE_OUTPUT) || ((GPIO_Init->Mode & GPIO_MODE) == MODE_AF))
 8001604:	683b      	ldr	r3, [r7, #0]
 8001606:	685b      	ldr	r3, [r3, #4]
 8001608:	2203      	movs	r2, #3
 800160a:	4013      	ands	r3, r2
 800160c:	2b01      	cmp	r3, #1
 800160e:	d005      	beq.n	800161c <HAL_GPIO_Init+0x40>
 8001610:	683b      	ldr	r3, [r7, #0]
 8001612:	685b      	ldr	r3, [r3, #4]
 8001614:	2203      	movs	r2, #3
 8001616:	4013      	ands	r3, r2
 8001618:	2b02      	cmp	r3, #2
 800161a:	d130      	bne.n	800167e <HAL_GPIO_Init+0xa2>
      {
        /* Check the Speed parameter */
        assert_param(IS_GPIO_SPEED(GPIO_Init->Speed));

        /* Configure the IO Speed */
        temp = GPIOx->OSPEEDR;
 800161c:	687b      	ldr	r3, [r7, #4]
 800161e:	689b      	ldr	r3, [r3, #8]
 8001620:	613b      	str	r3, [r7, #16]
        temp &= ~(GPIO_OSPEEDR_OSPEED0 << (position * 2u));
 8001622:	697b      	ldr	r3, [r7, #20]
 8001624:	005b      	lsls	r3, r3, #1
 8001626:	2203      	movs	r2, #3
 8001628:	409a      	lsls	r2, r3
 800162a:	0013      	movs	r3, r2
 800162c:	43da      	mvns	r2, r3
 800162e:	693b      	ldr	r3, [r7, #16]
 8001630:	4013      	ands	r3, r2
 8001632:	613b      	str	r3, [r7, #16]
        temp |= (GPIO_Init->Speed << (position * 2u));
 8001634:	683b      	ldr	r3, [r7, #0]
 8001636:	68da      	ldr	r2, [r3, #12]
 8001638:	697b      	ldr	r3, [r7, #20]
 800163a:	005b      	lsls	r3, r3, #1
 800163c:	409a      	lsls	r2, r3
 800163e:	0013      	movs	r3, r2
 8001640:	693a      	ldr	r2, [r7, #16]
 8001642:	4313      	orrs	r3, r2
 8001644:	613b      	str	r3, [r7, #16]
        GPIOx->OSPEEDR = temp;
 8001646:	687b      	ldr	r3, [r7, #4]
 8001648:	693a      	ldr	r2, [r7, #16]
 800164a:	609a      	str	r2, [r3, #8]

        /* Configure the IO Output Type */
        temp = GPIOx->OTYPER;
 800164c:	687b      	ldr	r3, [r7, #4]
 800164e:	685b      	ldr	r3, [r3, #4]
 8001650:	613b      	str	r3, [r7, #16]
        temp &= ~(GPIO_OTYPER_OT0 << position) ;
 8001652:	2201      	movs	r2, #1
 8001654:	697b      	ldr	r3, [r7, #20]
 8001656:	409a      	lsls	r2, r3
 8001658:	0013      	movs	r3, r2
 800165a:	43da      	mvns	r2, r3
 800165c:	693b      	ldr	r3, [r7, #16]
 800165e:	4013      	ands	r3, r2
 8001660:	613b      	str	r3, [r7, #16]
        temp |= (((GPIO_Init->Mode & OUTPUT_TYPE) >> OUTPUT_TYPE_Pos) << position);
 8001662:	683b      	ldr	r3, [r7, #0]
 8001664:	685b      	ldr	r3, [r3, #4]
 8001666:	091b      	lsrs	r3, r3, #4
 8001668:	2201      	movs	r2, #1
 800166a:	401a      	ands	r2, r3
 800166c:	697b      	ldr	r3, [r7, #20]
 800166e:	409a      	lsls	r2, r3
 8001670:	0013      	movs	r3, r2
 8001672:	693a      	ldr	r2, [r7, #16]
 8001674:	4313      	orrs	r3, r2
 8001676:	613b      	str	r3, [r7, #16]
        GPIOx->OTYPER = temp;
 8001678:	687b      	ldr	r3, [r7, #4]
 800167a:	693a      	ldr	r2, [r7, #16]
 800167c:	605a      	str	r2, [r3, #4]
      }

      if ((GPIO_Init->Mode & GPIO_MODE) != MODE_ANALOG)
 800167e:	683b      	ldr	r3, [r7, #0]
 8001680:	685b      	ldr	r3, [r3, #4]
 8001682:	2203      	movs	r2, #3
 8001684:	4013      	ands	r3, r2
 8001686:	2b03      	cmp	r3, #3
 8001688:	d017      	beq.n	80016ba <HAL_GPIO_Init+0xde>
      {
        /* Check the Pull parameter */
        assert_param(IS_GPIO_PULL(GPIO_Init->Pull));

        /* Activate the Pull-up or Pull down resistor for the current IO */
        temp = GPIOx->PUPDR;
 800168a:	687b      	ldr	r3, [r7, #4]
 800168c:	68db      	ldr	r3, [r3, #12]
 800168e:	613b      	str	r3, [r7, #16]
        temp &= ~(GPIO_PUPDR_PUPD0 << (position * 2u));
 8001690:	697b      	ldr	r3, [r7, #20]
 8001692:	005b      	lsls	r3, r3, #1
 8001694:	2203      	movs	r2, #3
 8001696:	409a      	lsls	r2, r3
 8001698:	0013      	movs	r3, r2
 800169a:	43da      	mvns	r2, r3
 800169c:	693b      	ldr	r3, [r7, #16]
 800169e:	4013      	ands	r3, r2
 80016a0:	613b      	str	r3, [r7, #16]
        temp |= ((GPIO_Init->Pull) << (position * 2u));
 80016a2:	683b      	ldr	r3, [r7, #0]
 80016a4:	689a      	ldr	r2, [r3, #8]
 80016a6:	697b      	ldr	r3, [r7, #20]
 80016a8:	005b      	lsls	r3, r3, #1
 80016aa:	409a      	lsls	r2, r3
 80016ac:	0013      	movs	r3, r2
 80016ae:	693a      	ldr	r2, [r7, #16]
 80016b0:	4313      	orrs	r3, r2
 80016b2:	613b      	str	r3, [r7, #16]
        GPIOx->PUPDR = temp;
 80016b4:	687b      	ldr	r3, [r7, #4]
 80016b6:	693a      	ldr	r2, [r7, #16]
 80016b8:	60da      	str	r2, [r3, #12]
      }

      /* In case of Alternate function mode selection */
      if ((GPIO_Init->Mode & GPIO_MODE) == MODE_AF)
 80016ba:	683b      	ldr	r3, [r7, #0]
 80016bc:	685b      	ldr	r3, [r3, #4]
 80016be:	2203      	movs	r2, #3
 80016c0:	4013      	ands	r3, r2
 80016c2:	2b02      	cmp	r3, #2
 80016c4:	d123      	bne.n	800170e <HAL_GPIO_Init+0x132>
        /* Check the Alternate function parameters */
        assert_param(IS_GPIO_AF_INSTANCE(GPIOx));
        assert_param(IS_GPIO_AF(GPIO_Init->Alternate));

        /* Configure Alternate function mapped with the current IO */
        temp = GPIOx->AFR[position >> 3u];
 80016c6:	697b      	ldr	r3, [r7, #20]
 80016c8:	08da      	lsrs	r2, r3, #3
 80016ca:	687b      	ldr	r3, [r7, #4]
 80016cc:	3208      	adds	r2, #8
 80016ce:	0092      	lsls	r2, r2, #2
 80016d0:	58d3      	ldr	r3, [r2, r3]
 80016d2:	613b      	str	r3, [r7, #16]
        temp &= ~(0xFu << ((position & 0x07u) * 4u));
 80016d4:	697b      	ldr	r3, [r7, #20]
 80016d6:	2207      	movs	r2, #7
 80016d8:	4013      	ands	r3, r2
 80016da:	009b      	lsls	r3, r3, #2
 80016dc:	220f      	movs	r2, #15
 80016de:	409a      	lsls	r2, r3
 80016e0:	0013      	movs	r3, r2
 80016e2:	43da      	mvns	r2, r3
 80016e4:	693b      	ldr	r3, [r7, #16]
 80016e6:	4013      	ands	r3, r2
 80016e8:	613b      	str	r3, [r7, #16]
        temp |= ((GPIO_Init->Alternate) << ((position & 0x07u) * 4u));
 80016ea:	683b      	ldr	r3, [r7, #0]
 80016ec:	691a      	ldr	r2, [r3, #16]
 80016ee:	697b      	ldr	r3, [r7, #20]
 80016f0:	2107      	movs	r1, #7
 80016f2:	400b      	ands	r3, r1
 80016f4:	009b      	lsls	r3, r3, #2
 80016f6:	409a      	lsls	r2, r3
 80016f8:	0013      	movs	r3, r2
 80016fa:	693a      	ldr	r2, [r7, #16]
 80016fc:	4313      	orrs	r3, r2
 80016fe:	613b      	str	r3, [r7, #16]
        GPIOx->AFR[position >> 3u] = temp;
 8001700:	697b      	ldr	r3, [r7, #20]
 8001702:	08da      	lsrs	r2, r3, #3
 8001704:	687b      	ldr	r3, [r7, #4]
 8001706:	3208      	adds	r2, #8
 8001708:	0092      	lsls	r2, r2, #2
 800170a:	6939      	ldr	r1, [r7, #16]
 800170c:	50d1      	str	r1, [r2, r3]
      }

      /* Configure IO Direction mode (Input, Output, Alternate or Analog) */
      temp = GPIOx->MODER;
 800170e:	687b      	ldr	r3, [r7, #4]
 8001710:	681b      	ldr	r3, [r3, #0]
 8001712:	613b      	str	r3, [r7, #16]
      temp &= ~(GPIO_MODER_MODE0 << (position * 2u));
 8001714:	697b      	ldr	r3, [r7, #20]
 8001716:	005b      	lsls	r3, r3, #1
 8001718:	2203      	movs	r2, #3
 800171a:	409a      	lsls	r2, r3
 800171c:	0013      	movs	r3, r2
 800171e:	43da      	mvns	r2, r3
 8001720:	693b      	ldr	r3, [r7, #16]
 8001722:	4013      	ands	r3, r2
 8001724:	613b      	str	r3, [r7, #16]
      temp |= ((GPIO_Init->Mode & GPIO_MODE) << (position * 2u));
 8001726:	683b      	ldr	r3, [r7, #0]
 8001728:	685b      	ldr	r3, [r3, #4]
 800172a:	2203      	movs	r2, #3
 800172c:	401a      	ands	r2, r3
 800172e:	697b      	ldr	r3, [r7, #20]
 8001730:	005b      	lsls	r3, r3, #1
 8001732:	409a      	lsls	r2, r3
 8001734:	0013      	movs	r3, r2
 8001736:	693a      	ldr	r2, [r7, #16]
 8001738:	4313      	orrs	r3, r2
 800173a:	613b      	str	r3, [r7, #16]
      GPIOx->MODER = temp;
 800173c:	687b      	ldr	r3, [r7, #4]
 800173e:	693a      	ldr	r2, [r7, #16]
 8001740:	601a      	str	r2, [r3, #0]

      /*--------------------- EXTI Mode Configuration ------------------------*/
      /* Configure the External Interrupt or event for the current IO */
      if ((GPIO_Init->Mode & EXTI_MODE) != 0x00u)
 8001742:	683b      	ldr	r3, [r7, #0]
 8001744:	685a      	ldr	r2, [r3, #4]
 8001746:	23c0      	movs	r3, #192	; 0xc0
 8001748:	029b      	lsls	r3, r3, #10
 800174a:	4013      	ands	r3, r2
 800174c:	d100      	bne.n	8001750 <HAL_GPIO_Init+0x174>
 800174e:	e098      	b.n	8001882 <HAL_GPIO_Init+0x2a6>
      {
        temp = EXTI->EXTICR[position >> 2u];
 8001750:	4a53      	ldr	r2, [pc, #332]	; (80018a0 <HAL_GPIO_Init+0x2c4>)
 8001752:	697b      	ldr	r3, [r7, #20]
 8001754:	089b      	lsrs	r3, r3, #2
 8001756:	3318      	adds	r3, #24
 8001758:	009b      	lsls	r3, r3, #2
 800175a:	589b      	ldr	r3, [r3, r2]
 800175c:	613b      	str	r3, [r7, #16]
        temp &= ~(0x0FuL << (8u * (position & 0x03u)));
 800175e:	697b      	ldr	r3, [r7, #20]
 8001760:	2203      	movs	r2, #3
 8001762:	4013      	ands	r3, r2
 8001764:	00db      	lsls	r3, r3, #3
 8001766:	220f      	movs	r2, #15
 8001768:	409a      	lsls	r2, r3
 800176a:	0013      	movs	r3, r2
 800176c:	43da      	mvns	r2, r3
 800176e:	693b      	ldr	r3, [r7, #16]
 8001770:	4013      	ands	r3, r2
 8001772:	613b      	str	r3, [r7, #16]
        temp |= (GPIO_GET_INDEX(GPIOx) << (8u * (position & 0x03u)));
 8001774:	687a      	ldr	r2, [r7, #4]
 8001776:	23a0      	movs	r3, #160	; 0xa0
 8001778:	05db      	lsls	r3, r3, #23
 800177a:	429a      	cmp	r2, r3
 800177c:	d019      	beq.n	80017b2 <HAL_GPIO_Init+0x1d6>
 800177e:	687b      	ldr	r3, [r7, #4]
 8001780:	4a48      	ldr	r2, [pc, #288]	; (80018a4 <HAL_GPIO_Init+0x2c8>)
 8001782:	4293      	cmp	r3, r2
 8001784:	d013      	beq.n	80017ae <HAL_GPIO_Init+0x1d2>
 8001786:	687b      	ldr	r3, [r7, #4]
 8001788:	4a47      	ldr	r2, [pc, #284]	; (80018a8 <HAL_GPIO_Init+0x2cc>)
 800178a:	4293      	cmp	r3, r2
 800178c:	d00d      	beq.n	80017aa <HAL_GPIO_Init+0x1ce>
 800178e:	687b      	ldr	r3, [r7, #4]
 8001790:	4a46      	ldr	r2, [pc, #280]	; (80018ac <HAL_GPIO_Init+0x2d0>)
 8001792:	4293      	cmp	r3, r2
 8001794:	d007      	beq.n	80017a6 <HAL_GPIO_Init+0x1ca>
 8001796:	687b      	ldr	r3, [r7, #4]
 8001798:	4a45      	ldr	r2, [pc, #276]	; (80018b0 <HAL_GPIO_Init+0x2d4>)
 800179a:	4293      	cmp	r3, r2
 800179c:	d101      	bne.n	80017a2 <HAL_GPIO_Init+0x1c6>
 800179e:	2304      	movs	r3, #4
 80017a0:	e008      	b.n	80017b4 <HAL_GPIO_Init+0x1d8>
 80017a2:	2305      	movs	r3, #5
 80017a4:	e006      	b.n	80017b4 <HAL_GPIO_Init+0x1d8>
 80017a6:	2303      	movs	r3, #3
 80017a8:	e004      	b.n	80017b4 <HAL_GPIO_Init+0x1d8>
 80017aa:	2302      	movs	r3, #2
 80017ac:	e002      	b.n	80017b4 <HAL_GPIO_Init+0x1d8>
 80017ae:	2301      	movs	r3, #1
 80017b0:	e000      	b.n	80017b4 <HAL_GPIO_Init+0x1d8>
 80017b2:	2300      	movs	r3, #0
 80017b4:	697a      	ldr	r2, [r7, #20]
 80017b6:	2103      	movs	r1, #3
 80017b8:	400a      	ands	r2, r1
 80017ba:	00d2      	lsls	r2, r2, #3
 80017bc:	4093      	lsls	r3, r2
 80017be:	693a      	ldr	r2, [r7, #16]
 80017c0:	4313      	orrs	r3, r2
 80017c2:	613b      	str	r3, [r7, #16]
        EXTI->EXTICR[position >> 2u] = temp;
 80017c4:	4936      	ldr	r1, [pc, #216]	; (80018a0 <HAL_GPIO_Init+0x2c4>)
 80017c6:	697b      	ldr	r3, [r7, #20]
 80017c8:	089b      	lsrs	r3, r3, #2
 80017ca:	3318      	adds	r3, #24
 80017cc:	009b      	lsls	r3, r3, #2
 80017ce:	693a      	ldr	r2, [r7, #16]
 80017d0:	505a      	str	r2, [r3, r1]

        /* Clear Rising Falling edge configuration */
        temp = EXTI->RTSR1;
 80017d2:	4b33      	ldr	r3, [pc, #204]	; (80018a0 <HAL_GPIO_Init+0x2c4>)
 80017d4:	681b      	ldr	r3, [r3, #0]
 80017d6:	613b      	str	r3, [r7, #16]
        temp &= ~(iocurrent);
 80017d8:	68fb      	ldr	r3, [r7, #12]
 80017da:	43da      	mvns	r2, r3
 80017dc:	693b      	ldr	r3, [r7, #16]
 80017de:	4013      	ands	r3, r2
 80017e0:	613b      	str	r3, [r7, #16]
        if ((GPIO_Init->Mode & TRIGGER_RISING) != 0x00u)
 80017e2:	683b      	ldr	r3, [r7, #0]
 80017e4:	685a      	ldr	r2, [r3, #4]
 80017e6:	2380      	movs	r3, #128	; 0x80
 80017e8:	035b      	lsls	r3, r3, #13
 80017ea:	4013      	ands	r3, r2
 80017ec:	d003      	beq.n	80017f6 <HAL_GPIO_Init+0x21a>
        {
          temp |= iocurrent;
 80017ee:	693a      	ldr	r2, [r7, #16]
 80017f0:	68fb      	ldr	r3, [r7, #12]
 80017f2:	4313      	orrs	r3, r2
 80017f4:	613b      	str	r3, [r7, #16]
        }
        EXTI->RTSR1 = temp;
 80017f6:	4b2a      	ldr	r3, [pc, #168]	; (80018a0 <HAL_GPIO_Init+0x2c4>)
 80017f8:	693a      	ldr	r2, [r7, #16]
 80017fa:	601a      	str	r2, [r3, #0]

        temp = EXTI->FTSR1;
 80017fc:	4b28      	ldr	r3, [pc, #160]	; (80018a0 <HAL_GPIO_Init+0x2c4>)
 80017fe:	685b      	ldr	r3, [r3, #4]
 8001800:	613b      	str	r3, [r7, #16]
        temp &= ~(iocurrent);
 8001802:	68fb      	ldr	r3, [r7, #12]
 8001804:	43da      	mvns	r2, r3
 8001806:	693b      	ldr	r3, [r7, #16]
 8001808:	4013      	ands	r3, r2
 800180a:	613b      	str	r3, [r7, #16]
        if ((GPIO_Init->Mode & TRIGGER_FALLING) != 0x00u)
 800180c:	683b      	ldr	r3, [r7, #0]
 800180e:	685a      	ldr	r2, [r3, #4]
 8001810:	2380      	movs	r3, #128	; 0x80
 8001812:	039b      	lsls	r3, r3, #14
 8001814:	4013      	ands	r3, r2
 8001816:	d003      	beq.n	8001820 <HAL_GPIO_Init+0x244>
        {
          temp |= iocurrent;
 8001818:	693a      	ldr	r2, [r7, #16]
 800181a:	68fb      	ldr	r3, [r7, #12]
 800181c:	4313      	orrs	r3, r2
 800181e:	613b      	str	r3, [r7, #16]
        }
        EXTI->FTSR1 = temp;
 8001820:	4b1f      	ldr	r3, [pc, #124]	; (80018a0 <HAL_GPIO_Init+0x2c4>)
 8001822:	693a      	ldr	r2, [r7, #16]
 8001824:	605a      	str	r2, [r3, #4]

        /* Clear EXTI line configuration */
        temp = EXTI->EMR1;
 8001826:	4a1e      	ldr	r2, [pc, #120]	; (80018a0 <HAL_GPIO_Init+0x2c4>)
 8001828:	2384      	movs	r3, #132	; 0x84
 800182a:	58d3      	ldr	r3, [r2, r3]
 800182c:	613b      	str	r3, [r7, #16]
        temp &= ~(iocurrent);
 800182e:	68fb      	ldr	r3, [r7, #12]
 8001830:	43da      	mvns	r2, r3
 8001832:	693b      	ldr	r3, [r7, #16]
 8001834:	4013      	ands	r3, r2
 8001836:	613b      	str	r3, [r7, #16]
        if ((GPIO_Init->Mode & EXTI_EVT) != 0x00u)
 8001838:	683b      	ldr	r3, [r7, #0]
 800183a:	685a      	ldr	r2, [r3, #4]
 800183c:	2380      	movs	r3, #128	; 0x80
 800183e:	029b      	lsls	r3, r3, #10
 8001840:	4013      	ands	r3, r2
 8001842:	d003      	beq.n	800184c <HAL_GPIO_Init+0x270>
        {
          temp |= iocurrent;
 8001844:	693a      	ldr	r2, [r7, #16]
 8001846:	68fb      	ldr	r3, [r7, #12]
 8001848:	4313      	orrs	r3, r2
 800184a:	613b      	str	r3, [r7, #16]
        }
        EXTI->EMR1 = temp;
 800184c:	4914      	ldr	r1, [pc, #80]	; (80018a0 <HAL_GPIO_Init+0x2c4>)
 800184e:	2284      	movs	r2, #132	; 0x84
 8001850:	693b      	ldr	r3, [r7, #16]
 8001852:	508b      	str	r3, [r1, r2]

        temp = EXTI->IMR1;
 8001854:	4a12      	ldr	r2, [pc, #72]	; (80018a0 <HAL_GPIO_Init+0x2c4>)
 8001856:	2380      	movs	r3, #128	; 0x80
 8001858:	58d3      	ldr	r3, [r2, r3]
 800185a:	613b      	str	r3, [r7, #16]
        temp &= ~(iocurrent);
 800185c:	68fb      	ldr	r3, [r7, #12]
 800185e:	43da      	mvns	r2, r3
 8001860:	693b      	ldr	r3, [r7, #16]
 8001862:	4013      	ands	r3, r2
 8001864:	613b      	str	r3, [r7, #16]
        if ((GPIO_Init->Mode & EXTI_IT) != 0x00u)
 8001866:	683b      	ldr	r3, [r7, #0]
 8001868:	685a      	ldr	r2, [r3, #4]
 800186a:	2380      	movs	r3, #128	; 0x80
 800186c:	025b      	lsls	r3, r3, #9
 800186e:	4013      	ands	r3, r2
 8001870:	d003      	beq.n	800187a <HAL_GPIO_Init+0x29e>
        {
          temp |= iocurrent;
 8001872:	693a      	ldr	r2, [r7, #16]
 8001874:	68fb      	ldr	r3, [r7, #12]
 8001876:	4313      	orrs	r3, r2
 8001878:	613b      	str	r3, [r7, #16]
        }
        EXTI->IMR1 = temp;
 800187a:	4909      	ldr	r1, [pc, #36]	; (80018a0 <HAL_GPIO_Init+0x2c4>)
 800187c:	2280      	movs	r2, #128	; 0x80
 800187e:	693b      	ldr	r3, [r7, #16]
 8001880:	508b      	str	r3, [r1, r2]
      }
    }

    position++;
 8001882:	697b      	ldr	r3, [r7, #20]
 8001884:	3301      	adds	r3, #1
 8001886:	617b      	str	r3, [r7, #20]
  while (((GPIO_Init->Pin) >> position) != 0x00u)
 8001888:	683b      	ldr	r3, [r7, #0]
 800188a:	681a      	ldr	r2, [r3, #0]
 800188c:	697b      	ldr	r3, [r7, #20]
 800188e:	40da      	lsrs	r2, r3
 8001890:	1e13      	subs	r3, r2, #0
 8001892:	d000      	beq.n	8001896 <HAL_GPIO_Init+0x2ba>
 8001894:	e6aa      	b.n	80015ec <HAL_GPIO_Init+0x10>
  }
}
 8001896:	46c0      	nop			; (mov r8, r8)
 8001898:	46c0      	nop			; (mov r8, r8)
 800189a:	46bd      	mov	sp, r7
 800189c:	b006      	add	sp, #24
 800189e:	bd80      	pop	{r7, pc}
 80018a0:	40021800 	.word	0x40021800
 80018a4:	50000400 	.word	0x50000400
 80018a8:	50000800 	.word	0x50000800
 80018ac:	50000c00 	.word	0x50000c00
 80018b0:	50001000 	.word	0x50001000

080018b4 <HAL_GPIO_DeInit>:
  * @param  GPIO_Pin specifies the port bit to be written.
  *         This parameter can be any combination of GPIO_Pin_x where x can be (0..15).
  * @retval None
  */
void HAL_GPIO_DeInit(GPIO_TypeDef  *GPIOx, uint32_t GPIO_Pin)
{
 80018b4:	b580      	push	{r7, lr}
 80018b6:	b086      	sub	sp, #24
 80018b8:	af00      	add	r7, sp, #0
 80018ba:	6078      	str	r0, [r7, #4]
 80018bc:	6039      	str	r1, [r7, #0]
  uint32_t position = 0x00u;
 80018be:	2300      	movs	r3, #0
 80018c0:	617b      	str	r3, [r7, #20]
  /* Check the parameters */
  assert_param(IS_GPIO_ALL_INSTANCE(GPIOx));
  assert_param(IS_GPIO_PIN(GPIO_Pin));

  /* Configure the port pins */
  while ((GPIO_Pin >> position) != 0x00u)
 80018c2:	e0ba      	b.n	8001a3a <HAL_GPIO_DeInit+0x186>
  {
    /* Get current io position */
    iocurrent = (GPIO_Pin) & (1uL << position);
 80018c4:	2201      	movs	r2, #1
 80018c6:	697b      	ldr	r3, [r7, #20]
 80018c8:	409a      	lsls	r2, r3
 80018ca:	683b      	ldr	r3, [r7, #0]
 80018cc:	4013      	ands	r3, r2
 80018ce:	613b      	str	r3, [r7, #16]

    if (iocurrent != 0x00u)
 80018d0:	693b      	ldr	r3, [r7, #16]
 80018d2:	2b00      	cmp	r3, #0
 80018d4:	d100      	bne.n	80018d8 <HAL_GPIO_DeInit+0x24>
 80018d6:	e0ad      	b.n	8001a34 <HAL_GPIO_DeInit+0x180>
    {
      /*------------------------- EXTI Mode Configuration --------------------*/
      /* Clear the External Interrupt or Event for the current IO */

      tmp = EXTI->EXTICR[position >> 2u];
 80018d8:	4a5d      	ldr	r2, [pc, #372]	; (8001a50 <HAL_GPIO_DeInit+0x19c>)
 80018da:	697b      	ldr	r3, [r7, #20]
 80018dc:	089b      	lsrs	r3, r3, #2
 80018de:	3318      	adds	r3, #24
 80018e0:	009b      	lsls	r3, r3, #2
 80018e2:	589b      	ldr	r3, [r3, r2]
 80018e4:	60fb      	str	r3, [r7, #12]
      tmp &= (0x0FuL << (8u * (position & 0x03u)));
 80018e6:	697b      	ldr	r3, [r7, #20]
 80018e8:	2203      	movs	r2, #3
 80018ea:	4013      	ands	r3, r2
 80018ec:	00db      	lsls	r3, r3, #3
 80018ee:	220f      	movs	r2, #15
 80018f0:	409a      	lsls	r2, r3
 80018f2:	68fb      	ldr	r3, [r7, #12]
 80018f4:	4013      	ands	r3, r2
 80018f6:	60fb      	str	r3, [r7, #12]
      if (tmp == (GPIO_GET_INDEX(GPIOx) << (8u * (position & 0x03u))))
 80018f8:	687a      	ldr	r2, [r7, #4]
 80018fa:	23a0      	movs	r3, #160	; 0xa0
 80018fc:	05db      	lsls	r3, r3, #23
 80018fe:	429a      	cmp	r2, r3
 8001900:	d019      	beq.n	8001936 <HAL_GPIO_DeInit+0x82>
 8001902:	687b      	ldr	r3, [r7, #4]
 8001904:	4a53      	ldr	r2, [pc, #332]	; (8001a54 <HAL_GPIO_DeInit+0x1a0>)
 8001906:	4293      	cmp	r3, r2
 8001908:	d013      	beq.n	8001932 <HAL_GPIO_DeInit+0x7e>
 800190a:	687b      	ldr	r3, [r7, #4]
 800190c:	4a52      	ldr	r2, [pc, #328]	; (8001a58 <HAL_GPIO_DeInit+0x1a4>)
 800190e:	4293      	cmp	r3, r2
 8001910:	d00d      	beq.n	800192e <HAL_GPIO_DeInit+0x7a>
 8001912:	687b      	ldr	r3, [r7, #4]
 8001914:	4a51      	ldr	r2, [pc, #324]	; (8001a5c <HAL_GPIO_DeInit+0x1a8>)
 8001916:	4293      	cmp	r3, r2
 8001918:	d007      	beq.n	800192a <HAL_GPIO_DeInit+0x76>
 800191a:	687b      	ldr	r3, [r7, #4]
 800191c:	4a50      	ldr	r2, [pc, #320]	; (8001a60 <HAL_GPIO_DeInit+0x1ac>)
 800191e:	4293      	cmp	r3, r2
 8001920:	d101      	bne.n	8001926 <HAL_GPIO_DeInit+0x72>
 8001922:	2304      	movs	r3, #4
 8001924:	e008      	b.n	8001938 <HAL_GPIO_DeInit+0x84>
 8001926:	2305      	movs	r3, #5
 8001928:	e006      	b.n	8001938 <HAL_GPIO_DeInit+0x84>
 800192a:	2303      	movs	r3, #3
 800192c:	e004      	b.n	8001938 <HAL_GPIO_DeInit+0x84>
 800192e:	2302      	movs	r3, #2
 8001930:	e002      	b.n	8001938 <HAL_GPIO_DeInit+0x84>
 8001932:	2301      	movs	r3, #1
 8001934:	e000      	b.n	8001938 <HAL_GPIO_DeInit+0x84>
 8001936:	2300      	movs	r3, #0
 8001938:	697a      	ldr	r2, [r7, #20]
 800193a:	2103      	movs	r1, #3
 800193c:	400a      	ands	r2, r1
 800193e:	00d2      	lsls	r2, r2, #3
 8001940:	4093      	lsls	r3, r2
 8001942:	68fa      	ldr	r2, [r7, #12]
 8001944:	429a      	cmp	r2, r3
 8001946:	d136      	bne.n	80019b6 <HAL_GPIO_DeInit+0x102>
      {
        /* Clear EXTI line configuration */
        EXTI->IMR1 &= ~(iocurrent);
 8001948:	4a41      	ldr	r2, [pc, #260]	; (8001a50 <HAL_GPIO_DeInit+0x19c>)
 800194a:	2380      	movs	r3, #128	; 0x80
 800194c:	58d3      	ldr	r3, [r2, r3]
 800194e:	693a      	ldr	r2, [r7, #16]
 8001950:	43d2      	mvns	r2, r2
 8001952:	493f      	ldr	r1, [pc, #252]	; (8001a50 <HAL_GPIO_DeInit+0x19c>)
 8001954:	4013      	ands	r3, r2
 8001956:	2280      	movs	r2, #128	; 0x80
 8001958:	508b      	str	r3, [r1, r2]
        EXTI->EMR1 &= ~(iocurrent);
 800195a:	4a3d      	ldr	r2, [pc, #244]	; (8001a50 <HAL_GPIO_DeInit+0x19c>)
 800195c:	2384      	movs	r3, #132	; 0x84
 800195e:	58d3      	ldr	r3, [r2, r3]
 8001960:	693a      	ldr	r2, [r7, #16]
 8001962:	43d2      	mvns	r2, r2
 8001964:	493a      	ldr	r1, [pc, #232]	; (8001a50 <HAL_GPIO_DeInit+0x19c>)
 8001966:	4013      	ands	r3, r2
 8001968:	2284      	movs	r2, #132	; 0x84
 800196a:	508b      	str	r3, [r1, r2]

        /* Clear Rising Falling edge configuration */
        EXTI->FTSR1 &= ~(iocurrent);
 800196c:	4b38      	ldr	r3, [pc, #224]	; (8001a50 <HAL_GPIO_DeInit+0x19c>)
 800196e:	685a      	ldr	r2, [r3, #4]
 8001970:	693b      	ldr	r3, [r7, #16]
 8001972:	43d9      	mvns	r1, r3
 8001974:	4b36      	ldr	r3, [pc, #216]	; (8001a50 <HAL_GPIO_DeInit+0x19c>)
 8001976:	400a      	ands	r2, r1
 8001978:	605a      	str	r2, [r3, #4]
        EXTI->RTSR1 &= ~(iocurrent);
 800197a:	4b35      	ldr	r3, [pc, #212]	; (8001a50 <HAL_GPIO_DeInit+0x19c>)
 800197c:	681a      	ldr	r2, [r3, #0]
 800197e:	693b      	ldr	r3, [r7, #16]
 8001980:	43d9      	mvns	r1, r3
 8001982:	4b33      	ldr	r3, [pc, #204]	; (8001a50 <HAL_GPIO_DeInit+0x19c>)
 8001984:	400a      	ands	r2, r1
 8001986:	601a      	str	r2, [r3, #0]

        tmp = 0x0FuL << (8u * (position & 0x03u));
 8001988:	697b      	ldr	r3, [r7, #20]
 800198a:	2203      	movs	r2, #3
 800198c:	4013      	ands	r3, r2
 800198e:	00db      	lsls	r3, r3, #3
 8001990:	220f      	movs	r2, #15
 8001992:	409a      	lsls	r2, r3
 8001994:	0013      	movs	r3, r2
 8001996:	60fb      	str	r3, [r7, #12]
        EXTI->EXTICR[position >> 2u] &= ~tmp;
 8001998:	4a2d      	ldr	r2, [pc, #180]	; (8001a50 <HAL_GPIO_DeInit+0x19c>)
 800199a:	697b      	ldr	r3, [r7, #20]
 800199c:	089b      	lsrs	r3, r3, #2
 800199e:	3318      	adds	r3, #24
 80019a0:	009b      	lsls	r3, r3, #2
 80019a2:	589a      	ldr	r2, [r3, r2]
 80019a4:	68fb      	ldr	r3, [r7, #12]
 80019a6:	43d9      	mvns	r1, r3
 80019a8:	4829      	ldr	r0, [pc, #164]	; (8001a50 <HAL_GPIO_DeInit+0x19c>)
 80019aa:	697b      	ldr	r3, [r7, #20]
 80019ac:	089b      	lsrs	r3, r3, #2
 80019ae:	400a      	ands	r2, r1
 80019b0:	3318      	adds	r3, #24
 80019b2:	009b      	lsls	r3, r3, #2
 80019b4:	501a      	str	r2, [r3, r0]
      }

      /*------------------------- GPIO Mode Configuration --------------------*/
      /* Configure IO in Analog Mode */
      GPIOx->MODER |= (GPIO_MODER_MODE0 << (position * 2u));
 80019b6:	687b      	ldr	r3, [r7, #4]
 80019b8:	681a      	ldr	r2, [r3, #0]
 80019ba:	697b      	ldr	r3, [r7, #20]
 80019bc:	005b      	lsls	r3, r3, #1
 80019be:	2103      	movs	r1, #3
 80019c0:	4099      	lsls	r1, r3
 80019c2:	000b      	movs	r3, r1
 80019c4:	431a      	orrs	r2, r3
 80019c6:	687b      	ldr	r3, [r7, #4]
 80019c8:	601a      	str	r2, [r3, #0]

      /* Configure the default Alternate Function in current IO */
      GPIOx->AFR[position >> 3u] &= ~(0xFu << ((position & 0x07u) * 4u)) ;
 80019ca:	697b      	ldr	r3, [r7, #20]
 80019cc:	08da      	lsrs	r2, r3, #3
 80019ce:	687b      	ldr	r3, [r7, #4]
 80019d0:	3208      	adds	r2, #8
 80019d2:	0092      	lsls	r2, r2, #2
 80019d4:	58d3      	ldr	r3, [r2, r3]
 80019d6:	697a      	ldr	r2, [r7, #20]
 80019d8:	2107      	movs	r1, #7
 80019da:	400a      	ands	r2, r1
 80019dc:	0092      	lsls	r2, r2, #2
 80019de:	210f      	movs	r1, #15
 80019e0:	4091      	lsls	r1, r2
 80019e2:	000a      	movs	r2, r1
 80019e4:	43d1      	mvns	r1, r2
 80019e6:	697a      	ldr	r2, [r7, #20]
 80019e8:	08d2      	lsrs	r2, r2, #3
 80019ea:	4019      	ands	r1, r3
 80019ec:	687b      	ldr	r3, [r7, #4]
 80019ee:	3208      	adds	r2, #8
 80019f0:	0092      	lsls	r2, r2, #2
 80019f2:	50d1      	str	r1, [r2, r3]

      /* Configure the default value for IO Speed */
      GPIOx->OSPEEDR &= ~(GPIO_OSPEEDR_OSPEED0 << (position * 2u));
 80019f4:	687b      	ldr	r3, [r7, #4]
 80019f6:	689b      	ldr	r3, [r3, #8]
 80019f8:	697a      	ldr	r2, [r7, #20]
 80019fa:	0052      	lsls	r2, r2, #1
 80019fc:	2103      	movs	r1, #3
 80019fe:	4091      	lsls	r1, r2
 8001a00:	000a      	movs	r2, r1
 8001a02:	43d2      	mvns	r2, r2
 8001a04:	401a      	ands	r2, r3
 8001a06:	687b      	ldr	r3, [r7, #4]
 8001a08:	609a      	str	r2, [r3, #8]

      /* Configure the default value IO Output Type */
      GPIOx->OTYPER  &= ~(GPIO_OTYPER_OT0 << position) ;
 8001a0a:	687b      	ldr	r3, [r7, #4]
 8001a0c:	685b      	ldr	r3, [r3, #4]
 8001a0e:	2101      	movs	r1, #1
 8001a10:	697a      	ldr	r2, [r7, #20]
 8001a12:	4091      	lsls	r1, r2
 8001a14:	000a      	movs	r2, r1
 8001a16:	43d2      	mvns	r2, r2
 8001a18:	401a      	ands	r2, r3
 8001a1a:	687b      	ldr	r3, [r7, #4]
 8001a1c:	605a      	str	r2, [r3, #4]

      /* Deactivate the Pull-up and Pull-down resistor for the current IO */
      GPIOx->PUPDR &= ~(GPIO_PUPDR_PUPD0 << (position * 2u));
 8001a1e:	687b      	ldr	r3, [r7, #4]
 8001a20:	68db      	ldr	r3, [r3, #12]
 8001a22:	697a      	ldr	r2, [r7, #20]
 8001a24:	0052      	lsls	r2, r2, #1
 8001a26:	2103      	movs	r1, #3
 8001a28:	4091      	lsls	r1, r2
 8001a2a:	000a      	movs	r2, r1
 8001a2c:	43d2      	mvns	r2, r2
 8001a2e:	401a      	ands	r2, r3
 8001a30:	687b      	ldr	r3, [r7, #4]
 8001a32:	60da      	str	r2, [r3, #12]
    }

    position++;
 8001a34:	697b      	ldr	r3, [r7, #20]
 8001a36:	3301      	adds	r3, #1
 8001a38:	617b      	str	r3, [r7, #20]
  while ((GPIO_Pin >> position) != 0x00u)
 8001a3a:	683a      	ldr	r2, [r7, #0]
 8001a3c:	697b      	ldr	r3, [r7, #20]
 8001a3e:	40da      	lsrs	r2, r3
 8001a40:	1e13      	subs	r3, r2, #0
 8001a42:	d000      	beq.n	8001a46 <HAL_GPIO_DeInit+0x192>
 8001a44:	e73e      	b.n	80018c4 <HAL_GPIO_DeInit+0x10>
  }
}
 8001a46:	46c0      	nop			; (mov r8, r8)
 8001a48:	46c0      	nop			; (mov r8, r8)
 8001a4a:	46bd      	mov	sp, r7
 8001a4c:	b006      	add	sp, #24
 8001a4e:	bd80      	pop	{r7, pc}
 8001a50:	40021800 	.word	0x40021800
 8001a54:	50000400 	.word	0x50000400
 8001a58:	50000800 	.word	0x50000800
 8001a5c:	50000c00 	.word	0x50000c00
 8001a60:	50001000 	.word	0x50001000

08001a64 <HAL_GPIO_WritePin>:
  *            @arg GPIO_PIN_RESET: to clear the port pin
  *            @arg GPIO_PIN_SET: to set the port pin
  * @retval None
  */
void HAL_GPIO_WritePin(GPIO_TypeDef *GPIOx, uint16_t GPIO_Pin, GPIO_PinState PinState)
{
 8001a64:	b580      	push	{r7, lr}
 8001a66:	b082      	sub	sp, #8
 8001a68:	af00      	add	r7, sp, #0
 8001a6a:	6078      	str	r0, [r7, #4]
 8001a6c:	0008      	movs	r0, r1
 8001a6e:	0011      	movs	r1, r2
 8001a70:	1cbb      	adds	r3, r7, #2
 8001a72:	1c02      	adds	r2, r0, #0
 8001a74:	801a      	strh	r2, [r3, #0]
 8001a76:	1c7b      	adds	r3, r7, #1
 8001a78:	1c0a      	adds	r2, r1, #0
 8001a7a:	701a      	strb	r2, [r3, #0]
  /* Check the parameters */
  assert_param(IS_GPIO_PIN(GPIO_Pin));
  assert_param(IS_GPIO_PIN_ACTION(PinState));

  if (PinState != GPIO_PIN_RESET)
 8001a7c:	1c7b      	adds	r3, r7, #1
 8001a7e:	781b      	ldrb	r3, [r3, #0]
 8001a80:	2b00      	cmp	r3, #0
 8001a82:	d004      	beq.n	8001a8e <HAL_GPIO_WritePin+0x2a>
  {
    GPIOx->BSRR = (uint32_t)GPIO_Pin;
 8001a84:	1cbb      	adds	r3, r7, #2
 8001a86:	881a      	ldrh	r2, [r3, #0]
 8001a88:	687b      	ldr	r3, [r7, #4]
 8001a8a:	619a      	str	r2, [r3, #24]
  }
  else
  {
    GPIOx->BRR = (uint32_t)GPIO_Pin;
  }
}
 8001a8c:	e003      	b.n	8001a96 <HAL_GPIO_WritePin+0x32>
    GPIOx->BRR = (uint32_t)GPIO_Pin;
 8001a8e:	1cbb      	adds	r3, r7, #2
 8001a90:	881a      	ldrh	r2, [r3, #0]
 8001a92:	687b      	ldr	r3, [r7, #4]
 8001a94:	629a      	str	r2, [r3, #40]	; 0x28
}
 8001a96:	46c0      	nop			; (mov r8, r8)
 8001a98:	46bd      	mov	sp, r7
 8001a9a:	b002      	add	sp, #8
 8001a9c:	bd80      	pop	{r7, pc}
	...

08001aa0 <HAL_I2C_Init>:
  * @param  hi2c Pointer to a I2C_HandleTypeDef structure that contains
  *                the configuration information for the specified I2C.
  * @retval HAL status
  */
HAL_StatusTypeDef HAL_I2C_Init(I2C_HandleTypeDef *hi2c)
{
 8001aa0:	b580      	push	{r7, lr}
 8001aa2:	b082      	sub	sp, #8
 8001aa4:	af00      	add	r7, sp, #0
 8001aa6:	6078      	str	r0, [r7, #4]
  /* Check the I2C handle allocation */
  if (hi2c == NULL)
 8001aa8:	687b      	ldr	r3, [r7, #4]
 8001aaa:	2b00      	cmp	r3, #0
 8001aac:	d101      	bne.n	8001ab2 <HAL_I2C_Init+0x12>
  {
    return HAL_ERROR;
 8001aae:	2301      	movs	r3, #1
 8001ab0:	e082      	b.n	8001bb8 <HAL_I2C_Init+0x118>
  assert_param(IS_I2C_OWN_ADDRESS2(hi2c->Init.OwnAddress2));
  assert_param(IS_I2C_OWN_ADDRESS2_MASK(hi2c->Init.OwnAddress2Masks));
  assert_param(IS_I2C_GENERAL_CALL(hi2c->Init.GeneralCallMode));
  assert_param(IS_I2C_NO_STRETCH(hi2c->Init.NoStretchMode));

  if (hi2c->State == HAL_I2C_STATE_RESET)
 8001ab2:	687b      	ldr	r3, [r7, #4]
 8001ab4:	2241      	movs	r2, #65	; 0x41
 8001ab6:	5c9b      	ldrb	r3, [r3, r2]
 8001ab8:	b2db      	uxtb	r3, r3
 8001aba:	2b00      	cmp	r3, #0
 8001abc:	d107      	bne.n	8001ace <HAL_I2C_Init+0x2e>
  {
    /* Allocate lock resource and initialize it */
    hi2c->Lock = HAL_UNLOCKED;
 8001abe:	687b      	ldr	r3, [r7, #4]
 8001ac0:	2240      	movs	r2, #64	; 0x40
 8001ac2:	2100      	movs	r1, #0
 8001ac4:	5499      	strb	r1, [r3, r2]

    /* Init the low level hardware : GPIO, CLOCK, CORTEX...etc */
    hi2c->MspInitCallback(hi2c);
#else
    /* Init the low level hardware : GPIO, CLOCK, CORTEX...etc */
    HAL_I2C_MspInit(hi2c);
 8001ac6:	687b      	ldr	r3, [r7, #4]
 8001ac8:	0018      	movs	r0, r3
 8001aca:	f7ff f889 	bl	8000be0 <HAL_I2C_MspInit>
#endif /* USE_HAL_I2C_REGISTER_CALLBACKS */
  }

  hi2c->State = HAL_I2C_STATE_BUSY;
 8001ace:	687b      	ldr	r3, [r7, #4]
 8001ad0:	2241      	movs	r2, #65	; 0x41
 8001ad2:	2124      	movs	r1, #36	; 0x24
 8001ad4:	5499      	strb	r1, [r3, r2]

  /* Disable the selected I2C peripheral */
  __HAL_I2C_DISABLE(hi2c);
 8001ad6:	687b      	ldr	r3, [r7, #4]
 8001ad8:	681b      	ldr	r3, [r3, #0]
 8001ada:	681a      	ldr	r2, [r3, #0]
 8001adc:	687b      	ldr	r3, [r7, #4]
 8001ade:	681b      	ldr	r3, [r3, #0]
 8001ae0:	2101      	movs	r1, #1
 8001ae2:	438a      	bics	r2, r1
 8001ae4:	601a      	str	r2, [r3, #0]

  /*---------------------------- I2Cx TIMINGR Configuration ------------------*/
  /* Configure I2Cx: Frequency range */
  hi2c->Instance->TIMINGR = hi2c->Init.Timing & TIMING_CLEAR_MASK;
 8001ae6:	687b      	ldr	r3, [r7, #4]
 8001ae8:	685a      	ldr	r2, [r3, #4]
 8001aea:	687b      	ldr	r3, [r7, #4]
 8001aec:	681b      	ldr	r3, [r3, #0]
 8001aee:	4934      	ldr	r1, [pc, #208]	; (8001bc0 <HAL_I2C_Init+0x120>)
 8001af0:	400a      	ands	r2, r1
 8001af2:	611a      	str	r2, [r3, #16]

  /*---------------------------- I2Cx OAR1 Configuration ---------------------*/
  /* Disable Own Address1 before set the Own Address1 configuration */
  hi2c->Instance->OAR1 &= ~I2C_OAR1_OA1EN;
 8001af4:	687b      	ldr	r3, [r7, #4]
 8001af6:	681b      	ldr	r3, [r3, #0]
 8001af8:	689a      	ldr	r2, [r3, #8]
 8001afa:	687b      	ldr	r3, [r7, #4]
 8001afc:	681b      	ldr	r3, [r3, #0]
 8001afe:	4931      	ldr	r1, [pc, #196]	; (8001bc4 <HAL_I2C_Init+0x124>)
 8001b00:	400a      	ands	r2, r1
 8001b02:	609a      	str	r2, [r3, #8]

  /* Configure I2Cx: Own Address1 and ack own address1 mode */
  if (hi2c->Init.AddressingMode == I2C_ADDRESSINGMODE_7BIT)
 8001b04:	687b      	ldr	r3, [r7, #4]
 8001b06:	68db      	ldr	r3, [r3, #12]
 8001b08:	2b01      	cmp	r3, #1
 8001b0a:	d108      	bne.n	8001b1e <HAL_I2C_Init+0x7e>
  {
    hi2c->Instance->OAR1 = (I2C_OAR1_OA1EN | hi2c->Init.OwnAddress1);
 8001b0c:	687b      	ldr	r3, [r7, #4]
 8001b0e:	689a      	ldr	r2, [r3, #8]
 8001b10:	687b      	ldr	r3, [r7, #4]
 8001b12:	681b      	ldr	r3, [r3, #0]
 8001b14:	2180      	movs	r1, #128	; 0x80
 8001b16:	0209      	lsls	r1, r1, #8
 8001b18:	430a      	orrs	r2, r1
 8001b1a:	609a      	str	r2, [r3, #8]
 8001b1c:	e007      	b.n	8001b2e <HAL_I2C_Init+0x8e>
  }
  else /* I2C_ADDRESSINGMODE_10BIT */
  {
    hi2c->Instance->OAR1 = (I2C_OAR1_OA1EN | I2C_OAR1_OA1MODE | hi2c->Init.OwnAddress1);
 8001b1e:	687b      	ldr	r3, [r7, #4]
 8001b20:	689a      	ldr	r2, [r3, #8]
 8001b22:	687b      	ldr	r3, [r7, #4]
 8001b24:	681b      	ldr	r3, [r3, #0]
 8001b26:	2184      	movs	r1, #132	; 0x84
 8001b28:	0209      	lsls	r1, r1, #8
 8001b2a:	430a      	orrs	r2, r1
 8001b2c:	609a      	str	r2, [r3, #8]
  }

  /*---------------------------- I2Cx CR2 Configuration ----------------------*/
  /* Configure I2Cx: Addressing Master mode */
  if (hi2c->Init.AddressingMode == I2C_ADDRESSINGMODE_10BIT)
 8001b2e:	687b      	ldr	r3, [r7, #4]
 8001b30:	68db      	ldr	r3, [r3, #12]
 8001b32:	2b02      	cmp	r3, #2
 8001b34:	d104      	bne.n	8001b40 <HAL_I2C_Init+0xa0>
  {
    hi2c->Instance->CR2 = (I2C_CR2_ADD10);
 8001b36:	687b      	ldr	r3, [r7, #4]
 8001b38:	681b      	ldr	r3, [r3, #0]
 8001b3a:	2280      	movs	r2, #128	; 0x80
 8001b3c:	0112      	lsls	r2, r2, #4
 8001b3e:	605a      	str	r2, [r3, #4]
  }
  /* Enable the AUTOEND by default, and enable NACK (should be disable only during Slave process */
  hi2c->Instance->CR2 |= (I2C_CR2_AUTOEND | I2C_CR2_NACK);
 8001b40:	687b      	ldr	r3, [r7, #4]
 8001b42:	681b      	ldr	r3, [r3, #0]
 8001b44:	685a      	ldr	r2, [r3, #4]
 8001b46:	687b      	ldr	r3, [r7, #4]
 8001b48:	681b      	ldr	r3, [r3, #0]
 8001b4a:	491f      	ldr	r1, [pc, #124]	; (8001bc8 <HAL_I2C_Init+0x128>)
 8001b4c:	430a      	orrs	r2, r1
 8001b4e:	605a      	str	r2, [r3, #4]

  /*---------------------------- I2Cx OAR2 Configuration ---------------------*/
  /* Disable Own Address2 before set the Own Address2 configuration */
  hi2c->Instance->OAR2 &= ~I2C_DUALADDRESS_ENABLE;
 8001b50:	687b      	ldr	r3, [r7, #4]
 8001b52:	681b      	ldr	r3, [r3, #0]
 8001b54:	68da      	ldr	r2, [r3, #12]
 8001b56:	687b      	ldr	r3, [r7, #4]
 8001b58:	681b      	ldr	r3, [r3, #0]
 8001b5a:	491a      	ldr	r1, [pc, #104]	; (8001bc4 <HAL_I2C_Init+0x124>)
 8001b5c:	400a      	ands	r2, r1
 8001b5e:	60da      	str	r2, [r3, #12]

  /* Configure I2Cx: Dual mode and Own Address2 */
  hi2c->Instance->OAR2 = (hi2c->Init.DualAddressMode | hi2c->Init.OwnAddress2 | \
 8001b60:	687b      	ldr	r3, [r7, #4]
 8001b62:	691a      	ldr	r2, [r3, #16]
 8001b64:	687b      	ldr	r3, [r7, #4]
 8001b66:	695b      	ldr	r3, [r3, #20]
 8001b68:	431a      	orrs	r2, r3
 8001b6a:	0011      	movs	r1, r2
                          (hi2c->Init.OwnAddress2Masks << 8));
 8001b6c:	687b      	ldr	r3, [r7, #4]
 8001b6e:	699b      	ldr	r3, [r3, #24]
 8001b70:	021a      	lsls	r2, r3, #8
  hi2c->Instance->OAR2 = (hi2c->Init.DualAddressMode | hi2c->Init.OwnAddress2 | \
 8001b72:	687b      	ldr	r3, [r7, #4]
 8001b74:	681b      	ldr	r3, [r3, #0]
 8001b76:	430a      	orrs	r2, r1
 8001b78:	60da      	str	r2, [r3, #12]

  /*---------------------------- I2Cx CR1 Configuration ----------------------*/
  /* Configure I2Cx: Generalcall and NoStretch mode */
  hi2c->Instance->CR1 = (hi2c->Init.GeneralCallMode | hi2c->Init.NoStretchMode);
 8001b7a:	687b      	ldr	r3, [r7, #4]
 8001b7c:	69d9      	ldr	r1, [r3, #28]
 8001b7e:	687b      	ldr	r3, [r7, #4]
 8001b80:	6a1a      	ldr	r2, [r3, #32]
 8001b82:	687b      	ldr	r3, [r7, #4]
 8001b84:	681b      	ldr	r3, [r3, #0]
 8001b86:	430a      	orrs	r2, r1
 8001b88:	601a      	str	r2, [r3, #0]

  /* Enable the selected I2C peripheral */
  __HAL_I2C_ENABLE(hi2c);
 8001b8a:	687b      	ldr	r3, [r7, #4]
 8001b8c:	681b      	ldr	r3, [r3, #0]
 8001b8e:	681a      	ldr	r2, [r3, #0]
 8001b90:	687b      	ldr	r3, [r7, #4]
 8001b92:	681b      	ldr	r3, [r3, #0]
 8001b94:	2101      	movs	r1, #1
 8001b96:	430a      	orrs	r2, r1
 8001b98:	601a      	str	r2, [r3, #0]

  hi2c->ErrorCode = HAL_I2C_ERROR_NONE;
 8001b9a:	687b      	ldr	r3, [r7, #4]
 8001b9c:	2200      	movs	r2, #0
 8001b9e:	645a      	str	r2, [r3, #68]	; 0x44
  hi2c->State = HAL_I2C_STATE_READY;
 8001ba0:	687b      	ldr	r3, [r7, #4]
 8001ba2:	2241      	movs	r2, #65	; 0x41
 8001ba4:	2120      	movs	r1, #32
 8001ba6:	5499      	strb	r1, [r3, r2]
  hi2c->PreviousState = I2C_STATE_NONE;
 8001ba8:	687b      	ldr	r3, [r7, #4]
 8001baa:	2200      	movs	r2, #0
 8001bac:	631a      	str	r2, [r3, #48]	; 0x30
  hi2c->Mode = HAL_I2C_MODE_NONE;
 8001bae:	687b      	ldr	r3, [r7, #4]
 8001bb0:	2242      	movs	r2, #66	; 0x42
 8001bb2:	2100      	movs	r1, #0
 8001bb4:	5499      	strb	r1, [r3, r2]

  return HAL_OK;
 8001bb6:	2300      	movs	r3, #0
}
 8001bb8:	0018      	movs	r0, r3
 8001bba:	46bd      	mov	sp, r7
 8001bbc:	b002      	add	sp, #8
 8001bbe:	bd80      	pop	{r7, pc}
 8001bc0:	f0ffffff 	.word	0xf0ffffff
 8001bc4:	ffff7fff 	.word	0xffff7fff
 8001bc8:	02008000 	.word	0x02008000

08001bcc <HAL_I2C_DeInit>:
  * @param  hi2c Pointer to a I2C_HandleTypeDef structure that contains
  *                the configuration information for the specified I2C.
  * @retval HAL status
  */
HAL_StatusTypeDef HAL_I2C_DeInit(I2C_HandleTypeDef *hi2c)
{
 8001bcc:	b580      	push	{r7, lr}
 8001bce:	b082      	sub	sp, #8
 8001bd0:	af00      	add	r7, sp, #0
 8001bd2:	6078      	str	r0, [r7, #4]
  /* Check the I2C handle allocation */
  if (hi2c == NULL)
 8001bd4:	687b      	ldr	r3, [r7, #4]
 8001bd6:	2b00      	cmp	r3, #0
 8001bd8:	d101      	bne.n	8001bde <HAL_I2C_DeInit+0x12>
  {
    return HAL_ERROR;
 8001bda:	2301      	movs	r3, #1
 8001bdc:	e022      	b.n	8001c24 <HAL_I2C_DeInit+0x58>
  }

  /* Check the parameters */
  assert_param(IS_I2C_ALL_INSTANCE(hi2c->Instance));

  hi2c->State = HAL_I2C_STATE_BUSY;
 8001bde:	687b      	ldr	r3, [r7, #4]
 8001be0:	2241      	movs	r2, #65	; 0x41
 8001be2:	2124      	movs	r1, #36	; 0x24
 8001be4:	5499      	strb	r1, [r3, r2]

  /* Disable the I2C Peripheral Clock */
  __HAL_I2C_DISABLE(hi2c);
 8001be6:	687b      	ldr	r3, [r7, #4]
 8001be8:	681b      	ldr	r3, [r3, #0]
 8001bea:	681a      	ldr	r2, [r3, #0]
 8001bec:	687b      	ldr	r3, [r7, #4]
 8001bee:	681b      	ldr	r3, [r3, #0]
 8001bf0:	2101      	movs	r1, #1
 8001bf2:	438a      	bics	r2, r1
 8001bf4:	601a      	str	r2, [r3, #0]

  /* DeInit the low level hardware: GPIO, CLOCK, NVIC */
  hi2c->MspDeInitCallback(hi2c);
#else
  /* DeInit the low level hardware: GPIO, CLOCK, NVIC */
  HAL_I2C_MspDeInit(hi2c);
 8001bf6:	687b      	ldr	r3, [r7, #4]
 8001bf8:	0018      	movs	r0, r3
 8001bfa:	f7ff f853 	bl	8000ca4 <HAL_I2C_MspDeInit>
#endif /* USE_HAL_I2C_REGISTER_CALLBACKS */

  hi2c->ErrorCode = HAL_I2C_ERROR_NONE;
 8001bfe:	687b      	ldr	r3, [r7, #4]
 8001c00:	2200      	movs	r2, #0
 8001c02:	645a      	str	r2, [r3, #68]	; 0x44
  hi2c->State = HAL_I2C_STATE_RESET;
 8001c04:	687b      	ldr	r3, [r7, #4]
 8001c06:	2241      	movs	r2, #65	; 0x41
 8001c08:	2100      	movs	r1, #0
 8001c0a:	5499      	strb	r1, [r3, r2]
  hi2c->PreviousState = I2C_STATE_NONE;
 8001c0c:	687b      	ldr	r3, [r7, #4]
 8001c0e:	2200      	movs	r2, #0
 8001c10:	631a      	str	r2, [r3, #48]	; 0x30
  hi2c->Mode = HAL_I2C_MODE_NONE;
 8001c12:	687b      	ldr	r3, [r7, #4]
 8001c14:	2242      	movs	r2, #66	; 0x42
 8001c16:	2100      	movs	r1, #0
 8001c18:	5499      	strb	r1, [r3, r2]

  /* Release Lock */
  __HAL_UNLOCK(hi2c);
 8001c1a:	687b      	ldr	r3, [r7, #4]
 8001c1c:	2240      	movs	r2, #64	; 0x40
 8001c1e:	2100      	movs	r1, #0
 8001c20:	5499      	strb	r1, [r3, r2]

  return HAL_OK;
 8001c22:	2300      	movs	r3, #0
}
 8001c24:	0018      	movs	r0, r3
 8001c26:	46bd      	mov	sp, r7
 8001c28:	b002      	add	sp, #8
 8001c2a:	bd80      	pop	{r7, pc}

08001c2c <HAL_I2C_Mem_Write>:
  * @param  Timeout Timeout duration
  * @retval HAL status
  */
HAL_StatusTypeDef HAL_I2C_Mem_Write(I2C_HandleTypeDef *hi2c, uint16_t DevAddress, uint16_t MemAddress,
                                    uint16_t MemAddSize, uint8_t *pData, uint16_t Size, uint32_t Timeout)
{
 8001c2c:	b590      	push	{r4, r7, lr}
 8001c2e:	b089      	sub	sp, #36	; 0x24
 8001c30:	af02      	add	r7, sp, #8
 8001c32:	60f8      	str	r0, [r7, #12]
 8001c34:	000c      	movs	r4, r1
 8001c36:	0010      	movs	r0, r2
 8001c38:	0019      	movs	r1, r3
 8001c3a:	230a      	movs	r3, #10
 8001c3c:	18fb      	adds	r3, r7, r3
 8001c3e:	1c22      	adds	r2, r4, #0
 8001c40:	801a      	strh	r2, [r3, #0]
 8001c42:	2308      	movs	r3, #8
 8001c44:	18fb      	adds	r3, r7, r3
 8001c46:	1c02      	adds	r2, r0, #0
 8001c48:	801a      	strh	r2, [r3, #0]
 8001c4a:	1dbb      	adds	r3, r7, #6
 8001c4c:	1c0a      	adds	r2, r1, #0
 8001c4e:	801a      	strh	r2, [r3, #0]
  uint32_t tickstart;

  /* Check the parameters */
  assert_param(IS_I2C_MEMADD_SIZE(MemAddSize));

  if (hi2c->State == HAL_I2C_STATE_READY)
 8001c50:	68fb      	ldr	r3, [r7, #12]
 8001c52:	2241      	movs	r2, #65	; 0x41
 8001c54:	5c9b      	ldrb	r3, [r3, r2]
 8001c56:	b2db      	uxtb	r3, r3
 8001c58:	2b20      	cmp	r3, #32
 8001c5a:	d000      	beq.n	8001c5e <HAL_I2C_Mem_Write+0x32>
 8001c5c:	e10c      	b.n	8001e78 <HAL_I2C_Mem_Write+0x24c>
  {
    if ((pData == NULL) || (Size == 0U))
 8001c5e:	6abb      	ldr	r3, [r7, #40]	; 0x28
 8001c60:	2b00      	cmp	r3, #0
 8001c62:	d004      	beq.n	8001c6e <HAL_I2C_Mem_Write+0x42>
 8001c64:	232c      	movs	r3, #44	; 0x2c
 8001c66:	18fb      	adds	r3, r7, r3
 8001c68:	881b      	ldrh	r3, [r3, #0]
 8001c6a:	2b00      	cmp	r3, #0
 8001c6c:	d105      	bne.n	8001c7a <HAL_I2C_Mem_Write+0x4e>
    {
      hi2c->ErrorCode = HAL_I2C_ERROR_INVALID_PARAM;
 8001c6e:	68fb      	ldr	r3, [r7, #12]
 8001c70:	2280      	movs	r2, #128	; 0x80
 8001c72:	0092      	lsls	r2, r2, #2
 8001c74:	645a      	str	r2, [r3, #68]	; 0x44
      return  HAL_ERROR;
 8001c76:	2301      	movs	r3, #1
 8001c78:	e0ff      	b.n	8001e7a <HAL_I2C_Mem_Write+0x24e>
    }

    /* Process Locked */
    __HAL_LOCK(hi2c);
 8001c7a:	68fb      	ldr	r3, [r7, #12]
 8001c7c:	2240      	movs	r2, #64	; 0x40
 8001c7e:	5c9b      	ldrb	r3, [r3, r2]
 8001c80:	2b01      	cmp	r3, #1
 8001c82:	d101      	bne.n	8001c88 <HAL_I2C_Mem_Write+0x5c>
 8001c84:	2302      	movs	r3, #2
 8001c86:	e0f8      	b.n	8001e7a <HAL_I2C_Mem_Write+0x24e>
 8001c88:	68fb      	ldr	r3, [r7, #12]
 8001c8a:	2240      	movs	r2, #64	; 0x40
 8001c8c:	2101      	movs	r1, #1
 8001c8e:	5499      	strb	r1, [r3, r2]

    /* Init tickstart for timeout management*/
    tickstart = HAL_GetTick();
 8001c90:	f7ff fbc2 	bl	8001418 <HAL_GetTick>
 8001c94:	0003      	movs	r3, r0
 8001c96:	617b      	str	r3, [r7, #20]

    if (I2C_WaitOnFlagUntilTimeout(hi2c, I2C_FLAG_BUSY, SET, I2C_TIMEOUT_BUSY, tickstart) != HAL_OK)
 8001c98:	2380      	movs	r3, #128	; 0x80
 8001c9a:	0219      	lsls	r1, r3, #8
 8001c9c:	68f8      	ldr	r0, [r7, #12]
 8001c9e:	697b      	ldr	r3, [r7, #20]
 8001ca0:	9300      	str	r3, [sp, #0]
 8001ca2:	2319      	movs	r3, #25
 8001ca4:	2201      	movs	r2, #1
 8001ca6:	f000 fb0b 	bl	80022c0 <I2C_WaitOnFlagUntilTimeout>
 8001caa:	1e03      	subs	r3, r0, #0
 8001cac:	d001      	beq.n	8001cb2 <HAL_I2C_Mem_Write+0x86>
    {
      return HAL_ERROR;
 8001cae:	2301      	movs	r3, #1
 8001cb0:	e0e3      	b.n	8001e7a <HAL_I2C_Mem_Write+0x24e>
    }

    hi2c->State     = HAL_I2C_STATE_BUSY_TX;
 8001cb2:	68fb      	ldr	r3, [r7, #12]
 8001cb4:	2241      	movs	r2, #65	; 0x41
 8001cb6:	2121      	movs	r1, #33	; 0x21
 8001cb8:	5499      	strb	r1, [r3, r2]
    hi2c->Mode      = HAL_I2C_MODE_MEM;
 8001cba:	68fb      	ldr	r3, [r7, #12]
 8001cbc:	2242      	movs	r2, #66	; 0x42
 8001cbe:	2140      	movs	r1, #64	; 0x40
 8001cc0:	5499      	strb	r1, [r3, r2]
    hi2c->ErrorCode = HAL_I2C_ERROR_NONE;
 8001cc2:	68fb      	ldr	r3, [r7, #12]
 8001cc4:	2200      	movs	r2, #0
 8001cc6:	645a      	str	r2, [r3, #68]	; 0x44

    /* Prepare transfer parameters */
    hi2c->pBuffPtr  = pData;
 8001cc8:	68fb      	ldr	r3, [r7, #12]
 8001cca:	6aba      	ldr	r2, [r7, #40]	; 0x28
 8001ccc:	625a      	str	r2, [r3, #36]	; 0x24
    hi2c->XferCount = Size;
 8001cce:	68fb      	ldr	r3, [r7, #12]
 8001cd0:	222c      	movs	r2, #44	; 0x2c
 8001cd2:	18ba      	adds	r2, r7, r2
 8001cd4:	8812      	ldrh	r2, [r2, #0]
 8001cd6:	855a      	strh	r2, [r3, #42]	; 0x2a
    hi2c->XferISR   = NULL;
 8001cd8:	68fb      	ldr	r3, [r7, #12]
 8001cda:	2200      	movs	r2, #0
 8001cdc:	635a      	str	r2, [r3, #52]	; 0x34

    /* Send Slave Address and Memory Address */
    if (I2C_RequestMemoryWrite(hi2c, DevAddress, MemAddress, MemAddSize, Timeout, tickstart) != HAL_OK)
 8001cde:	1dbb      	adds	r3, r7, #6
 8001ce0:	881c      	ldrh	r4, [r3, #0]
 8001ce2:	2308      	movs	r3, #8
 8001ce4:	18fb      	adds	r3, r7, r3
 8001ce6:	881a      	ldrh	r2, [r3, #0]
 8001ce8:	230a      	movs	r3, #10
 8001cea:	18fb      	adds	r3, r7, r3
 8001cec:	8819      	ldrh	r1, [r3, #0]
 8001cee:	68f8      	ldr	r0, [r7, #12]
 8001cf0:	697b      	ldr	r3, [r7, #20]
 8001cf2:	9301      	str	r3, [sp, #4]
 8001cf4:	6b3b      	ldr	r3, [r7, #48]	; 0x30
 8001cf6:	9300      	str	r3, [sp, #0]
 8001cf8:	0023      	movs	r3, r4
 8001cfa:	f000 f9f9 	bl	80020f0 <I2C_RequestMemoryWrite>
 8001cfe:	1e03      	subs	r3, r0, #0
 8001d00:	d005      	beq.n	8001d0e <HAL_I2C_Mem_Write+0xe2>
    {
      /* Process Unlocked */
      __HAL_UNLOCK(hi2c);
 8001d02:	68fb      	ldr	r3, [r7, #12]
 8001d04:	2240      	movs	r2, #64	; 0x40
 8001d06:	2100      	movs	r1, #0
 8001d08:	5499      	strb	r1, [r3, r2]
      return HAL_ERROR;
 8001d0a:	2301      	movs	r3, #1
 8001d0c:	e0b5      	b.n	8001e7a <HAL_I2C_Mem_Write+0x24e>
    }

    /* Set NBYTES to write and reload if hi2c->XferCount > MAX_NBYTE_SIZE */
    if (hi2c->XferCount > MAX_NBYTE_SIZE)
 8001d0e:	68fb      	ldr	r3, [r7, #12]
 8001d10:	8d5b      	ldrh	r3, [r3, #42]	; 0x2a
 8001d12:	b29b      	uxth	r3, r3
 8001d14:	2bff      	cmp	r3, #255	; 0xff
 8001d16:	d911      	bls.n	8001d3c <HAL_I2C_Mem_Write+0x110>
    {
      hi2c->XferSize = MAX_NBYTE_SIZE;
 8001d18:	68fb      	ldr	r3, [r7, #12]
 8001d1a:	22ff      	movs	r2, #255	; 0xff
 8001d1c:	851a      	strh	r2, [r3, #40]	; 0x28
      I2C_TransferConfig(hi2c, DevAddress, (uint8_t)hi2c->XferSize, I2C_RELOAD_MODE, I2C_NO_STARTSTOP);
 8001d1e:	68fb      	ldr	r3, [r7, #12]
 8001d20:	8d1b      	ldrh	r3, [r3, #40]	; 0x28
 8001d22:	b2da      	uxtb	r2, r3
 8001d24:	2380      	movs	r3, #128	; 0x80
 8001d26:	045c      	lsls	r4, r3, #17
 8001d28:	230a      	movs	r3, #10
 8001d2a:	18fb      	adds	r3, r7, r3
 8001d2c:	8819      	ldrh	r1, [r3, #0]
 8001d2e:	68f8      	ldr	r0, [r7, #12]
 8001d30:	2300      	movs	r3, #0
 8001d32:	9300      	str	r3, [sp, #0]
 8001d34:	0023      	movs	r3, r4
 8001d36:	f000 fc7d 	bl	8002634 <I2C_TransferConfig>
 8001d3a:	e012      	b.n	8001d62 <HAL_I2C_Mem_Write+0x136>
    }
    else
    {
      hi2c->XferSize = hi2c->XferCount;
 8001d3c:	68fb      	ldr	r3, [r7, #12]
 8001d3e:	8d5b      	ldrh	r3, [r3, #42]	; 0x2a
 8001d40:	b29a      	uxth	r2, r3
 8001d42:	68fb      	ldr	r3, [r7, #12]
 8001d44:	851a      	strh	r2, [r3, #40]	; 0x28
      I2C_TransferConfig(hi2c, DevAddress, (uint8_t)hi2c->XferSize, I2C_AUTOEND_MODE, I2C_NO_STARTSTOP);
 8001d46:	68fb      	ldr	r3, [r7, #12]
 8001d48:	8d1b      	ldrh	r3, [r3, #40]	; 0x28
 8001d4a:	b2da      	uxtb	r2, r3
 8001d4c:	2380      	movs	r3, #128	; 0x80
 8001d4e:	049c      	lsls	r4, r3, #18
 8001d50:	230a      	movs	r3, #10
 8001d52:	18fb      	adds	r3, r7, r3
 8001d54:	8819      	ldrh	r1, [r3, #0]
 8001d56:	68f8      	ldr	r0, [r7, #12]
 8001d58:	2300      	movs	r3, #0
 8001d5a:	9300      	str	r3, [sp, #0]
 8001d5c:	0023      	movs	r3, r4
 8001d5e:	f000 fc69 	bl	8002634 <I2C_TransferConfig>
    }

    do
    {
      /* Wait until TXIS flag is set */
      if (I2C_WaitOnTXISFlagUntilTimeout(hi2c, Timeout, tickstart) != HAL_OK)
 8001d62:	697a      	ldr	r2, [r7, #20]
 8001d64:	6b39      	ldr	r1, [r7, #48]	; 0x30
 8001d66:	68fb      	ldr	r3, [r7, #12]
 8001d68:	0018      	movs	r0, r3
 8001d6a:	f000 fae8 	bl	800233e <I2C_WaitOnTXISFlagUntilTimeout>
 8001d6e:	1e03      	subs	r3, r0, #0
 8001d70:	d001      	beq.n	8001d76 <HAL_I2C_Mem_Write+0x14a>
      {
        return HAL_ERROR;
 8001d72:	2301      	movs	r3, #1
 8001d74:	e081      	b.n	8001e7a <HAL_I2C_Mem_Write+0x24e>
      }

      /* Write data to TXDR */
      hi2c->Instance->TXDR = *hi2c->pBuffPtr;
 8001d76:	68fb      	ldr	r3, [r7, #12]
 8001d78:	6a5b      	ldr	r3, [r3, #36]	; 0x24
 8001d7a:	781a      	ldrb	r2, [r3, #0]
 8001d7c:	68fb      	ldr	r3, [r7, #12]
 8001d7e:	681b      	ldr	r3, [r3, #0]
 8001d80:	629a      	str	r2, [r3, #40]	; 0x28

      /* Increment Buffer pointer */
      hi2c->pBuffPtr++;
 8001d82:	68fb      	ldr	r3, [r7, #12]
 8001d84:	6a5b      	ldr	r3, [r3, #36]	; 0x24
 8001d86:	1c5a      	adds	r2, r3, #1
 8001d88:	68fb      	ldr	r3, [r7, #12]
 8001d8a:	625a      	str	r2, [r3, #36]	; 0x24

      hi2c->XferCount--;
 8001d8c:	68fb      	ldr	r3, [r7, #12]
 8001d8e:	8d5b      	ldrh	r3, [r3, #42]	; 0x2a
 8001d90:	b29b      	uxth	r3, r3
 8001d92:	3b01      	subs	r3, #1
 8001d94:	b29a      	uxth	r2, r3
 8001d96:	68fb      	ldr	r3, [r7, #12]
 8001d98:	855a      	strh	r2, [r3, #42]	; 0x2a
      hi2c->XferSize--;
 8001d9a:	68fb      	ldr	r3, [r7, #12]
 8001d9c:	8d1b      	ldrh	r3, [r3, #40]	; 0x28
 8001d9e:	3b01      	subs	r3, #1
 8001da0:	b29a      	uxth	r2, r3
 8001da2:	68fb      	ldr	r3, [r7, #12]
 8001da4:	851a      	strh	r2, [r3, #40]	; 0x28

      if ((hi2c->XferCount != 0U) && (hi2c->XferSize == 0U))
 8001da6:	68fb      	ldr	r3, [r7, #12]
 8001da8:	8d5b      	ldrh	r3, [r3, #42]	; 0x2a
 8001daa:	b29b      	uxth	r3, r3
 8001dac:	2b00      	cmp	r3, #0
 8001dae:	d03a      	beq.n	8001e26 <HAL_I2C_Mem_Write+0x1fa>
 8001db0:	68fb      	ldr	r3, [r7, #12]
 8001db2:	8d1b      	ldrh	r3, [r3, #40]	; 0x28
 8001db4:	2b00      	cmp	r3, #0
 8001db6:	d136      	bne.n	8001e26 <HAL_I2C_Mem_Write+0x1fa>
      {
        /* Wait until TCR flag is set */
        if (I2C_WaitOnFlagUntilTimeout(hi2c, I2C_FLAG_TCR, RESET, Timeout, tickstart) != HAL_OK)
 8001db8:	6b3a      	ldr	r2, [r7, #48]	; 0x30
 8001dba:	68f8      	ldr	r0, [r7, #12]
 8001dbc:	697b      	ldr	r3, [r7, #20]
 8001dbe:	9300      	str	r3, [sp, #0]
 8001dc0:	0013      	movs	r3, r2
 8001dc2:	2200      	movs	r2, #0
 8001dc4:	2180      	movs	r1, #128	; 0x80
 8001dc6:	f000 fa7b 	bl	80022c0 <I2C_WaitOnFlagUntilTimeout>
 8001dca:	1e03      	subs	r3, r0, #0
 8001dcc:	d001      	beq.n	8001dd2 <HAL_I2C_Mem_Write+0x1a6>
        {
          return HAL_ERROR;
 8001dce:	2301      	movs	r3, #1
 8001dd0:	e053      	b.n	8001e7a <HAL_I2C_Mem_Write+0x24e>
        }

        if (hi2c->XferCount > MAX_NBYTE_SIZE)
 8001dd2:	68fb      	ldr	r3, [r7, #12]
 8001dd4:	8d5b      	ldrh	r3, [r3, #42]	; 0x2a
 8001dd6:	b29b      	uxth	r3, r3
 8001dd8:	2bff      	cmp	r3, #255	; 0xff
 8001dda:	d911      	bls.n	8001e00 <HAL_I2C_Mem_Write+0x1d4>
        {
          hi2c->XferSize = MAX_NBYTE_SIZE;
 8001ddc:	68fb      	ldr	r3, [r7, #12]
 8001dde:	22ff      	movs	r2, #255	; 0xff
 8001de0:	851a      	strh	r2, [r3, #40]	; 0x28
          I2C_TransferConfig(hi2c, DevAddress, (uint8_t)hi2c->XferSize, I2C_RELOAD_MODE,
 8001de2:	68fb      	ldr	r3, [r7, #12]
 8001de4:	8d1b      	ldrh	r3, [r3, #40]	; 0x28
 8001de6:	b2da      	uxtb	r2, r3
 8001de8:	2380      	movs	r3, #128	; 0x80
 8001dea:	045c      	lsls	r4, r3, #17
 8001dec:	230a      	movs	r3, #10
 8001dee:	18fb      	adds	r3, r7, r3
 8001df0:	8819      	ldrh	r1, [r3, #0]
 8001df2:	68f8      	ldr	r0, [r7, #12]
 8001df4:	2300      	movs	r3, #0
 8001df6:	9300      	str	r3, [sp, #0]
 8001df8:	0023      	movs	r3, r4
 8001dfa:	f000 fc1b 	bl	8002634 <I2C_TransferConfig>
 8001dfe:	e012      	b.n	8001e26 <HAL_I2C_Mem_Write+0x1fa>
                             I2C_NO_STARTSTOP);
        }
        else
        {
          hi2c->XferSize = hi2c->XferCount;
 8001e00:	68fb      	ldr	r3, [r7, #12]
 8001e02:	8d5b      	ldrh	r3, [r3, #42]	; 0x2a
 8001e04:	b29a      	uxth	r2, r3
 8001e06:	68fb      	ldr	r3, [r7, #12]
 8001e08:	851a      	strh	r2, [r3, #40]	; 0x28
          I2C_TransferConfig(hi2c, DevAddress, (uint8_t)hi2c->XferSize, I2C_AUTOEND_MODE,
 8001e0a:	68fb      	ldr	r3, [r7, #12]
 8001e0c:	8d1b      	ldrh	r3, [r3, #40]	; 0x28
 8001e0e:	b2da      	uxtb	r2, r3
 8001e10:	2380      	movs	r3, #128	; 0x80
 8001e12:	049c      	lsls	r4, r3, #18
 8001e14:	230a      	movs	r3, #10
 8001e16:	18fb      	adds	r3, r7, r3
 8001e18:	8819      	ldrh	r1, [r3, #0]
 8001e1a:	68f8      	ldr	r0, [r7, #12]
 8001e1c:	2300      	movs	r3, #0
 8001e1e:	9300      	str	r3, [sp, #0]
 8001e20:	0023      	movs	r3, r4
 8001e22:	f000 fc07 	bl	8002634 <I2C_TransferConfig>
                             I2C_NO_STARTSTOP);
        }
      }

    } while (hi2c->XferCount > 0U);
 8001e26:	68fb      	ldr	r3, [r7, #12]
 8001e28:	8d5b      	ldrh	r3, [r3, #42]	; 0x2a
 8001e2a:	b29b      	uxth	r3, r3
 8001e2c:	2b00      	cmp	r3, #0
 8001e2e:	d198      	bne.n	8001d62 <HAL_I2C_Mem_Write+0x136>

    /* No need to Check TC flag, with AUTOEND mode the stop is automatically generated */
    /* Wait until STOPF flag is reset */
    if (I2C_WaitOnSTOPFlagUntilTimeout(hi2c, Timeout, tickstart) != HAL_OK)
 8001e30:	697a      	ldr	r2, [r7, #20]
 8001e32:	6b39      	ldr	r1, [r7, #48]	; 0x30
 8001e34:	68fb      	ldr	r3, [r7, #12]
 8001e36:	0018      	movs	r0, r3
 8001e38:	f000 fac0 	bl	80023bc <I2C_WaitOnSTOPFlagUntilTimeout>
 8001e3c:	1e03      	subs	r3, r0, #0
 8001e3e:	d001      	beq.n	8001e44 <HAL_I2C_Mem_Write+0x218>
    {
      return HAL_ERROR;
 8001e40:	2301      	movs	r3, #1
 8001e42:	e01a      	b.n	8001e7a <HAL_I2C_Mem_Write+0x24e>
    }

    /* Clear STOP Flag */
    __HAL_I2C_CLEAR_FLAG(hi2c, I2C_FLAG_STOPF);
 8001e44:	68fb      	ldr	r3, [r7, #12]
 8001e46:	681b      	ldr	r3, [r3, #0]
 8001e48:	2220      	movs	r2, #32
 8001e4a:	61da      	str	r2, [r3, #28]

    /* Clear Configuration Register 2 */
    I2C_RESET_CR2(hi2c);
 8001e4c:	68fb      	ldr	r3, [r7, #12]
 8001e4e:	681b      	ldr	r3, [r3, #0]
 8001e50:	685a      	ldr	r2, [r3, #4]
 8001e52:	68fb      	ldr	r3, [r7, #12]
 8001e54:	681b      	ldr	r3, [r3, #0]
 8001e56:	490b      	ldr	r1, [pc, #44]	; (8001e84 <HAL_I2C_Mem_Write+0x258>)
 8001e58:	400a      	ands	r2, r1
 8001e5a:	605a      	str	r2, [r3, #4]

    hi2c->State = HAL_I2C_STATE_READY;
 8001e5c:	68fb      	ldr	r3, [r7, #12]
 8001e5e:	2241      	movs	r2, #65	; 0x41
 8001e60:	2120      	movs	r1, #32
 8001e62:	5499      	strb	r1, [r3, r2]
    hi2c->Mode  = HAL_I2C_MODE_NONE;
 8001e64:	68fb      	ldr	r3, [r7, #12]
 8001e66:	2242      	movs	r2, #66	; 0x42
 8001e68:	2100      	movs	r1, #0
 8001e6a:	5499      	strb	r1, [r3, r2]

    /* Process Unlocked */
    __HAL_UNLOCK(hi2c);
 8001e6c:	68fb      	ldr	r3, [r7, #12]
 8001e6e:	2240      	movs	r2, #64	; 0x40
 8001e70:	2100      	movs	r1, #0
 8001e72:	5499      	strb	r1, [r3, r2]

    return HAL_OK;
 8001e74:	2300      	movs	r3, #0
 8001e76:	e000      	b.n	8001e7a <HAL_I2C_Mem_Write+0x24e>
  }
  else
  {
    return HAL_BUSY;
 8001e78:	2302      	movs	r3, #2
  }
}
 8001e7a:	0018      	movs	r0, r3
 8001e7c:	46bd      	mov	sp, r7
 8001e7e:	b007      	add	sp, #28
 8001e80:	bd90      	pop	{r4, r7, pc}
 8001e82:	46c0      	nop			; (mov r8, r8)
 8001e84:	fe00e800 	.word	0xfe00e800

08001e88 <HAL_I2C_Mem_Read>:
  * @param  Timeout Timeout duration
  * @retval HAL status
  */
HAL_StatusTypeDef HAL_I2C_Mem_Read(I2C_HandleTypeDef *hi2c, uint16_t DevAddress, uint16_t MemAddress,
                                   uint16_t MemAddSize, uint8_t *pData, uint16_t Size, uint32_t Timeout)
{
 8001e88:	b590      	push	{r4, r7, lr}
 8001e8a:	b089      	sub	sp, #36	; 0x24
 8001e8c:	af02      	add	r7, sp, #8
 8001e8e:	60f8      	str	r0, [r7, #12]
 8001e90:	000c      	movs	r4, r1
 8001e92:	0010      	movs	r0, r2
 8001e94:	0019      	movs	r1, r3
 8001e96:	230a      	movs	r3, #10
 8001e98:	18fb      	adds	r3, r7, r3
 8001e9a:	1c22      	adds	r2, r4, #0
 8001e9c:	801a      	strh	r2, [r3, #0]
 8001e9e:	2308      	movs	r3, #8
 8001ea0:	18fb      	adds	r3, r7, r3
 8001ea2:	1c02      	adds	r2, r0, #0
 8001ea4:	801a      	strh	r2, [r3, #0]
 8001ea6:	1dbb      	adds	r3, r7, #6
 8001ea8:	1c0a      	adds	r2, r1, #0
 8001eaa:	801a      	strh	r2, [r3, #0]
  uint32_t tickstart;

  /* Check the parameters */
  assert_param(IS_I2C_MEMADD_SIZE(MemAddSize));

  if (hi2c->State == HAL_I2C_STATE_READY)
 8001eac:	68fb      	ldr	r3, [r7, #12]
 8001eae:	2241      	movs	r2, #65	; 0x41
 8001eb0:	5c9b      	ldrb	r3, [r3, r2]
 8001eb2:	b2db      	uxtb	r3, r3
 8001eb4:	2b20      	cmp	r3, #32
 8001eb6:	d000      	beq.n	8001eba <HAL_I2C_Mem_Read+0x32>
 8001eb8:	e110      	b.n	80020dc <HAL_I2C_Mem_Read+0x254>
  {
    if ((pData == NULL) || (Size == 0U))
 8001eba:	6abb      	ldr	r3, [r7, #40]	; 0x28
 8001ebc:	2b00      	cmp	r3, #0
 8001ebe:	d004      	beq.n	8001eca <HAL_I2C_Mem_Read+0x42>
 8001ec0:	232c      	movs	r3, #44	; 0x2c
 8001ec2:	18fb      	adds	r3, r7, r3
 8001ec4:	881b      	ldrh	r3, [r3, #0]
 8001ec6:	2b00      	cmp	r3, #0
 8001ec8:	d105      	bne.n	8001ed6 <HAL_I2C_Mem_Read+0x4e>
    {
      hi2c->ErrorCode = HAL_I2C_ERROR_INVALID_PARAM;
 8001eca:	68fb      	ldr	r3, [r7, #12]
 8001ecc:	2280      	movs	r2, #128	; 0x80
 8001ece:	0092      	lsls	r2, r2, #2
 8001ed0:	645a      	str	r2, [r3, #68]	; 0x44
      return  HAL_ERROR;
 8001ed2:	2301      	movs	r3, #1
 8001ed4:	e103      	b.n	80020de <HAL_I2C_Mem_Read+0x256>
    }

    /* Process Locked */
    __HAL_LOCK(hi2c);
 8001ed6:	68fb      	ldr	r3, [r7, #12]
 8001ed8:	2240      	movs	r2, #64	; 0x40
 8001eda:	5c9b      	ldrb	r3, [r3, r2]
 8001edc:	2b01      	cmp	r3, #1
 8001ede:	d101      	bne.n	8001ee4 <HAL_I2C_Mem_Read+0x5c>
 8001ee0:	2302      	movs	r3, #2
 8001ee2:	e0fc      	b.n	80020de <HAL_I2C_Mem_Read+0x256>
 8001ee4:	68fb      	ldr	r3, [r7, #12]
 8001ee6:	2240      	movs	r2, #64	; 0x40
 8001ee8:	2101      	movs	r1, #1
 8001eea:	5499      	strb	r1, [r3, r2]

    /* Init tickstart for timeout management*/
    tickstart = HAL_GetTick();
 8001eec:	f7ff fa94 	bl	8001418 <HAL_GetTick>
 8001ef0:	0003      	movs	r3, r0
 8001ef2:	617b      	str	r3, [r7, #20]

    if (I2C_WaitOnFlagUntilTimeout(hi2c, I2C_FLAG_BUSY, SET, I2C_TIMEOUT_BUSY, tickstart) != HAL_OK)
 8001ef4:	2380      	movs	r3, #128	; 0x80
 8001ef6:	0219      	lsls	r1, r3, #8
 8001ef8:	68f8      	ldr	r0, [r7, #12]
 8001efa:	697b      	ldr	r3, [r7, #20]
 8001efc:	9300      	str	r3, [sp, #0]
 8001efe:	2319      	movs	r3, #25
 8001f00:	2201      	movs	r2, #1
 8001f02:	f000 f9dd 	bl	80022c0 <I2C_WaitOnFlagUntilTimeout>
 8001f06:	1e03      	subs	r3, r0, #0
 8001f08:	d001      	beq.n	8001f0e <HAL_I2C_Mem_Read+0x86>
    {
      return HAL_ERROR;
 8001f0a:	2301      	movs	r3, #1
 8001f0c:	e0e7      	b.n	80020de <HAL_I2C_Mem_Read+0x256>
    }

    hi2c->State     = HAL_I2C_STATE_BUSY_RX;
 8001f0e:	68fb      	ldr	r3, [r7, #12]
 8001f10:	2241      	movs	r2, #65	; 0x41
 8001f12:	2122      	movs	r1, #34	; 0x22
 8001f14:	5499      	strb	r1, [r3, r2]
    hi2c->Mode      = HAL_I2C_MODE_MEM;
 8001f16:	68fb      	ldr	r3, [r7, #12]
 8001f18:	2242      	movs	r2, #66	; 0x42
 8001f1a:	2140      	movs	r1, #64	; 0x40
 8001f1c:	5499      	strb	r1, [r3, r2]
    hi2c->ErrorCode = HAL_I2C_ERROR_NONE;
 8001f1e:	68fb      	ldr	r3, [r7, #12]
 8001f20:	2200      	movs	r2, #0
 8001f22:	645a      	str	r2, [r3, #68]	; 0x44

    /* Prepare transfer parameters */
    hi2c->pBuffPtr  = pData;
 8001f24:	68fb      	ldr	r3, [r7, #12]
 8001f26:	6aba      	ldr	r2, [r7, #40]	; 0x28
 8001f28:	625a      	str	r2, [r3, #36]	; 0x24
    hi2c->XferCount = Size;
 8001f2a:	68fb      	ldr	r3, [r7, #12]
 8001f2c:	222c      	movs	r2, #44	; 0x2c
 8001f2e:	18ba      	adds	r2, r7, r2
 8001f30:	8812      	ldrh	r2, [r2, #0]
 8001f32:	855a      	strh	r2, [r3, #42]	; 0x2a
    hi2c->XferISR   = NULL;
 8001f34:	68fb      	ldr	r3, [r7, #12]
 8001f36:	2200      	movs	r2, #0
 8001f38:	635a      	str	r2, [r3, #52]	; 0x34

    /* Send Slave Address and Memory Address */
    if (I2C_RequestMemoryRead(hi2c, DevAddress, MemAddress, MemAddSize, Timeout, tickstart) != HAL_OK)
 8001f3a:	1dbb      	adds	r3, r7, #6
 8001f3c:	881c      	ldrh	r4, [r3, #0]
 8001f3e:	2308      	movs	r3, #8
 8001f40:	18fb      	adds	r3, r7, r3
 8001f42:	881a      	ldrh	r2, [r3, #0]
 8001f44:	230a      	movs	r3, #10
 8001f46:	18fb      	adds	r3, r7, r3
 8001f48:	8819      	ldrh	r1, [r3, #0]
 8001f4a:	68f8      	ldr	r0, [r7, #12]
 8001f4c:	697b      	ldr	r3, [r7, #20]
 8001f4e:	9301      	str	r3, [sp, #4]
 8001f50:	6b3b      	ldr	r3, [r7, #48]	; 0x30
 8001f52:	9300      	str	r3, [sp, #0]
 8001f54:	0023      	movs	r3, r4
 8001f56:	f000 f92f 	bl	80021b8 <I2C_RequestMemoryRead>
 8001f5a:	1e03      	subs	r3, r0, #0
 8001f5c:	d005      	beq.n	8001f6a <HAL_I2C_Mem_Read+0xe2>
    {
      /* Process Unlocked */
      __HAL_UNLOCK(hi2c);
 8001f5e:	68fb      	ldr	r3, [r7, #12]
 8001f60:	2240      	movs	r2, #64	; 0x40
 8001f62:	2100      	movs	r1, #0
 8001f64:	5499      	strb	r1, [r3, r2]
      return HAL_ERROR;
 8001f66:	2301      	movs	r3, #1
 8001f68:	e0b9      	b.n	80020de <HAL_I2C_Mem_Read+0x256>
    }

    /* Send Slave Address */
    /* Set NBYTES to write and reload if hi2c->XferCount > MAX_NBYTE_SIZE and generate RESTART */
    if (hi2c->XferCount > MAX_NBYTE_SIZE)
 8001f6a:	68fb      	ldr	r3, [r7, #12]
 8001f6c:	8d5b      	ldrh	r3, [r3, #42]	; 0x2a
 8001f6e:	b29b      	uxth	r3, r3
 8001f70:	2bff      	cmp	r3, #255	; 0xff
 8001f72:	d911      	bls.n	8001f98 <HAL_I2C_Mem_Read+0x110>
    {
      hi2c->XferSize = MAX_NBYTE_SIZE;
 8001f74:	68fb      	ldr	r3, [r7, #12]
 8001f76:	22ff      	movs	r2, #255	; 0xff
 8001f78:	851a      	strh	r2, [r3, #40]	; 0x28
      I2C_TransferConfig(hi2c, DevAddress, (uint8_t)hi2c->XferSize, I2C_RELOAD_MODE,
 8001f7a:	68fb      	ldr	r3, [r7, #12]
 8001f7c:	8d1b      	ldrh	r3, [r3, #40]	; 0x28
 8001f7e:	b2da      	uxtb	r2, r3
 8001f80:	2380      	movs	r3, #128	; 0x80
 8001f82:	045c      	lsls	r4, r3, #17
 8001f84:	230a      	movs	r3, #10
 8001f86:	18fb      	adds	r3, r7, r3
 8001f88:	8819      	ldrh	r1, [r3, #0]
 8001f8a:	68f8      	ldr	r0, [r7, #12]
 8001f8c:	4b56      	ldr	r3, [pc, #344]	; (80020e8 <HAL_I2C_Mem_Read+0x260>)
 8001f8e:	9300      	str	r3, [sp, #0]
 8001f90:	0023      	movs	r3, r4
 8001f92:	f000 fb4f 	bl	8002634 <I2C_TransferConfig>
 8001f96:	e012      	b.n	8001fbe <HAL_I2C_Mem_Read+0x136>
                         I2C_GENERATE_START_READ);
    }
    else
    {
      hi2c->XferSize = hi2c->XferCount;
 8001f98:	68fb      	ldr	r3, [r7, #12]
 8001f9a:	8d5b      	ldrh	r3, [r3, #42]	; 0x2a
 8001f9c:	b29a      	uxth	r2, r3
 8001f9e:	68fb      	ldr	r3, [r7, #12]
 8001fa0:	851a      	strh	r2, [r3, #40]	; 0x28
      I2C_TransferConfig(hi2c, DevAddress, (uint8_t)hi2c->XferSize, I2C_AUTOEND_MODE,
 8001fa2:	68fb      	ldr	r3, [r7, #12]
 8001fa4:	8d1b      	ldrh	r3, [r3, #40]	; 0x28
 8001fa6:	b2da      	uxtb	r2, r3
 8001fa8:	2380      	movs	r3, #128	; 0x80
 8001faa:	049c      	lsls	r4, r3, #18
 8001fac:	230a      	movs	r3, #10
 8001fae:	18fb      	adds	r3, r7, r3
 8001fb0:	8819      	ldrh	r1, [r3, #0]
 8001fb2:	68f8      	ldr	r0, [r7, #12]
 8001fb4:	4b4c      	ldr	r3, [pc, #304]	; (80020e8 <HAL_I2C_Mem_Read+0x260>)
 8001fb6:	9300      	str	r3, [sp, #0]
 8001fb8:	0023      	movs	r3, r4
 8001fba:	f000 fb3b 	bl	8002634 <I2C_TransferConfig>
    }

    do
    {
      /* Wait until RXNE flag is set */
      if (I2C_WaitOnFlagUntilTimeout(hi2c, I2C_FLAG_RXNE, RESET, Timeout, tickstart) != HAL_OK)
 8001fbe:	6b3a      	ldr	r2, [r7, #48]	; 0x30
 8001fc0:	68f8      	ldr	r0, [r7, #12]
 8001fc2:	697b      	ldr	r3, [r7, #20]
 8001fc4:	9300      	str	r3, [sp, #0]
 8001fc6:	0013      	movs	r3, r2
 8001fc8:	2200      	movs	r2, #0
 8001fca:	2104      	movs	r1, #4
 8001fcc:	f000 f978 	bl	80022c0 <I2C_WaitOnFlagUntilTimeout>
 8001fd0:	1e03      	subs	r3, r0, #0
 8001fd2:	d001      	beq.n	8001fd8 <HAL_I2C_Mem_Read+0x150>
      {
        return HAL_ERROR;
 8001fd4:	2301      	movs	r3, #1
 8001fd6:	e082      	b.n	80020de <HAL_I2C_Mem_Read+0x256>
      }

      /* Read data from RXDR */
      *hi2c->pBuffPtr = (uint8_t)hi2c->Instance->RXDR;
 8001fd8:	68fb      	ldr	r3, [r7, #12]
 8001fda:	681b      	ldr	r3, [r3, #0]
 8001fdc:	6a5a      	ldr	r2, [r3, #36]	; 0x24
 8001fde:	68fb      	ldr	r3, [r7, #12]
 8001fe0:	6a5b      	ldr	r3, [r3, #36]	; 0x24
 8001fe2:	b2d2      	uxtb	r2, r2
 8001fe4:	701a      	strb	r2, [r3, #0]

      /* Increment Buffer pointer */
      hi2c->pBuffPtr++;
 8001fe6:	68fb      	ldr	r3, [r7, #12]
 8001fe8:	6a5b      	ldr	r3, [r3, #36]	; 0x24
 8001fea:	1c5a      	adds	r2, r3, #1
 8001fec:	68fb      	ldr	r3, [r7, #12]
 8001fee:	625a      	str	r2, [r3, #36]	; 0x24

      hi2c->XferSize--;
 8001ff0:	68fb      	ldr	r3, [r7, #12]
 8001ff2:	8d1b      	ldrh	r3, [r3, #40]	; 0x28
 8001ff4:	3b01      	subs	r3, #1
 8001ff6:	b29a      	uxth	r2, r3
 8001ff8:	68fb      	ldr	r3, [r7, #12]
 8001ffa:	851a      	strh	r2, [r3, #40]	; 0x28
      hi2c->XferCount--;
 8001ffc:	68fb      	ldr	r3, [r7, #12]
 8001ffe:	8d5b      	ldrh	r3, [r3, #42]	; 0x2a
 8002000:	b29b      	uxth	r3, r3
 8002002:	3b01      	subs	r3, #1
 8002004:	b29a      	uxth	r2, r3
 8002006:	68fb      	ldr	r3, [r7, #12]
 8002008:	855a      	strh	r2, [r3, #42]	; 0x2a

      if ((hi2c->XferCount != 0U) && (hi2c->XferSize == 0U))
 800200a:	68fb      	ldr	r3, [r7, #12]
 800200c:	8d5b      	ldrh	r3, [r3, #42]	; 0x2a
 800200e:	b29b      	uxth	r3, r3
 8002010:	2b00      	cmp	r3, #0
 8002012:	d03a      	beq.n	800208a <HAL_I2C_Mem_Read+0x202>
 8002014:	68fb      	ldr	r3, [r7, #12]
 8002016:	8d1b      	ldrh	r3, [r3, #40]	; 0x28
 8002018:	2b00      	cmp	r3, #0
 800201a:	d136      	bne.n	800208a <HAL_I2C_Mem_Read+0x202>
      {
        /* Wait until TCR flag is set */
        if (I2C_WaitOnFlagUntilTimeout(hi2c, I2C_FLAG_TCR, RESET, Timeout, tickstart) != HAL_OK)
 800201c:	6b3a      	ldr	r2, [r7, #48]	; 0x30
 800201e:	68f8      	ldr	r0, [r7, #12]
 8002020:	697b      	ldr	r3, [r7, #20]
 8002022:	9300      	str	r3, [sp, #0]
 8002024:	0013      	movs	r3, r2
 8002026:	2200      	movs	r2, #0
 8002028:	2180      	movs	r1, #128	; 0x80
 800202a:	f000 f949 	bl	80022c0 <I2C_WaitOnFlagUntilTimeout>
 800202e:	1e03      	subs	r3, r0, #0
 8002030:	d001      	beq.n	8002036 <HAL_I2C_Mem_Read+0x1ae>
        {
          return HAL_ERROR;
 8002032:	2301      	movs	r3, #1
 8002034:	e053      	b.n	80020de <HAL_I2C_Mem_Read+0x256>
        }

        if (hi2c->XferCount > MAX_NBYTE_SIZE)
 8002036:	68fb      	ldr	r3, [r7, #12]
 8002038:	8d5b      	ldrh	r3, [r3, #42]	; 0x2a
 800203a:	b29b      	uxth	r3, r3
 800203c:	2bff      	cmp	r3, #255	; 0xff
 800203e:	d911      	bls.n	8002064 <HAL_I2C_Mem_Read+0x1dc>
        {
          hi2c->XferSize = MAX_NBYTE_SIZE;
 8002040:	68fb      	ldr	r3, [r7, #12]
 8002042:	22ff      	movs	r2, #255	; 0xff
 8002044:	851a      	strh	r2, [r3, #40]	; 0x28
          I2C_TransferConfig(hi2c, DevAddress, (uint8_t) hi2c->XferSize, I2C_RELOAD_MODE,
 8002046:	68fb      	ldr	r3, [r7, #12]
 8002048:	8d1b      	ldrh	r3, [r3, #40]	; 0x28
 800204a:	b2da      	uxtb	r2, r3
 800204c:	2380      	movs	r3, #128	; 0x80
 800204e:	045c      	lsls	r4, r3, #17
 8002050:	230a      	movs	r3, #10
 8002052:	18fb      	adds	r3, r7, r3
 8002054:	8819      	ldrh	r1, [r3, #0]
 8002056:	68f8      	ldr	r0, [r7, #12]
 8002058:	2300      	movs	r3, #0
 800205a:	9300      	str	r3, [sp, #0]
 800205c:	0023      	movs	r3, r4
 800205e:	f000 fae9 	bl	8002634 <I2C_TransferConfig>
 8002062:	e012      	b.n	800208a <HAL_I2C_Mem_Read+0x202>
                             I2C_NO_STARTSTOP);
        }
        else
        {
          hi2c->XferSize = hi2c->XferCount;
 8002064:	68fb      	ldr	r3, [r7, #12]
 8002066:	8d5b      	ldrh	r3, [r3, #42]	; 0x2a
 8002068:	b29a      	uxth	r2, r3
 800206a:	68fb      	ldr	r3, [r7, #12]
 800206c:	851a      	strh	r2, [r3, #40]	; 0x28
          I2C_TransferConfig(hi2c, DevAddress, (uint8_t)hi2c->XferSize, I2C_AUTOEND_MODE,
 800206e:	68fb      	ldr	r3, [r7, #12]
 8002070:	8d1b      	ldrh	r3, [r3, #40]	; 0x28
 8002072:	b2da      	uxtb	r2, r3
 8002074:	2380      	movs	r3, #128	; 0x80
 8002076:	049c      	lsls	r4, r3, #18
 8002078:	230a      	movs	r3, #10
 800207a:	18fb      	adds	r3, r7, r3
 800207c:	8819      	ldrh	r1, [r3, #0]
 800207e:	68f8      	ldr	r0, [r7, #12]
 8002080:	2300      	movs	r3, #0
 8002082:	9300      	str	r3, [sp, #0]
 8002084:	0023      	movs	r3, r4
 8002086:	f000 fad5 	bl	8002634 <I2C_TransferConfig>
                             I2C_NO_STARTSTOP);
        }
      }
    } while (hi2c->XferCount > 0U);
 800208a:	68fb      	ldr	r3, [r7, #12]
 800208c:	8d5b      	ldrh	r3, [r3, #42]	; 0x2a
 800208e:	b29b      	uxth	r3, r3
 8002090:	2b00      	cmp	r3, #0
 8002092:	d194      	bne.n	8001fbe <HAL_I2C_Mem_Read+0x136>

    /* No need to Check TC flag, with AUTOEND mode the stop is automatically generated */
    /* Wait until STOPF flag is reset */
    if (I2C_WaitOnSTOPFlagUntilTimeout(hi2c, Timeout, tickstart) != HAL_OK)
 8002094:	697a      	ldr	r2, [r7, #20]
 8002096:	6b39      	ldr	r1, [r7, #48]	; 0x30
 8002098:	68fb      	ldr	r3, [r7, #12]
 800209a:	0018      	movs	r0, r3
 800209c:	f000 f98e 	bl	80023bc <I2C_WaitOnSTOPFlagUntilTimeout>
 80020a0:	1e03      	subs	r3, r0, #0
 80020a2:	d001      	beq.n	80020a8 <HAL_I2C_Mem_Read+0x220>
    {
      return HAL_ERROR;
 80020a4:	2301      	movs	r3, #1
 80020a6:	e01a      	b.n	80020de <HAL_I2C_Mem_Read+0x256>
    }

    /* Clear STOP Flag */
    __HAL_I2C_CLEAR_FLAG(hi2c, I2C_FLAG_STOPF);
 80020a8:	68fb      	ldr	r3, [r7, #12]
 80020aa:	681b      	ldr	r3, [r3, #0]
 80020ac:	2220      	movs	r2, #32
 80020ae:	61da      	str	r2, [r3, #28]

    /* Clear Configuration Register 2 */
    I2C_RESET_CR2(hi2c);
 80020b0:	68fb      	ldr	r3, [r7, #12]
 80020b2:	681b      	ldr	r3, [r3, #0]
 80020b4:	685a      	ldr	r2, [r3, #4]
 80020b6:	68fb      	ldr	r3, [r7, #12]
 80020b8:	681b      	ldr	r3, [r3, #0]
 80020ba:	490c      	ldr	r1, [pc, #48]	; (80020ec <HAL_I2C_Mem_Read+0x264>)
 80020bc:	400a      	ands	r2, r1
 80020be:	605a      	str	r2, [r3, #4]

    hi2c->State = HAL_I2C_STATE_READY;
 80020c0:	68fb      	ldr	r3, [r7, #12]
 80020c2:	2241      	movs	r2, #65	; 0x41
 80020c4:	2120      	movs	r1, #32
 80020c6:	5499      	strb	r1, [r3, r2]
    hi2c->Mode  = HAL_I2C_MODE_NONE;
 80020c8:	68fb      	ldr	r3, [r7, #12]
 80020ca:	2242      	movs	r2, #66	; 0x42
 80020cc:	2100      	movs	r1, #0
 80020ce:	5499      	strb	r1, [r3, r2]

    /* Process Unlocked */
    __HAL_UNLOCK(hi2c);
 80020d0:	68fb      	ldr	r3, [r7, #12]
 80020d2:	2240      	movs	r2, #64	; 0x40
 80020d4:	2100      	movs	r1, #0
 80020d6:	5499      	strb	r1, [r3, r2]

    return HAL_OK;
 80020d8:	2300      	movs	r3, #0
 80020da:	e000      	b.n	80020de <HAL_I2C_Mem_Read+0x256>
  }
  else
  {
    return HAL_BUSY;
 80020dc:	2302      	movs	r3, #2
  }
}
 80020de:	0018      	movs	r0, r3
 80020e0:	46bd      	mov	sp, r7
 80020e2:	b007      	add	sp, #28
 80020e4:	bd90      	pop	{r4, r7, pc}
 80020e6:	46c0      	nop			; (mov r8, r8)
 80020e8:	80002400 	.word	0x80002400
 80020ec:	fe00e800 	.word	0xfe00e800

080020f0 <I2C_RequestMemoryWrite>:
  * @retval HAL status
  */
static HAL_StatusTypeDef I2C_RequestMemoryWrite(I2C_HandleTypeDef *hi2c, uint16_t DevAddress,
                                                uint16_t MemAddress, uint16_t MemAddSize, uint32_t Timeout,
                                                uint32_t Tickstart)
{
 80020f0:	b5b0      	push	{r4, r5, r7, lr}
 80020f2:	b086      	sub	sp, #24
 80020f4:	af02      	add	r7, sp, #8
 80020f6:	60f8      	str	r0, [r7, #12]
 80020f8:	000c      	movs	r4, r1
 80020fa:	0010      	movs	r0, r2
 80020fc:	0019      	movs	r1, r3
 80020fe:	250a      	movs	r5, #10
 8002100:	197b      	adds	r3, r7, r5
 8002102:	1c22      	adds	r2, r4, #0
 8002104:	801a      	strh	r2, [r3, #0]
 8002106:	2308      	movs	r3, #8
 8002108:	18fb      	adds	r3, r7, r3
 800210a:	1c02      	adds	r2, r0, #0
 800210c:	801a      	strh	r2, [r3, #0]
 800210e:	1dbb      	adds	r3, r7, #6
 8002110:	1c0a      	adds	r2, r1, #0
 8002112:	801a      	strh	r2, [r3, #0]
  I2C_TransferConfig(hi2c, DevAddress, (uint8_t)MemAddSize, I2C_RELOAD_MODE, I2C_GENERATE_START_WRITE);
 8002114:	1dbb      	adds	r3, r7, #6
 8002116:	881b      	ldrh	r3, [r3, #0]
 8002118:	b2da      	uxtb	r2, r3
 800211a:	2380      	movs	r3, #128	; 0x80
 800211c:	045c      	lsls	r4, r3, #17
 800211e:	197b      	adds	r3, r7, r5
 8002120:	8819      	ldrh	r1, [r3, #0]
 8002122:	68f8      	ldr	r0, [r7, #12]
 8002124:	4b23      	ldr	r3, [pc, #140]	; (80021b4 <I2C_RequestMemoryWrite+0xc4>)
 8002126:	9300      	str	r3, [sp, #0]
 8002128:	0023      	movs	r3, r4
 800212a:	f000 fa83 	bl	8002634 <I2C_TransferConfig>

  /* Wait until TXIS flag is set */
  if (I2C_WaitOnTXISFlagUntilTimeout(hi2c, Timeout, Tickstart) != HAL_OK)
 800212e:	6a7a      	ldr	r2, [r7, #36]	; 0x24
 8002130:	6a39      	ldr	r1, [r7, #32]
 8002132:	68fb      	ldr	r3, [r7, #12]
 8002134:	0018      	movs	r0, r3
 8002136:	f000 f902 	bl	800233e <I2C_WaitOnTXISFlagUntilTimeout>
 800213a:	1e03      	subs	r3, r0, #0
 800213c:	d001      	beq.n	8002142 <I2C_RequestMemoryWrite+0x52>
  {
    return HAL_ERROR;
 800213e:	2301      	movs	r3, #1
 8002140:	e033      	b.n	80021aa <I2C_RequestMemoryWrite+0xba>
  }

  /* If Memory address size is 8Bit */
  if (MemAddSize == I2C_MEMADD_SIZE_8BIT)
 8002142:	1dbb      	adds	r3, r7, #6
 8002144:	881b      	ldrh	r3, [r3, #0]
 8002146:	2b01      	cmp	r3, #1
 8002148:	d107      	bne.n	800215a <I2C_RequestMemoryWrite+0x6a>
  {
    /* Send Memory Address */
    hi2c->Instance->TXDR = I2C_MEM_ADD_LSB(MemAddress);
 800214a:	2308      	movs	r3, #8
 800214c:	18fb      	adds	r3, r7, r3
 800214e:	881b      	ldrh	r3, [r3, #0]
 8002150:	b2da      	uxtb	r2, r3
 8002152:	68fb      	ldr	r3, [r7, #12]
 8002154:	681b      	ldr	r3, [r3, #0]
 8002156:	629a      	str	r2, [r3, #40]	; 0x28
 8002158:	e019      	b.n	800218e <I2C_RequestMemoryWrite+0x9e>
  }
  /* If Memory address size is 16Bit */
  else
  {
    /* Send MSB of Memory Address */
    hi2c->Instance->TXDR = I2C_MEM_ADD_MSB(MemAddress);
 800215a:	2308      	movs	r3, #8
 800215c:	18fb      	adds	r3, r7, r3
 800215e:	881b      	ldrh	r3, [r3, #0]
 8002160:	0a1b      	lsrs	r3, r3, #8
 8002162:	b29b      	uxth	r3, r3
 8002164:	b2da      	uxtb	r2, r3
 8002166:	68fb      	ldr	r3, [r7, #12]
 8002168:	681b      	ldr	r3, [r3, #0]
 800216a:	629a      	str	r2, [r3, #40]	; 0x28

    /* Wait until TXIS flag is set */
    if (I2C_WaitOnTXISFlagUntilTimeout(hi2c, Timeout, Tickstart) != HAL_OK)
 800216c:	6a7a      	ldr	r2, [r7, #36]	; 0x24
 800216e:	6a39      	ldr	r1, [r7, #32]
 8002170:	68fb      	ldr	r3, [r7, #12]
 8002172:	0018      	movs	r0, r3
 8002174:	f000 f8e3 	bl	800233e <I2C_WaitOnTXISFlagUntilTimeout>
 8002178:	1e03      	subs	r3, r0, #0
 800217a:	d001      	beq.n	8002180 <I2C_RequestMemoryWrite+0x90>
    {
      return HAL_ERROR;
 800217c:	2301      	movs	r3, #1
 800217e:	e014      	b.n	80021aa <I2C_RequestMemoryWrite+0xba>
    }

    /* Send LSB of Memory Address */
    hi2c->Instance->TXDR = I2C_MEM_ADD_LSB(MemAddress);
 8002180:	2308      	movs	r3, #8
 8002182:	18fb      	adds	r3, r7, r3
 8002184:	881b      	ldrh	r3, [r3, #0]
 8002186:	b2da      	uxtb	r2, r3
 8002188:	68fb      	ldr	r3, [r7, #12]
 800218a:	681b      	ldr	r3, [r3, #0]
 800218c:	629a      	str	r2, [r3, #40]	; 0x28
  }

  /* Wait until TCR flag is set */
  if (I2C_WaitOnFlagUntilTimeout(hi2c, I2C_FLAG_TCR, RESET, Timeout, Tickstart) != HAL_OK)
 800218e:	6a3a      	ldr	r2, [r7, #32]
 8002190:	68f8      	ldr	r0, [r7, #12]
 8002192:	6a7b      	ldr	r3, [r7, #36]	; 0x24
 8002194:	9300      	str	r3, [sp, #0]
 8002196:	0013      	movs	r3, r2
 8002198:	2200      	movs	r2, #0
 800219a:	2180      	movs	r1, #128	; 0x80
 800219c:	f000 f890 	bl	80022c0 <I2C_WaitOnFlagUntilTimeout>
 80021a0:	1e03      	subs	r3, r0, #0
 80021a2:	d001      	beq.n	80021a8 <I2C_RequestMemoryWrite+0xb8>
  {
    return HAL_ERROR;
 80021a4:	2301      	movs	r3, #1
 80021a6:	e000      	b.n	80021aa <I2C_RequestMemoryWrite+0xba>
  }

  return HAL_OK;
 80021a8:	2300      	movs	r3, #0
}
 80021aa:	0018      	movs	r0, r3
 80021ac:	46bd      	mov	sp, r7
 80021ae:	b004      	add	sp, #16
 80021b0:	bdb0      	pop	{r4, r5, r7, pc}
 80021b2:	46c0      	nop			; (mov r8, r8)
 80021b4:	80002000 	.word	0x80002000

080021b8 <I2C_RequestMemoryRead>:
  * @retval HAL status
  */
static HAL_StatusTypeDef I2C_RequestMemoryRead(I2C_HandleTypeDef *hi2c, uint16_t DevAddress,
                                               uint16_t MemAddress, uint16_t MemAddSize, uint32_t Timeout,
                                               uint32_t Tickstart)
{
 80021b8:	b5b0      	push	{r4, r5, r7, lr}
 80021ba:	b086      	sub	sp, #24
 80021bc:	af02      	add	r7, sp, #8
 80021be:	60f8      	str	r0, [r7, #12]
 80021c0:	000c      	movs	r4, r1
 80021c2:	0010      	movs	r0, r2
 80021c4:	0019      	movs	r1, r3
 80021c6:	250a      	movs	r5, #10
 80021c8:	197b      	adds	r3, r7, r5
 80021ca:	1c22      	adds	r2, r4, #0
 80021cc:	801a      	strh	r2, [r3, #0]
 80021ce:	2308      	movs	r3, #8
 80021d0:	18fb      	adds	r3, r7, r3
 80021d2:	1c02      	adds	r2, r0, #0
 80021d4:	801a      	strh	r2, [r3, #0]
 80021d6:	1dbb      	adds	r3, r7, #6
 80021d8:	1c0a      	adds	r2, r1, #0
 80021da:	801a      	strh	r2, [r3, #0]
  I2C_TransferConfig(hi2c, DevAddress, (uint8_t)MemAddSize, I2C_SOFTEND_MODE, I2C_GENERATE_START_WRITE);
 80021dc:	1dbb      	adds	r3, r7, #6
 80021de:	881b      	ldrh	r3, [r3, #0]
 80021e0:	b2da      	uxtb	r2, r3
 80021e2:	197b      	adds	r3, r7, r5
 80021e4:	8819      	ldrh	r1, [r3, #0]
 80021e6:	68f8      	ldr	r0, [r7, #12]
 80021e8:	4b23      	ldr	r3, [pc, #140]	; (8002278 <I2C_RequestMemoryRead+0xc0>)
 80021ea:	9300      	str	r3, [sp, #0]
 80021ec:	2300      	movs	r3, #0
 80021ee:	f000 fa21 	bl	8002634 <I2C_TransferConfig>

  /* Wait until TXIS flag is set */
  if (I2C_WaitOnTXISFlagUntilTimeout(hi2c, Timeout, Tickstart) != HAL_OK)
 80021f2:	6a7a      	ldr	r2, [r7, #36]	; 0x24
 80021f4:	6a39      	ldr	r1, [r7, #32]
 80021f6:	68fb      	ldr	r3, [r7, #12]
 80021f8:	0018      	movs	r0, r3
 80021fa:	f000 f8a0 	bl	800233e <I2C_WaitOnTXISFlagUntilTimeout>
 80021fe:	1e03      	subs	r3, r0, #0
 8002200:	d001      	beq.n	8002206 <I2C_RequestMemoryRead+0x4e>
  {
    return HAL_ERROR;
 8002202:	2301      	movs	r3, #1
 8002204:	e033      	b.n	800226e <I2C_RequestMemoryRead+0xb6>
  }

  /* If Memory address size is 8Bit */
  if (MemAddSize == I2C_MEMADD_SIZE_8BIT)
 8002206:	1dbb      	adds	r3, r7, #6
 8002208:	881b      	ldrh	r3, [r3, #0]
 800220a:	2b01      	cmp	r3, #1
 800220c:	d107      	bne.n	800221e <I2C_RequestMemoryRead+0x66>
  {
    /* Send Memory Address */
    hi2c->Instance->TXDR = I2C_MEM_ADD_LSB(MemAddress);
 800220e:	2308      	movs	r3, #8
 8002210:	18fb      	adds	r3, r7, r3
 8002212:	881b      	ldrh	r3, [r3, #0]
 8002214:	b2da      	uxtb	r2, r3
 8002216:	68fb      	ldr	r3, [r7, #12]
 8002218:	681b      	ldr	r3, [r3, #0]
 800221a:	629a      	str	r2, [r3, #40]	; 0x28
 800221c:	e019      	b.n	8002252 <I2C_RequestMemoryRead+0x9a>
  }
  /* If Memory address size is 16Bit */
  else
  {
    /* Send MSB of Memory Address */
    hi2c->Instance->TXDR = I2C_MEM_ADD_MSB(MemAddress);
 800221e:	2308      	movs	r3, #8
 8002220:	18fb      	adds	r3, r7, r3
 8002222:	881b      	ldrh	r3, [r3, #0]
 8002224:	0a1b      	lsrs	r3, r3, #8
 8002226:	b29b      	uxth	r3, r3
 8002228:	b2da      	uxtb	r2, r3
 800222a:	68fb      	ldr	r3, [r7, #12]
 800222c:	681b      	ldr	r3, [r3, #0]
 800222e:	629a      	str	r2, [r3, #40]	; 0x28

    /* Wait until TXIS flag is set */
    if (I2C_WaitOnTXISFlagUntilTimeout(hi2c, Timeout, Tickstart) != HAL_OK)
 8002230:	6a7a      	ldr	r2, [r7, #36]	; 0x24
 8002232:	6a39      	ldr	r1, [r7, #32]
 8002234:	68fb      	ldr	r3, [r7, #12]
 8002236:	0018      	movs	r0, r3
 8002238:	f000 f881 	bl	800233e <I2C_WaitOnTXISFlagUntilTimeout>
 800223c:	1e03      	subs	r3, r0, #0
 800223e:	d001      	beq.n	8002244 <I2C_RequestMemoryRead+0x8c>
    {
      return HAL_ERROR;
 8002240:	2301      	movs	r3, #1
 8002242:	e014      	b.n	800226e <I2C_RequestMemoryRead+0xb6>
    }

    /* Send LSB of Memory Address */
    hi2c->Instance->TXDR = I2C_MEM_ADD_LSB(MemAddress);
 8002244:	2308      	movs	r3, #8
 8002246:	18fb      	adds	r3, r7, r3
 8002248:	881b      	ldrh	r3, [r3, #0]
 800224a:	b2da      	uxtb	r2, r3
 800224c:	68fb      	ldr	r3, [r7, #12]
 800224e:	681b      	ldr	r3, [r3, #0]
 8002250:	629a      	str	r2, [r3, #40]	; 0x28
  }

  /* Wait until TC flag is set */
  if (I2C_WaitOnFlagUntilTimeout(hi2c, I2C_FLAG_TC, RESET, Timeout, Tickstart) != HAL_OK)
 8002252:	6a3a      	ldr	r2, [r7, #32]
 8002254:	68f8      	ldr	r0, [r7, #12]
 8002256:	6a7b      	ldr	r3, [r7, #36]	; 0x24
 8002258:	9300      	str	r3, [sp, #0]
 800225a:	0013      	movs	r3, r2
 800225c:	2200      	movs	r2, #0
 800225e:	2140      	movs	r1, #64	; 0x40
 8002260:	f000 f82e 	bl	80022c0 <I2C_WaitOnFlagUntilTimeout>
 8002264:	1e03      	subs	r3, r0, #0
 8002266:	d001      	beq.n	800226c <I2C_RequestMemoryRead+0xb4>
  {
    return HAL_ERROR;
 8002268:	2301      	movs	r3, #1
 800226a:	e000      	b.n	800226e <I2C_RequestMemoryRead+0xb6>
  }

  return HAL_OK;
 800226c:	2300      	movs	r3, #0
}
 800226e:	0018      	movs	r0, r3
 8002270:	46bd      	mov	sp, r7
 8002272:	b004      	add	sp, #16
 8002274:	bdb0      	pop	{r4, r5, r7, pc}
 8002276:	46c0      	nop			; (mov r8, r8)
 8002278:	80002000 	.word	0x80002000

0800227c <I2C_Flush_TXDR>:
  * @brief  I2C Tx data register flush process.
  * @param  hi2c I2C handle.
  * @retval None
  */
static void I2C_Flush_TXDR(I2C_HandleTypeDef *hi2c)
{
 800227c:	b580      	push	{r7, lr}
 800227e:	b082      	sub	sp, #8
 8002280:	af00      	add	r7, sp, #0
 8002282:	6078      	str	r0, [r7, #4]
  /* If a pending TXIS flag is set */
  /* Write a dummy data in TXDR to clear it */
  if (__HAL_I2C_GET_FLAG(hi2c, I2C_FLAG_TXIS) != RESET)
 8002284:	687b      	ldr	r3, [r7, #4]
 8002286:	681b      	ldr	r3, [r3, #0]
 8002288:	699b      	ldr	r3, [r3, #24]
 800228a:	2202      	movs	r2, #2
 800228c:	4013      	ands	r3, r2
 800228e:	2b02      	cmp	r3, #2
 8002290:	d103      	bne.n	800229a <I2C_Flush_TXDR+0x1e>
  {
    hi2c->Instance->TXDR = 0x00U;
 8002292:	687b      	ldr	r3, [r7, #4]
 8002294:	681b      	ldr	r3, [r3, #0]
 8002296:	2200      	movs	r2, #0
 8002298:	629a      	str	r2, [r3, #40]	; 0x28
  }

  /* Flush TX register if not empty */
  if (__HAL_I2C_GET_FLAG(hi2c, I2C_FLAG_TXE) == RESET)
 800229a:	687b      	ldr	r3, [r7, #4]
 800229c:	681b      	ldr	r3, [r3, #0]
 800229e:	699b      	ldr	r3, [r3, #24]
 80022a0:	2201      	movs	r2, #1
 80022a2:	4013      	ands	r3, r2
 80022a4:	2b01      	cmp	r3, #1
 80022a6:	d007      	beq.n	80022b8 <I2C_Flush_TXDR+0x3c>
  {
    __HAL_I2C_CLEAR_FLAG(hi2c, I2C_FLAG_TXE);
 80022a8:	687b      	ldr	r3, [r7, #4]
 80022aa:	681b      	ldr	r3, [r3, #0]
 80022ac:	699a      	ldr	r2, [r3, #24]
 80022ae:	687b      	ldr	r3, [r7, #4]
 80022b0:	681b      	ldr	r3, [r3, #0]
 80022b2:	2101      	movs	r1, #1
 80022b4:	430a      	orrs	r2, r1
 80022b6:	619a      	str	r2, [r3, #24]
  }
}
 80022b8:	46c0      	nop			; (mov r8, r8)
 80022ba:	46bd      	mov	sp, r7
 80022bc:	b002      	add	sp, #8
 80022be:	bd80      	pop	{r7, pc}

080022c0 <I2C_WaitOnFlagUntilTimeout>:
  * @param  Tickstart Tick start value
  * @retval HAL status
  */
static HAL_StatusTypeDef I2C_WaitOnFlagUntilTimeout(I2C_HandleTypeDef *hi2c, uint32_t Flag, FlagStatus Status,
                                                    uint32_t Timeout, uint32_t Tickstart)
{
 80022c0:	b580      	push	{r7, lr}
 80022c2:	b084      	sub	sp, #16
 80022c4:	af00      	add	r7, sp, #0
 80022c6:	60f8      	str	r0, [r7, #12]
 80022c8:	60b9      	str	r1, [r7, #8]
 80022ca:	603b      	str	r3, [r7, #0]
 80022cc:	1dfb      	adds	r3, r7, #7
 80022ce:	701a      	strb	r2, [r3, #0]
  while (__HAL_I2C_GET_FLAG(hi2c, Flag) == Status)
 80022d0:	e021      	b.n	8002316 <I2C_WaitOnFlagUntilTimeout+0x56>
  {
    /* Check for the Timeout */
    if (Timeout != HAL_MAX_DELAY)
 80022d2:	683b      	ldr	r3, [r7, #0]
 80022d4:	3301      	adds	r3, #1
 80022d6:	d01e      	beq.n	8002316 <I2C_WaitOnFlagUntilTimeout+0x56>
    {
      if (((HAL_GetTick() - Tickstart) > Timeout) || (Timeout == 0U))
 80022d8:	f7ff f89e 	bl	8001418 <HAL_GetTick>
 80022dc:	0002      	movs	r2, r0
 80022de:	69bb      	ldr	r3, [r7, #24]
 80022e0:	1ad3      	subs	r3, r2, r3
 80022e2:	683a      	ldr	r2, [r7, #0]
 80022e4:	429a      	cmp	r2, r3
 80022e6:	d302      	bcc.n	80022ee <I2C_WaitOnFlagUntilTimeout+0x2e>
 80022e8:	683b      	ldr	r3, [r7, #0]
 80022ea:	2b00      	cmp	r3, #0
 80022ec:	d113      	bne.n	8002316 <I2C_WaitOnFlagUntilTimeout+0x56>
      {
        hi2c->ErrorCode |= HAL_I2C_ERROR_TIMEOUT;
 80022ee:	68fb      	ldr	r3, [r7, #12]
 80022f0:	6c5b      	ldr	r3, [r3, #68]	; 0x44
 80022f2:	2220      	movs	r2, #32
 80022f4:	431a      	orrs	r2, r3
 80022f6:	68fb      	ldr	r3, [r7, #12]
 80022f8:	645a      	str	r2, [r3, #68]	; 0x44
        hi2c->State = HAL_I2C_STATE_READY;
 80022fa:	68fb      	ldr	r3, [r7, #12]
 80022fc:	2241      	movs	r2, #65	; 0x41
 80022fe:	2120      	movs	r1, #32
 8002300:	5499      	strb	r1, [r3, r2]
        hi2c->Mode = HAL_I2C_MODE_NONE;
 8002302:	68fb      	ldr	r3, [r7, #12]
 8002304:	2242      	movs	r2, #66	; 0x42
 8002306:	2100      	movs	r1, #0
 8002308:	5499      	strb	r1, [r3, r2]

        /* Process Unlocked */
        __HAL_UNLOCK(hi2c);
 800230a:	68fb      	ldr	r3, [r7, #12]
 800230c:	2240      	movs	r2, #64	; 0x40
 800230e:	2100      	movs	r1, #0
 8002310:	5499      	strb	r1, [r3, r2]
        return HAL_ERROR;
 8002312:	2301      	movs	r3, #1
 8002314:	e00f      	b.n	8002336 <I2C_WaitOnFlagUntilTimeout+0x76>
  while (__HAL_I2C_GET_FLAG(hi2c, Flag) == Status)
 8002316:	68fb      	ldr	r3, [r7, #12]
 8002318:	681b      	ldr	r3, [r3, #0]
 800231a:	699b      	ldr	r3, [r3, #24]
 800231c:	68ba      	ldr	r2, [r7, #8]
 800231e:	4013      	ands	r3, r2
 8002320:	68ba      	ldr	r2, [r7, #8]
 8002322:	1ad3      	subs	r3, r2, r3
 8002324:	425a      	negs	r2, r3
 8002326:	4153      	adcs	r3, r2
 8002328:	b2db      	uxtb	r3, r3
 800232a:	001a      	movs	r2, r3
 800232c:	1dfb      	adds	r3, r7, #7
 800232e:	781b      	ldrb	r3, [r3, #0]
 8002330:	429a      	cmp	r2, r3
 8002332:	d0ce      	beq.n	80022d2 <I2C_WaitOnFlagUntilTimeout+0x12>
      }
    }
  }
  return HAL_OK;
 8002334:	2300      	movs	r3, #0
}
 8002336:	0018      	movs	r0, r3
 8002338:	46bd      	mov	sp, r7
 800233a:	b004      	add	sp, #16
 800233c:	bd80      	pop	{r7, pc}

0800233e <I2C_WaitOnTXISFlagUntilTimeout>:
  * @param  Tickstart Tick start value
  * @retval HAL status
  */
static HAL_StatusTypeDef I2C_WaitOnTXISFlagUntilTimeout(I2C_HandleTypeDef *hi2c, uint32_t Timeout,
                                                        uint32_t Tickstart)
{
 800233e:	b580      	push	{r7, lr}
 8002340:	b084      	sub	sp, #16
 8002342:	af00      	add	r7, sp, #0
 8002344:	60f8      	str	r0, [r7, #12]
 8002346:	60b9      	str	r1, [r7, #8]
 8002348:	607a      	str	r2, [r7, #4]
  while (__HAL_I2C_GET_FLAG(hi2c, I2C_FLAG_TXIS) == RESET)
 800234a:	e02b      	b.n	80023a4 <I2C_WaitOnTXISFlagUntilTimeout+0x66>
  {
    /* Check if an error is detected */
    if (I2C_IsErrorOccurred(hi2c, Timeout, Tickstart) != HAL_OK)
 800234c:	687a      	ldr	r2, [r7, #4]
 800234e:	68b9      	ldr	r1, [r7, #8]
 8002350:	68fb      	ldr	r3, [r7, #12]
 8002352:	0018      	movs	r0, r3
 8002354:	f000 f86e 	bl	8002434 <I2C_IsErrorOccurred>
 8002358:	1e03      	subs	r3, r0, #0
 800235a:	d001      	beq.n	8002360 <I2C_WaitOnTXISFlagUntilTimeout+0x22>
    {
      return HAL_ERROR;
 800235c:	2301      	movs	r3, #1
 800235e:	e029      	b.n	80023b4 <I2C_WaitOnTXISFlagUntilTimeout+0x76>
    }

    /* Check for the Timeout */
    if (Timeout != HAL_MAX_DELAY)
 8002360:	68bb      	ldr	r3, [r7, #8]
 8002362:	3301      	adds	r3, #1
 8002364:	d01e      	beq.n	80023a4 <I2C_WaitOnTXISFlagUntilTimeout+0x66>
    {
      if (((HAL_GetTick() - Tickstart) > Timeout) || (Timeout == 0U))
 8002366:	f7ff f857 	bl	8001418 <HAL_GetTick>
 800236a:	0002      	movs	r2, r0
 800236c:	687b      	ldr	r3, [r7, #4]
 800236e:	1ad3      	subs	r3, r2, r3
 8002370:	68ba      	ldr	r2, [r7, #8]
 8002372:	429a      	cmp	r2, r3
 8002374:	d302      	bcc.n	800237c <I2C_WaitOnTXISFlagUntilTimeout+0x3e>
 8002376:	68bb      	ldr	r3, [r7, #8]
 8002378:	2b00      	cmp	r3, #0
 800237a:	d113      	bne.n	80023a4 <I2C_WaitOnTXISFlagUntilTimeout+0x66>
      {
        hi2c->ErrorCode |= HAL_I2C_ERROR_TIMEOUT;
 800237c:	68fb      	ldr	r3, [r7, #12]
 800237e:	6c5b      	ldr	r3, [r3, #68]	; 0x44
 8002380:	2220      	movs	r2, #32
 8002382:	431a      	orrs	r2, r3
 8002384:	68fb      	ldr	r3, [r7, #12]
 8002386:	645a      	str	r2, [r3, #68]	; 0x44
        hi2c->State = HAL_I2C_STATE_READY;
 8002388:	68fb      	ldr	r3, [r7, #12]
 800238a:	2241      	movs	r2, #65	; 0x41
 800238c:	2120      	movs	r1, #32
 800238e:	5499      	strb	r1, [r3, r2]
        hi2c->Mode = HAL_I2C_MODE_NONE;
 8002390:	68fb      	ldr	r3, [r7, #12]
 8002392:	2242      	movs	r2, #66	; 0x42
 8002394:	2100      	movs	r1, #0
 8002396:	5499      	strb	r1, [r3, r2]

        /* Process Unlocked */
        __HAL_UNLOCK(hi2c);
 8002398:	68fb      	ldr	r3, [r7, #12]
 800239a:	2240      	movs	r2, #64	; 0x40
 800239c:	2100      	movs	r1, #0
 800239e:	5499      	strb	r1, [r3, r2]

        return HAL_ERROR;
 80023a0:	2301      	movs	r3, #1
 80023a2:	e007      	b.n	80023b4 <I2C_WaitOnTXISFlagUntilTimeout+0x76>
  while (__HAL_I2C_GET_FLAG(hi2c, I2C_FLAG_TXIS) == RESET)
 80023a4:	68fb      	ldr	r3, [r7, #12]
 80023a6:	681b      	ldr	r3, [r3, #0]
 80023a8:	699b      	ldr	r3, [r3, #24]
 80023aa:	2202      	movs	r2, #2
 80023ac:	4013      	ands	r3, r2
 80023ae:	2b02      	cmp	r3, #2
 80023b0:	d1cc      	bne.n	800234c <I2C_WaitOnTXISFlagUntilTimeout+0xe>
      }
    }
  }
  return HAL_OK;
 80023b2:	2300      	movs	r3, #0
}
 80023b4:	0018      	movs	r0, r3
 80023b6:	46bd      	mov	sp, r7
 80023b8:	b004      	add	sp, #16
 80023ba:	bd80      	pop	{r7, pc}

080023bc <I2C_WaitOnSTOPFlagUntilTimeout>:
  * @param  Tickstart Tick start value
  * @retval HAL status
  */
static HAL_StatusTypeDef I2C_WaitOnSTOPFlagUntilTimeout(I2C_HandleTypeDef *hi2c, uint32_t Timeout,
                                                        uint32_t Tickstart)
{
 80023bc:	b580      	push	{r7, lr}
 80023be:	b084      	sub	sp, #16
 80023c0:	af00      	add	r7, sp, #0
 80023c2:	60f8      	str	r0, [r7, #12]
 80023c4:	60b9      	str	r1, [r7, #8]
 80023c6:	607a      	str	r2, [r7, #4]
  while (__HAL_I2C_GET_FLAG(hi2c, I2C_FLAG_STOPF) == RESET)
 80023c8:	e028      	b.n	800241c <I2C_WaitOnSTOPFlagUntilTimeout+0x60>
  {
    /* Check if an error is detected */
    if (I2C_IsErrorOccurred(hi2c, Timeout, Tickstart) != HAL_OK)
 80023ca:	687a      	ldr	r2, [r7, #4]
 80023cc:	68b9      	ldr	r1, [r7, #8]
 80023ce:	68fb      	ldr	r3, [r7, #12]
 80023d0:	0018      	movs	r0, r3
 80023d2:	f000 f82f 	bl	8002434 <I2C_IsErrorOccurred>
 80023d6:	1e03      	subs	r3, r0, #0
 80023d8:	d001      	beq.n	80023de <I2C_WaitOnSTOPFlagUntilTimeout+0x22>
    {
      return HAL_ERROR;
 80023da:	2301      	movs	r3, #1
 80023dc:	e026      	b.n	800242c <I2C_WaitOnSTOPFlagUntilTimeout+0x70>
    }

    /* Check for the Timeout */
    if (((HAL_GetTick() - Tickstart) > Timeout) || (Timeout == 0U))
 80023de:	f7ff f81b 	bl	8001418 <HAL_GetTick>
 80023e2:	0002      	movs	r2, r0
 80023e4:	687b      	ldr	r3, [r7, #4]
 80023e6:	1ad3      	subs	r3, r2, r3
 80023e8:	68ba      	ldr	r2, [r7, #8]
 80023ea:	429a      	cmp	r2, r3
 80023ec:	d302      	bcc.n	80023f4 <I2C_WaitOnSTOPFlagUntilTimeout+0x38>
 80023ee:	68bb      	ldr	r3, [r7, #8]
 80023f0:	2b00      	cmp	r3, #0
 80023f2:	d113      	bne.n	800241c <I2C_WaitOnSTOPFlagUntilTimeout+0x60>
    {
      hi2c->ErrorCode |= HAL_I2C_ERROR_TIMEOUT;
 80023f4:	68fb      	ldr	r3, [r7, #12]
 80023f6:	6c5b      	ldr	r3, [r3, #68]	; 0x44
 80023f8:	2220      	movs	r2, #32
 80023fa:	431a      	orrs	r2, r3
 80023fc:	68fb      	ldr	r3, [r7, #12]
 80023fe:	645a      	str	r2, [r3, #68]	; 0x44
      hi2c->State = HAL_I2C_STATE_READY;
 8002400:	68fb      	ldr	r3, [r7, #12]
 8002402:	2241      	movs	r2, #65	; 0x41
 8002404:	2120      	movs	r1, #32
 8002406:	5499      	strb	r1, [r3, r2]
      hi2c->Mode = HAL_I2C_MODE_NONE;
 8002408:	68fb      	ldr	r3, [r7, #12]
 800240a:	2242      	movs	r2, #66	; 0x42
 800240c:	2100      	movs	r1, #0
 800240e:	5499      	strb	r1, [r3, r2]

      /* Process Unlocked */
      __HAL_UNLOCK(hi2c);
 8002410:	68fb      	ldr	r3, [r7, #12]
 8002412:	2240      	movs	r2, #64	; 0x40
 8002414:	2100      	movs	r1, #0
 8002416:	5499      	strb	r1, [r3, r2]

      return HAL_ERROR;
 8002418:	2301      	movs	r3, #1
 800241a:	e007      	b.n	800242c <I2C_WaitOnSTOPFlagUntilTimeout+0x70>
  while (__HAL_I2C_GET_FLAG(hi2c, I2C_FLAG_STOPF) == RESET)
 800241c:	68fb      	ldr	r3, [r7, #12]
 800241e:	681b      	ldr	r3, [r3, #0]
 8002420:	699b      	ldr	r3, [r3, #24]
 8002422:	2220      	movs	r2, #32
 8002424:	4013      	ands	r3, r2
 8002426:	2b20      	cmp	r3, #32
 8002428:	d1cf      	bne.n	80023ca <I2C_WaitOnSTOPFlagUntilTimeout+0xe>
    }
  }
  return HAL_OK;
 800242a:	2300      	movs	r3, #0
}
 800242c:	0018      	movs	r0, r3
 800242e:	46bd      	mov	sp, r7
 8002430:	b004      	add	sp, #16
 8002432:	bd80      	pop	{r7, pc}

08002434 <I2C_IsErrorOccurred>:
  * @param  Timeout Timeout duration
  * @param  Tickstart Tick start value
  * @retval HAL status
  */
static HAL_StatusTypeDef I2C_IsErrorOccurred(I2C_HandleTypeDef *hi2c, uint32_t Timeout, uint32_t Tickstart)
{
 8002434:	b590      	push	{r4, r7, lr}
 8002436:	b08b      	sub	sp, #44	; 0x2c
 8002438:	af00      	add	r7, sp, #0
 800243a:	60f8      	str	r0, [r7, #12]
 800243c:	60b9      	str	r1, [r7, #8]
 800243e:	607a      	str	r2, [r7, #4]
  HAL_StatusTypeDef status = HAL_OK;
 8002440:	2327      	movs	r3, #39	; 0x27
 8002442:	18fb      	adds	r3, r7, r3
 8002444:	2200      	movs	r2, #0
 8002446:	701a      	strb	r2, [r3, #0]
  uint32_t itflag   = hi2c->Instance->ISR;
 8002448:	68fb      	ldr	r3, [r7, #12]
 800244a:	681b      	ldr	r3, [r3, #0]
 800244c:	699b      	ldr	r3, [r3, #24]
 800244e:	61bb      	str	r3, [r7, #24]
  uint32_t error_code = 0;
 8002450:	2300      	movs	r3, #0
 8002452:	623b      	str	r3, [r7, #32]
  uint32_t tickstart = Tickstart;
 8002454:	687b      	ldr	r3, [r7, #4]
 8002456:	61fb      	str	r3, [r7, #28]
  uint32_t tmp1;
  HAL_I2C_ModeTypeDef tmp2;

  if (HAL_IS_BIT_SET(itflag, I2C_FLAG_AF))
 8002458:	69bb      	ldr	r3, [r7, #24]
 800245a:	2210      	movs	r2, #16
 800245c:	4013      	ands	r3, r2
 800245e:	d100      	bne.n	8002462 <I2C_IsErrorOccurred+0x2e>
 8002460:	e082      	b.n	8002568 <I2C_IsErrorOccurred+0x134>
  {
    /* Clear NACKF Flag */
    __HAL_I2C_CLEAR_FLAG(hi2c, I2C_FLAG_AF);
 8002462:	68fb      	ldr	r3, [r7, #12]
 8002464:	681b      	ldr	r3, [r3, #0]
 8002466:	2210      	movs	r2, #16
 8002468:	61da      	str	r2, [r3, #28]

    /* Wait until STOP Flag is set or timeout occurred */
    /* AutoEnd should be initiate after AF */
    while ((__HAL_I2C_GET_FLAG(hi2c, I2C_FLAG_STOPF) == RESET) && (status == HAL_OK))
 800246a:	e060      	b.n	800252e <I2C_IsErrorOccurred+0xfa>
 800246c:	2427      	movs	r4, #39	; 0x27
 800246e:	193b      	adds	r3, r7, r4
 8002470:	193a      	adds	r2, r7, r4
 8002472:	7812      	ldrb	r2, [r2, #0]
 8002474:	701a      	strb	r2, [r3, #0]
    {
      /* Check for the Timeout */
      if (Timeout != HAL_MAX_DELAY)
 8002476:	68bb      	ldr	r3, [r7, #8]
 8002478:	3301      	adds	r3, #1
 800247a:	d058      	beq.n	800252e <I2C_IsErrorOccurred+0xfa>
      {
        if (((HAL_GetTick() - tickstart) > Timeout) || (Timeout == 0U))
 800247c:	f7fe ffcc 	bl	8001418 <HAL_GetTick>
 8002480:	0002      	movs	r2, r0
 8002482:	69fb      	ldr	r3, [r7, #28]
 8002484:	1ad3      	subs	r3, r2, r3
 8002486:	68ba      	ldr	r2, [r7, #8]
 8002488:	429a      	cmp	r2, r3
 800248a:	d306      	bcc.n	800249a <I2C_IsErrorOccurred+0x66>
 800248c:	193b      	adds	r3, r7, r4
 800248e:	193a      	adds	r2, r7, r4
 8002490:	7812      	ldrb	r2, [r2, #0]
 8002492:	701a      	strb	r2, [r3, #0]
 8002494:	68bb      	ldr	r3, [r7, #8]
 8002496:	2b00      	cmp	r3, #0
 8002498:	d149      	bne.n	800252e <I2C_IsErrorOccurred+0xfa>
        {
          tmp1 = (uint32_t)(hi2c->Instance->CR2 & I2C_CR2_STOP);
 800249a:	68fb      	ldr	r3, [r7, #12]
 800249c:	681b      	ldr	r3, [r3, #0]
 800249e:	685a      	ldr	r2, [r3, #4]
 80024a0:	2380      	movs	r3, #128	; 0x80
 80024a2:	01db      	lsls	r3, r3, #7
 80024a4:	4013      	ands	r3, r2
 80024a6:	617b      	str	r3, [r7, #20]
          tmp2 = hi2c->Mode;
 80024a8:	2013      	movs	r0, #19
 80024aa:	183b      	adds	r3, r7, r0
 80024ac:	68fa      	ldr	r2, [r7, #12]
 80024ae:	2142      	movs	r1, #66	; 0x42
 80024b0:	5c52      	ldrb	r2, [r2, r1]
 80024b2:	701a      	strb	r2, [r3, #0]

          /* In case of I2C still busy, try to regenerate a STOP manually */
          if ((__HAL_I2C_GET_FLAG(hi2c, I2C_FLAG_BUSY) != RESET) && \
 80024b4:	68fb      	ldr	r3, [r7, #12]
 80024b6:	681b      	ldr	r3, [r3, #0]
 80024b8:	699a      	ldr	r2, [r3, #24]
 80024ba:	2380      	movs	r3, #128	; 0x80
 80024bc:	021b      	lsls	r3, r3, #8
 80024be:	401a      	ands	r2, r3
 80024c0:	2380      	movs	r3, #128	; 0x80
 80024c2:	021b      	lsls	r3, r3, #8
 80024c4:	429a      	cmp	r2, r3
 80024c6:	d126      	bne.n	8002516 <I2C_IsErrorOccurred+0xe2>
 80024c8:	697a      	ldr	r2, [r7, #20]
 80024ca:	2380      	movs	r3, #128	; 0x80
 80024cc:	01db      	lsls	r3, r3, #7
 80024ce:	429a      	cmp	r2, r3
 80024d0:	d021      	beq.n	8002516 <I2C_IsErrorOccurred+0xe2>
              (tmp1 != I2C_CR2_STOP) && \
 80024d2:	183b      	adds	r3, r7, r0
 80024d4:	781b      	ldrb	r3, [r3, #0]
 80024d6:	2b20      	cmp	r3, #32
 80024d8:	d01d      	beq.n	8002516 <I2C_IsErrorOccurred+0xe2>
              (tmp2 != HAL_I2C_MODE_SLAVE))
          {
            /* Generate Stop */
            hi2c->Instance->CR2 |= I2C_CR2_STOP;
 80024da:	68fb      	ldr	r3, [r7, #12]
 80024dc:	681b      	ldr	r3, [r3, #0]
 80024de:	685a      	ldr	r2, [r3, #4]
 80024e0:	68fb      	ldr	r3, [r7, #12]
 80024e2:	681b      	ldr	r3, [r3, #0]
 80024e4:	2180      	movs	r1, #128	; 0x80
 80024e6:	01c9      	lsls	r1, r1, #7
 80024e8:	430a      	orrs	r2, r1
 80024ea:	605a      	str	r2, [r3, #4]

            /* Update Tick with new reference */
            tickstart = HAL_GetTick();
 80024ec:	f7fe ff94 	bl	8001418 <HAL_GetTick>
 80024f0:	0003      	movs	r3, r0
 80024f2:	61fb      	str	r3, [r7, #28]
          }

          while (__HAL_I2C_GET_FLAG(hi2c, I2C_FLAG_STOPF) == RESET)
 80024f4:	e00f      	b.n	8002516 <I2C_IsErrorOccurred+0xe2>
          {
            /* Check for the Timeout */
            if ((HAL_GetTick() - tickstart) > I2C_TIMEOUT_STOPF)
 80024f6:	f7fe ff8f 	bl	8001418 <HAL_GetTick>
 80024fa:	0002      	movs	r2, r0
 80024fc:	69fb      	ldr	r3, [r7, #28]
 80024fe:	1ad3      	subs	r3, r2, r3
 8002500:	2b19      	cmp	r3, #25
 8002502:	d908      	bls.n	8002516 <I2C_IsErrorOccurred+0xe2>
            {
              error_code |=HAL_I2C_ERROR_TIMEOUT;
 8002504:	6a3b      	ldr	r3, [r7, #32]
 8002506:	2220      	movs	r2, #32
 8002508:	4313      	orrs	r3, r2
 800250a:	623b      	str	r3, [r7, #32]

              status = HAL_ERROR;
 800250c:	2327      	movs	r3, #39	; 0x27
 800250e:	18fb      	adds	r3, r7, r3
 8002510:	2201      	movs	r2, #1
 8002512:	701a      	strb	r2, [r3, #0]

              break;
 8002514:	e00b      	b.n	800252e <I2C_IsErrorOccurred+0xfa>
          while (__HAL_I2C_GET_FLAG(hi2c, I2C_FLAG_STOPF) == RESET)
 8002516:	68fb      	ldr	r3, [r7, #12]
 8002518:	681b      	ldr	r3, [r3, #0]
 800251a:	699b      	ldr	r3, [r3, #24]
 800251c:	2220      	movs	r2, #32
 800251e:	4013      	ands	r3, r2
 8002520:	2127      	movs	r1, #39	; 0x27
 8002522:	187a      	adds	r2, r7, r1
 8002524:	1879      	adds	r1, r7, r1
 8002526:	7809      	ldrb	r1, [r1, #0]
 8002528:	7011      	strb	r1, [r2, #0]
 800252a:	2b20      	cmp	r3, #32
 800252c:	d1e3      	bne.n	80024f6 <I2C_IsErrorOccurred+0xc2>
    while ((__HAL_I2C_GET_FLAG(hi2c, I2C_FLAG_STOPF) == RESET) && (status == HAL_OK))
 800252e:	68fb      	ldr	r3, [r7, #12]
 8002530:	681b      	ldr	r3, [r3, #0]
 8002532:	699b      	ldr	r3, [r3, #24]
 8002534:	2220      	movs	r2, #32
 8002536:	4013      	ands	r3, r2
 8002538:	2b20      	cmp	r3, #32
 800253a:	d004      	beq.n	8002546 <I2C_IsErrorOccurred+0x112>
 800253c:	2327      	movs	r3, #39	; 0x27
 800253e:	18fb      	adds	r3, r7, r3
 8002540:	781b      	ldrb	r3, [r3, #0]
 8002542:	2b00      	cmp	r3, #0
 8002544:	d092      	beq.n	800246c <I2C_IsErrorOccurred+0x38>
        }
      }
    }

    /* In case STOP Flag is detected, clear it */
    if (status == HAL_OK)
 8002546:	2327      	movs	r3, #39	; 0x27
 8002548:	18fb      	adds	r3, r7, r3
 800254a:	781b      	ldrb	r3, [r3, #0]
 800254c:	2b00      	cmp	r3, #0
 800254e:	d103      	bne.n	8002558 <I2C_IsErrorOccurred+0x124>
    {
      /* Clear STOP Flag */
      __HAL_I2C_CLEAR_FLAG(hi2c, I2C_FLAG_STOPF);
 8002550:	68fb      	ldr	r3, [r7, #12]
 8002552:	681b      	ldr	r3, [r3, #0]
 8002554:	2220      	movs	r2, #32
 8002556:	61da      	str	r2, [r3, #28]
    }

    error_code |= HAL_I2C_ERROR_AF;
 8002558:	6a3b      	ldr	r3, [r7, #32]
 800255a:	2204      	movs	r2, #4
 800255c:	4313      	orrs	r3, r2
 800255e:	623b      	str	r3, [r7, #32]

    status = HAL_ERROR;
 8002560:	2327      	movs	r3, #39	; 0x27
 8002562:	18fb      	adds	r3, r7, r3
 8002564:	2201      	movs	r2, #1
 8002566:	701a      	strb	r2, [r3, #0]
  }

  /* Refresh Content of Status register */
  itflag = hi2c->Instance->ISR;
 8002568:	68fb      	ldr	r3, [r7, #12]
 800256a:	681b      	ldr	r3, [r3, #0]
 800256c:	699b      	ldr	r3, [r3, #24]
 800256e:	61bb      	str	r3, [r7, #24]

  /* Then verify if an additional errors occurs */
  /* Check if a Bus error occurred */
  if (HAL_IS_BIT_SET(itflag, I2C_FLAG_BERR))
 8002570:	69ba      	ldr	r2, [r7, #24]
 8002572:	2380      	movs	r3, #128	; 0x80
 8002574:	005b      	lsls	r3, r3, #1
 8002576:	4013      	ands	r3, r2
 8002578:	d00c      	beq.n	8002594 <I2C_IsErrorOccurred+0x160>
  {
    error_code |= HAL_I2C_ERROR_BERR;
 800257a:	6a3b      	ldr	r3, [r7, #32]
 800257c:	2201      	movs	r2, #1
 800257e:	4313      	orrs	r3, r2
 8002580:	623b      	str	r3, [r7, #32]

    /* Clear BERR flag */
    __HAL_I2C_CLEAR_FLAG(hi2c, I2C_FLAG_BERR);
 8002582:	68fb      	ldr	r3, [r7, #12]
 8002584:	681b      	ldr	r3, [r3, #0]
 8002586:	2280      	movs	r2, #128	; 0x80
 8002588:	0052      	lsls	r2, r2, #1
 800258a:	61da      	str	r2, [r3, #28]

    status = HAL_ERROR;
 800258c:	2327      	movs	r3, #39	; 0x27
 800258e:	18fb      	adds	r3, r7, r3
 8002590:	2201      	movs	r2, #1
 8002592:	701a      	strb	r2, [r3, #0]
  }

  /* Check if an Over-Run/Under-Run error occurred */
  if (HAL_IS_BIT_SET(itflag, I2C_FLAG_OVR))
 8002594:	69ba      	ldr	r2, [r7, #24]
 8002596:	2380      	movs	r3, #128	; 0x80
 8002598:	00db      	lsls	r3, r3, #3
 800259a:	4013      	ands	r3, r2
 800259c:	d00c      	beq.n	80025b8 <I2C_IsErrorOccurred+0x184>
  {
    error_code |= HAL_I2C_ERROR_OVR;
 800259e:	6a3b      	ldr	r3, [r7, #32]
 80025a0:	2208      	movs	r2, #8
 80025a2:	4313      	orrs	r3, r2
 80025a4:	623b      	str	r3, [r7, #32]

    /* Clear OVR flag */
    __HAL_I2C_CLEAR_FLAG(hi2c, I2C_FLAG_OVR);
 80025a6:	68fb      	ldr	r3, [r7, #12]
 80025a8:	681b      	ldr	r3, [r3, #0]
 80025aa:	2280      	movs	r2, #128	; 0x80
 80025ac:	00d2      	lsls	r2, r2, #3
 80025ae:	61da      	str	r2, [r3, #28]

    status = HAL_ERROR;
 80025b0:	2327      	movs	r3, #39	; 0x27
 80025b2:	18fb      	adds	r3, r7, r3
 80025b4:	2201      	movs	r2, #1
 80025b6:	701a      	strb	r2, [r3, #0]
  }

  /* Check if an Arbitration Loss error occurred */
  if (HAL_IS_BIT_SET(itflag, I2C_FLAG_ARLO))
 80025b8:	69ba      	ldr	r2, [r7, #24]
 80025ba:	2380      	movs	r3, #128	; 0x80
 80025bc:	009b      	lsls	r3, r3, #2
 80025be:	4013      	ands	r3, r2
 80025c0:	d00c      	beq.n	80025dc <I2C_IsErrorOccurred+0x1a8>
  {
    error_code |= HAL_I2C_ERROR_ARLO;
 80025c2:	6a3b      	ldr	r3, [r7, #32]
 80025c4:	2202      	movs	r2, #2
 80025c6:	4313      	orrs	r3, r2
 80025c8:	623b      	str	r3, [r7, #32]

    /* Clear ARLO flag */
    __HAL_I2C_CLEAR_FLAG(hi2c, I2C_FLAG_ARLO);
 80025ca:	68fb      	ldr	r3, [r7, #12]
 80025cc:	681b      	ldr	r3, [r3, #0]
 80025ce:	2280      	movs	r2, #128	; 0x80
 80025d0:	0092      	lsls	r2, r2, #2
 80025d2:	61da      	str	r2, [r3, #28]

    status = HAL_ERROR;
 80025d4:	2327      	movs	r3, #39	; 0x27
 80025d6:	18fb      	adds	r3, r7, r3
 80025d8:	2201      	movs	r2, #1
 80025da:	701a      	strb	r2, [r3, #0]
  }

  if (status != HAL_OK)
 80025dc:	2327      	movs	r3, #39	; 0x27
 80025de:	18fb      	adds	r3, r7, r3
 80025e0:	781b      	ldrb	r3, [r3, #0]
 80025e2:	2b00      	cmp	r3, #0
 80025e4:	d01d      	beq.n	8002622 <I2C_IsErrorOccurred+0x1ee>
  {
    /* Flush TX register */
    I2C_Flush_TXDR(hi2c);
 80025e6:	68fb      	ldr	r3, [r7, #12]
 80025e8:	0018      	movs	r0, r3
 80025ea:	f7ff fe47 	bl	800227c <I2C_Flush_TXDR>

    /* Clear Configuration Register 2 */
    I2C_RESET_CR2(hi2c);
 80025ee:	68fb      	ldr	r3, [r7, #12]
 80025f0:	681b      	ldr	r3, [r3, #0]
 80025f2:	685a      	ldr	r2, [r3, #4]
 80025f4:	68fb      	ldr	r3, [r7, #12]
 80025f6:	681b      	ldr	r3, [r3, #0]
 80025f8:	490d      	ldr	r1, [pc, #52]	; (8002630 <I2C_IsErrorOccurred+0x1fc>)
 80025fa:	400a      	ands	r2, r1
 80025fc:	605a      	str	r2, [r3, #4]

    hi2c->ErrorCode |= error_code;
 80025fe:	68fb      	ldr	r3, [r7, #12]
 8002600:	6c5a      	ldr	r2, [r3, #68]	; 0x44
 8002602:	6a3b      	ldr	r3, [r7, #32]
 8002604:	431a      	orrs	r2, r3
 8002606:	68fb      	ldr	r3, [r7, #12]
 8002608:	645a      	str	r2, [r3, #68]	; 0x44
    hi2c->State = HAL_I2C_STATE_READY;
 800260a:	68fb      	ldr	r3, [r7, #12]
 800260c:	2241      	movs	r2, #65	; 0x41
 800260e:	2120      	movs	r1, #32
 8002610:	5499      	strb	r1, [r3, r2]
    hi2c->Mode = HAL_I2C_MODE_NONE;
 8002612:	68fb      	ldr	r3, [r7, #12]
 8002614:	2242      	movs	r2, #66	; 0x42
 8002616:	2100      	movs	r1, #0
 8002618:	5499      	strb	r1, [r3, r2]

    /* Process Unlocked */
    __HAL_UNLOCK(hi2c);
 800261a:	68fb      	ldr	r3, [r7, #12]
 800261c:	2240      	movs	r2, #64	; 0x40
 800261e:	2100      	movs	r1, #0
 8002620:	5499      	strb	r1, [r3, r2]
  }

  return status;
 8002622:	2327      	movs	r3, #39	; 0x27
 8002624:	18fb      	adds	r3, r7, r3
 8002626:	781b      	ldrb	r3, [r3, #0]
}
 8002628:	0018      	movs	r0, r3
 800262a:	46bd      	mov	sp, r7
 800262c:	b00b      	add	sp, #44	; 0x2c
 800262e:	bd90      	pop	{r4, r7, pc}
 8002630:	fe00e800 	.word	0xfe00e800

08002634 <I2C_TransferConfig>:
  *     @arg @ref I2C_GENERATE_START_WRITE Generate Restart for write request.
  * @retval None
  */
static void I2C_TransferConfig(I2C_HandleTypeDef *hi2c, uint16_t DevAddress, uint8_t Size, uint32_t Mode,
                               uint32_t Request)
{
 8002634:	b590      	push	{r4, r7, lr}
 8002636:	b087      	sub	sp, #28
 8002638:	af00      	add	r7, sp, #0
 800263a:	60f8      	str	r0, [r7, #12]
 800263c:	0008      	movs	r0, r1
 800263e:	0011      	movs	r1, r2
 8002640:	607b      	str	r3, [r7, #4]
 8002642:	240a      	movs	r4, #10
 8002644:	193b      	adds	r3, r7, r4
 8002646:	1c02      	adds	r2, r0, #0
 8002648:	801a      	strh	r2, [r3, #0]
 800264a:	2009      	movs	r0, #9
 800264c:	183b      	adds	r3, r7, r0
 800264e:	1c0a      	adds	r2, r1, #0
 8002650:	701a      	strb	r2, [r3, #0]
  assert_param(IS_I2C_ALL_INSTANCE(hi2c->Instance));
  assert_param(IS_TRANSFER_MODE(Mode));
  assert_param(IS_TRANSFER_REQUEST(Request));

  /* Declaration of tmp to prevent undefined behavior of volatile usage */
  uint32_t tmp = ((uint32_t)(((uint32_t)DevAddress & I2C_CR2_SADD) | \
 8002652:	193b      	adds	r3, r7, r4
 8002654:	881b      	ldrh	r3, [r3, #0]
 8002656:	059b      	lsls	r3, r3, #22
 8002658:	0d9a      	lsrs	r2, r3, #22
                             (((uint32_t)Size << I2C_CR2_NBYTES_Pos) & I2C_CR2_NBYTES) | \
 800265a:	183b      	adds	r3, r7, r0
 800265c:	781b      	ldrb	r3, [r3, #0]
 800265e:	0419      	lsls	r1, r3, #16
 8002660:	23ff      	movs	r3, #255	; 0xff
 8002662:	041b      	lsls	r3, r3, #16
 8002664:	400b      	ands	r3, r1
  uint32_t tmp = ((uint32_t)(((uint32_t)DevAddress & I2C_CR2_SADD) | \
 8002666:	431a      	orrs	r2, r3
                             (((uint32_t)Size << I2C_CR2_NBYTES_Pos) & I2C_CR2_NBYTES) | \
 8002668:	687b      	ldr	r3, [r7, #4]
 800266a:	431a      	orrs	r2, r3
  uint32_t tmp = ((uint32_t)(((uint32_t)DevAddress & I2C_CR2_SADD) | \
 800266c:	6abb      	ldr	r3, [r7, #40]	; 0x28
 800266e:	4313      	orrs	r3, r2
 8002670:	005b      	lsls	r3, r3, #1
 8002672:	085b      	lsrs	r3, r3, #1
 8002674:	617b      	str	r3, [r7, #20]
                             (uint32_t)Mode | (uint32_t)Request) & (~0x80000000U));

  /* update CR2 register */
  MODIFY_REG(hi2c->Instance->CR2, \
 8002676:	68fb      	ldr	r3, [r7, #12]
 8002678:	681b      	ldr	r3, [r3, #0]
 800267a:	685b      	ldr	r3, [r3, #4]
 800267c:	6aba      	ldr	r2, [r7, #40]	; 0x28
 800267e:	0d51      	lsrs	r1, r2, #21
 8002680:	2280      	movs	r2, #128	; 0x80
 8002682:	00d2      	lsls	r2, r2, #3
 8002684:	400a      	ands	r2, r1
 8002686:	4907      	ldr	r1, [pc, #28]	; (80026a4 <I2C_TransferConfig+0x70>)
 8002688:	430a      	orrs	r2, r1
 800268a:	43d2      	mvns	r2, r2
 800268c:	401a      	ands	r2, r3
 800268e:	0011      	movs	r1, r2
 8002690:	68fb      	ldr	r3, [r7, #12]
 8002692:	681b      	ldr	r3, [r3, #0]
 8002694:	697a      	ldr	r2, [r7, #20]
 8002696:	430a      	orrs	r2, r1
 8002698:	605a      	str	r2, [r3, #4]
             ((I2C_CR2_SADD | I2C_CR2_NBYTES | I2C_CR2_RELOAD | I2C_CR2_AUTOEND | \
               (I2C_CR2_RD_WRN & (uint32_t)(Request >> (31U - I2C_CR2_RD_WRN_Pos))) | \
               I2C_CR2_START | I2C_CR2_STOP)), tmp);
}
 800269a:	46c0      	nop			; (mov r8, r8)
 800269c:	46bd      	mov	sp, r7
 800269e:	b007      	add	sp, #28
 80026a0:	bd90      	pop	{r4, r7, pc}
 80026a2:	46c0      	nop			; (mov r8, r8)
 80026a4:	03ff63ff 	.word	0x03ff63ff

080026a8 <HAL_I2CEx_ConfigAnalogFilter>:
  *                the configuration information for the specified I2Cx peripheral.
  * @param  AnalogFilter New state of the Analog filter.
  * @retval HAL status
  */
HAL_StatusTypeDef HAL_I2CEx_ConfigAnalogFilter(I2C_HandleTypeDef *hi2c, uint32_t AnalogFilter)
{
 80026a8:	b580      	push	{r7, lr}
 80026aa:	b082      	sub	sp, #8
 80026ac:	af00      	add	r7, sp, #0
 80026ae:	6078      	str	r0, [r7, #4]
 80026b0:	6039      	str	r1, [r7, #0]
  /* Check the parameters */
  assert_param(IS_I2C_ALL_INSTANCE(hi2c->Instance));
  assert_param(IS_I2C_ANALOG_FILTER(AnalogFilter));

  if (hi2c->State == HAL_I2C_STATE_READY)
 80026b2:	687b      	ldr	r3, [r7, #4]
 80026b4:	2241      	movs	r2, #65	; 0x41
 80026b6:	5c9b      	ldrb	r3, [r3, r2]
 80026b8:	b2db      	uxtb	r3, r3
 80026ba:	2b20      	cmp	r3, #32
 80026bc:	d138      	bne.n	8002730 <HAL_I2CEx_ConfigAnalogFilter+0x88>
  {
    /* Process Locked */
    __HAL_LOCK(hi2c);
 80026be:	687b      	ldr	r3, [r7, #4]
 80026c0:	2240      	movs	r2, #64	; 0x40
 80026c2:	5c9b      	ldrb	r3, [r3, r2]
 80026c4:	2b01      	cmp	r3, #1
 80026c6:	d101      	bne.n	80026cc <HAL_I2CEx_ConfigAnalogFilter+0x24>
 80026c8:	2302      	movs	r3, #2
 80026ca:	e032      	b.n	8002732 <HAL_I2CEx_ConfigAnalogFilter+0x8a>
 80026cc:	687b      	ldr	r3, [r7, #4]
 80026ce:	2240      	movs	r2, #64	; 0x40
 80026d0:	2101      	movs	r1, #1
 80026d2:	5499      	strb	r1, [r3, r2]

    hi2c->State = HAL_I2C_STATE_BUSY;
 80026d4:	687b      	ldr	r3, [r7, #4]
 80026d6:	2241      	movs	r2, #65	; 0x41
 80026d8:	2124      	movs	r1, #36	; 0x24
 80026da:	5499      	strb	r1, [r3, r2]

    /* Disable the selected I2C peripheral */
    __HAL_I2C_DISABLE(hi2c);
 80026dc:	687b      	ldr	r3, [r7, #4]
 80026de:	681b      	ldr	r3, [r3, #0]
 80026e0:	681a      	ldr	r2, [r3, #0]
 80026e2:	687b      	ldr	r3, [r7, #4]
 80026e4:	681b      	ldr	r3, [r3, #0]
 80026e6:	2101      	movs	r1, #1
 80026e8:	438a      	bics	r2, r1
 80026ea:	601a      	str	r2, [r3, #0]

    /* Reset I2Cx ANOFF bit */
    hi2c->Instance->CR1 &= ~(I2C_CR1_ANFOFF);
 80026ec:	687b      	ldr	r3, [r7, #4]
 80026ee:	681b      	ldr	r3, [r3, #0]
 80026f0:	681a      	ldr	r2, [r3, #0]
 80026f2:	687b      	ldr	r3, [r7, #4]
 80026f4:	681b      	ldr	r3, [r3, #0]
 80026f6:	4911      	ldr	r1, [pc, #68]	; (800273c <HAL_I2CEx_ConfigAnalogFilter+0x94>)
 80026f8:	400a      	ands	r2, r1
 80026fa:	601a      	str	r2, [r3, #0]

    /* Set analog filter bit*/
    hi2c->Instance->CR1 |= AnalogFilter;
 80026fc:	687b      	ldr	r3, [r7, #4]
 80026fe:	681b      	ldr	r3, [r3, #0]
 8002700:	6819      	ldr	r1, [r3, #0]
 8002702:	687b      	ldr	r3, [r7, #4]
 8002704:	681b      	ldr	r3, [r3, #0]
 8002706:	683a      	ldr	r2, [r7, #0]
 8002708:	430a      	orrs	r2, r1
 800270a:	601a      	str	r2, [r3, #0]

    __HAL_I2C_ENABLE(hi2c);
 800270c:	687b      	ldr	r3, [r7, #4]
 800270e:	681b      	ldr	r3, [r3, #0]
 8002710:	681a      	ldr	r2, [r3, #0]
 8002712:	687b      	ldr	r3, [r7, #4]
 8002714:	681b      	ldr	r3, [r3, #0]
 8002716:	2101      	movs	r1, #1
 8002718:	430a      	orrs	r2, r1
 800271a:	601a      	str	r2, [r3, #0]

    hi2c->State = HAL_I2C_STATE_READY;
 800271c:	687b      	ldr	r3, [r7, #4]
 800271e:	2241      	movs	r2, #65	; 0x41
 8002720:	2120      	movs	r1, #32
 8002722:	5499      	strb	r1, [r3, r2]

    /* Process Unlocked */
    __HAL_UNLOCK(hi2c);
 8002724:	687b      	ldr	r3, [r7, #4]
 8002726:	2240      	movs	r2, #64	; 0x40
 8002728:	2100      	movs	r1, #0
 800272a:	5499      	strb	r1, [r3, r2]

    return HAL_OK;
 800272c:	2300      	movs	r3, #0
 800272e:	e000      	b.n	8002732 <HAL_I2CEx_ConfigAnalogFilter+0x8a>
  }
  else
  {
    return HAL_BUSY;
 8002730:	2302      	movs	r3, #2
  }
}
 8002732:	0018      	movs	r0, r3
 8002734:	46bd      	mov	sp, r7
 8002736:	b002      	add	sp, #8
 8002738:	bd80      	pop	{r7, pc}
 800273a:	46c0      	nop			; (mov r8, r8)
 800273c:	ffffefff 	.word	0xffffefff

08002740 <HAL_I2CEx_ConfigDigitalFilter>:
  *                the configuration information for the specified I2Cx peripheral.
  * @param  DigitalFilter Coefficient of digital noise filter between Min_Data=0x00 and Max_Data=0x0F.
  * @retval HAL status
  */
HAL_StatusTypeDef HAL_I2CEx_ConfigDigitalFilter(I2C_HandleTypeDef *hi2c, uint32_t DigitalFilter)
{
 8002740:	b580      	push	{r7, lr}
 8002742:	b084      	sub	sp, #16
 8002744:	af00      	add	r7, sp, #0
 8002746:	6078      	str	r0, [r7, #4]
 8002748:	6039      	str	r1, [r7, #0]

  /* Check the parameters */
  assert_param(IS_I2C_ALL_INSTANCE(hi2c->Instance));
  assert_param(IS_I2C_DIGITAL_FILTER(DigitalFilter));

  if (hi2c->State == HAL_I2C_STATE_READY)
 800274a:	687b      	ldr	r3, [r7, #4]
 800274c:	2241      	movs	r2, #65	; 0x41
 800274e:	5c9b      	ldrb	r3, [r3, r2]
 8002750:	b2db      	uxtb	r3, r3
 8002752:	2b20      	cmp	r3, #32
 8002754:	d139      	bne.n	80027ca <HAL_I2CEx_ConfigDigitalFilter+0x8a>
  {
    /* Process Locked */
    __HAL_LOCK(hi2c);
 8002756:	687b      	ldr	r3, [r7, #4]
 8002758:	2240      	movs	r2, #64	; 0x40
 800275a:	5c9b      	ldrb	r3, [r3, r2]
 800275c:	2b01      	cmp	r3, #1
 800275e:	d101      	bne.n	8002764 <HAL_I2CEx_ConfigDigitalFilter+0x24>
 8002760:	2302      	movs	r3, #2
 8002762:	e033      	b.n	80027cc <HAL_I2CEx_ConfigDigitalFilter+0x8c>
 8002764:	687b      	ldr	r3, [r7, #4]
 8002766:	2240      	movs	r2, #64	; 0x40
 8002768:	2101      	movs	r1, #1
 800276a:	5499      	strb	r1, [r3, r2]

    hi2c->State = HAL_I2C_STATE_BUSY;
 800276c:	687b      	ldr	r3, [r7, #4]
 800276e:	2241      	movs	r2, #65	; 0x41
 8002770:	2124      	movs	r1, #36	; 0x24
 8002772:	5499      	strb	r1, [r3, r2]

    /* Disable the selected I2C peripheral */
    __HAL_I2C_DISABLE(hi2c);
 8002774:	687b      	ldr	r3, [r7, #4]
 8002776:	681b      	ldr	r3, [r3, #0]
 8002778:	681a      	ldr	r2, [r3, #0]
 800277a:	687b      	ldr	r3, [r7, #4]
 800277c:	681b      	ldr	r3, [r3, #0]
 800277e:	2101      	movs	r1, #1
 8002780:	438a      	bics	r2, r1
 8002782:	601a      	str	r2, [r3, #0]

    /* Get the old register value */
    tmpreg = hi2c->Instance->CR1;
 8002784:	687b      	ldr	r3, [r7, #4]
 8002786:	681b      	ldr	r3, [r3, #0]
 8002788:	681b      	ldr	r3, [r3, #0]
 800278a:	60fb      	str	r3, [r7, #12]

    /* Reset I2Cx DNF bits [11:8] */
    tmpreg &= ~(I2C_CR1_DNF);
 800278c:	68fb      	ldr	r3, [r7, #12]
 800278e:	4a11      	ldr	r2, [pc, #68]	; (80027d4 <HAL_I2CEx_ConfigDigitalFilter+0x94>)
 8002790:	4013      	ands	r3, r2
 8002792:	60fb      	str	r3, [r7, #12]

    /* Set I2Cx DNF coefficient */
    tmpreg |= DigitalFilter << 8U;
 8002794:	683b      	ldr	r3, [r7, #0]
 8002796:	021b      	lsls	r3, r3, #8
 8002798:	68fa      	ldr	r2, [r7, #12]
 800279a:	4313      	orrs	r3, r2
 800279c:	60fb      	str	r3, [r7, #12]

    /* Store the new register value */
    hi2c->Instance->CR1 = tmpreg;
 800279e:	687b      	ldr	r3, [r7, #4]
 80027a0:	681b      	ldr	r3, [r3, #0]
 80027a2:	68fa      	ldr	r2, [r7, #12]
 80027a4:	601a      	str	r2, [r3, #0]

    __HAL_I2C_ENABLE(hi2c);
 80027a6:	687b      	ldr	r3, [r7, #4]
 80027a8:	681b      	ldr	r3, [r3, #0]
 80027aa:	681a      	ldr	r2, [r3, #0]
 80027ac:	687b      	ldr	r3, [r7, #4]
 80027ae:	681b      	ldr	r3, [r3, #0]
 80027b0:	2101      	movs	r1, #1
 80027b2:	430a      	orrs	r2, r1
 80027b4:	601a      	str	r2, [r3, #0]

    hi2c->State = HAL_I2C_STATE_READY;
 80027b6:	687b      	ldr	r3, [r7, #4]
 80027b8:	2241      	movs	r2, #65	; 0x41
 80027ba:	2120      	movs	r1, #32
 80027bc:	5499      	strb	r1, [r3, r2]

    /* Process Unlocked */
    __HAL_UNLOCK(hi2c);
 80027be:	687b      	ldr	r3, [r7, #4]
 80027c0:	2240      	movs	r2, #64	; 0x40
 80027c2:	2100      	movs	r1, #0
 80027c4:	5499      	strb	r1, [r3, r2]

    return HAL_OK;
 80027c6:	2300      	movs	r3, #0
 80027c8:	e000      	b.n	80027cc <HAL_I2CEx_ConfigDigitalFilter+0x8c>
  }
  else
  {
    return HAL_BUSY;
 80027ca:	2302      	movs	r3, #2
  }
}
 80027cc:	0018      	movs	r0, r3
 80027ce:	46bd      	mov	sp, r7
 80027d0:	b004      	add	sp, #16
 80027d2:	bd80      	pop	{r7, pc}
 80027d4:	fffff0ff 	.word	0xfffff0ff

080027d8 <HAL_PWREx_ControlVoltageScaling>:
  *        cleared before returning the status. If the flag is not cleared within
  *        6 microseconds, HAL_TIMEOUT status is reported.
  * @retval HAL Status
  */
HAL_StatusTypeDef HAL_PWREx_ControlVoltageScaling(uint32_t VoltageScaling)
{
 80027d8:	b580      	push	{r7, lr}
 80027da:	b084      	sub	sp, #16
 80027dc:	af00      	add	r7, sp, #0
 80027de:	6078      	str	r0, [r7, #4]
  uint32_t wait_loop_index;

  assert_param(IS_PWR_VOLTAGE_SCALING_RANGE(VoltageScaling));

  /* Modify voltage scaling range */
  MODIFY_REG(PWR->CR1, PWR_CR1_VOS, VoltageScaling);
 80027e0:	4b19      	ldr	r3, [pc, #100]	; (8002848 <HAL_PWREx_ControlVoltageScaling+0x70>)
 80027e2:	681b      	ldr	r3, [r3, #0]
 80027e4:	4a19      	ldr	r2, [pc, #100]	; (800284c <HAL_PWREx_ControlVoltageScaling+0x74>)
 80027e6:	4013      	ands	r3, r2
 80027e8:	0019      	movs	r1, r3
 80027ea:	4b17      	ldr	r3, [pc, #92]	; (8002848 <HAL_PWREx_ControlVoltageScaling+0x70>)
 80027ec:	687a      	ldr	r2, [r7, #4]
 80027ee:	430a      	orrs	r2, r1
 80027f0:	601a      	str	r2, [r3, #0]

  /* In case of Range 1 selected, we need to ensure that main regulator reaches new value */
  if (VoltageScaling == PWR_REGULATOR_VOLTAGE_SCALE1)
 80027f2:	687a      	ldr	r2, [r7, #4]
 80027f4:	2380      	movs	r3, #128	; 0x80
 80027f6:	009b      	lsls	r3, r3, #2
 80027f8:	429a      	cmp	r2, r3
 80027fa:	d11f      	bne.n	800283c <HAL_PWREx_ControlVoltageScaling+0x64>
  {
    /* Set timeout value */
    wait_loop_index = ((PWR_VOSF_SETTING_DELAY_6_US * SystemCoreClock) / 1000000U) + 1U;
 80027fc:	4b14      	ldr	r3, [pc, #80]	; (8002850 <HAL_PWREx_ControlVoltageScaling+0x78>)
 80027fe:	681a      	ldr	r2, [r3, #0]
 8002800:	0013      	movs	r3, r2
 8002802:	005b      	lsls	r3, r3, #1
 8002804:	189b      	adds	r3, r3, r2
 8002806:	005b      	lsls	r3, r3, #1
 8002808:	4912      	ldr	r1, [pc, #72]	; (8002854 <HAL_PWREx_ControlVoltageScaling+0x7c>)
 800280a:	0018      	movs	r0, r3
 800280c:	f7fd fc7a 	bl	8000104 <__udivsi3>
 8002810:	0003      	movs	r3, r0
 8002812:	3301      	adds	r3, #1
 8002814:	60fb      	str	r3, [r7, #12]

    /* Wait until VOSF is reset */
    while (HAL_IS_BIT_SET(PWR->SR2, PWR_SR2_VOSF))
 8002816:	e008      	b.n	800282a <HAL_PWREx_ControlVoltageScaling+0x52>
    {
      if (wait_loop_index != 0U)
 8002818:	68fb      	ldr	r3, [r7, #12]
 800281a:	2b00      	cmp	r3, #0
 800281c:	d003      	beq.n	8002826 <HAL_PWREx_ControlVoltageScaling+0x4e>
      {
        wait_loop_index--;
 800281e:	68fb      	ldr	r3, [r7, #12]
 8002820:	3b01      	subs	r3, #1
 8002822:	60fb      	str	r3, [r7, #12]
 8002824:	e001      	b.n	800282a <HAL_PWREx_ControlVoltageScaling+0x52>
      }
      else
      {
        return HAL_TIMEOUT;
 8002826:	2303      	movs	r3, #3
 8002828:	e009      	b.n	800283e <HAL_PWREx_ControlVoltageScaling+0x66>
    while (HAL_IS_BIT_SET(PWR->SR2, PWR_SR2_VOSF))
 800282a:	4b07      	ldr	r3, [pc, #28]	; (8002848 <HAL_PWREx_ControlVoltageScaling+0x70>)
 800282c:	695a      	ldr	r2, [r3, #20]
 800282e:	2380      	movs	r3, #128	; 0x80
 8002830:	00db      	lsls	r3, r3, #3
 8002832:	401a      	ands	r2, r3
 8002834:	2380      	movs	r3, #128	; 0x80
 8002836:	00db      	lsls	r3, r3, #3
 8002838:	429a      	cmp	r2, r3
 800283a:	d0ed      	beq.n	8002818 <HAL_PWREx_ControlVoltageScaling+0x40>
      }
    }
  }

  return HAL_OK;
 800283c:	2300      	movs	r3, #0
}
 800283e:	0018      	movs	r0, r3
 8002840:	46bd      	mov	sp, r7
 8002842:	b004      	add	sp, #16
 8002844:	bd80      	pop	{r7, pc}
 8002846:	46c0      	nop			; (mov r8, r8)
 8002848:	40007000 	.word	0x40007000
 800284c:	fffff9ff 	.word	0xfffff9ff
 8002850:	20000000 	.word	0x20000000
 8002854:	000f4240 	.word	0x000f4240

08002858 <LL_RCC_GetAPB1Prescaler>:
  *         @arg @ref LL_RCC_APB1_DIV_4
  *         @arg @ref LL_RCC_APB1_DIV_8
  *         @arg @ref LL_RCC_APB1_DIV_16
  */
__STATIC_INLINE uint32_t LL_RCC_GetAPB1Prescaler(void)
{
 8002858:	b580      	push	{r7, lr}
 800285a:	af00      	add	r7, sp, #0
  return (uint32_t)(READ_BIT(RCC->CFGR, RCC_CFGR_PPRE));
 800285c:	4b03      	ldr	r3, [pc, #12]	; (800286c <LL_RCC_GetAPB1Prescaler+0x14>)
 800285e:	689a      	ldr	r2, [r3, #8]
 8002860:	23e0      	movs	r3, #224	; 0xe0
 8002862:	01db      	lsls	r3, r3, #7
 8002864:	4013      	ands	r3, r2
}
 8002866:	0018      	movs	r0, r3
 8002868:	46bd      	mov	sp, r7
 800286a:	bd80      	pop	{r7, pc}
 800286c:	40021000 	.word	0x40021000

08002870 <HAL_RCC_OscConfig>:
  *         supported by this function. User should request a transition to LSE Off
  *         first and then to LSE On or LSE Bypass.
  * @retval HAL status
  */
HAL_StatusTypeDef HAL_RCC_OscConfig(RCC_OscInitTypeDef  *RCC_OscInitStruct)
{
 8002870:	b580      	push	{r7, lr}
 8002872:	b088      	sub	sp, #32
 8002874:	af00      	add	r7, sp, #0
 8002876:	6078      	str	r0, [r7, #4]
  uint32_t tickstart;
  uint32_t temp_sysclksrc;
  uint32_t temp_pllckcfg;

  /* Check Null pointer */
  if (RCC_OscInitStruct == NULL)
 8002878:	687b      	ldr	r3, [r7, #4]
 800287a:	2b00      	cmp	r3, #0
 800287c:	d102      	bne.n	8002884 <HAL_RCC_OscConfig+0x14>
  {
    return HAL_ERROR;
 800287e:	2301      	movs	r3, #1
 8002880:	f000 fb50 	bl	8002f24 <HAL_RCC_OscConfig+0x6b4>

  /* Check the parameters */
  assert_param(IS_RCC_OSCILLATORTYPE(RCC_OscInitStruct->OscillatorType));

  /*------------------------------- HSE Configuration ------------------------*/
  if (((RCC_OscInitStruct->OscillatorType) & RCC_OSCILLATORTYPE_HSE) == RCC_OSCILLATORTYPE_HSE)
 8002884:	687b      	ldr	r3, [r7, #4]
 8002886:	681b      	ldr	r3, [r3, #0]
 8002888:	2201      	movs	r2, #1
 800288a:	4013      	ands	r3, r2
 800288c:	d100      	bne.n	8002890 <HAL_RCC_OscConfig+0x20>
 800288e:	e07c      	b.n	800298a <HAL_RCC_OscConfig+0x11a>
  {
    /* Check the parameters */
    assert_param(IS_RCC_HSE(RCC_OscInitStruct->HSEState));

    temp_sysclksrc = __HAL_RCC_GET_SYSCLK_SOURCE();
 8002890:	4bc3      	ldr	r3, [pc, #780]	; (8002ba0 <HAL_RCC_OscConfig+0x330>)
 8002892:	689b      	ldr	r3, [r3, #8]
 8002894:	2238      	movs	r2, #56	; 0x38
 8002896:	4013      	ands	r3, r2
 8002898:	61bb      	str	r3, [r7, #24]
    temp_pllckcfg = __HAL_RCC_GET_PLL_OSCSOURCE();
 800289a:	4bc1      	ldr	r3, [pc, #772]	; (8002ba0 <HAL_RCC_OscConfig+0x330>)
 800289c:	68db      	ldr	r3, [r3, #12]
 800289e:	2203      	movs	r2, #3
 80028a0:	4013      	ands	r3, r2
 80028a2:	617b      	str	r3, [r7, #20]

    /* When the HSE is used as system clock or clock source for PLL in these cases it is not allowed to be disabled */
    if (((temp_sysclksrc == RCC_SYSCLKSOURCE_STATUS_PLLCLK) && (temp_pllckcfg == RCC_PLLSOURCE_HSE))
 80028a4:	69bb      	ldr	r3, [r7, #24]
 80028a6:	2b10      	cmp	r3, #16
 80028a8:	d102      	bne.n	80028b0 <HAL_RCC_OscConfig+0x40>
 80028aa:	697b      	ldr	r3, [r7, #20]
 80028ac:	2b03      	cmp	r3, #3
 80028ae:	d002      	beq.n	80028b6 <HAL_RCC_OscConfig+0x46>
        || (temp_sysclksrc == RCC_SYSCLKSOURCE_STATUS_HSE))
 80028b0:	69bb      	ldr	r3, [r7, #24]
 80028b2:	2b08      	cmp	r3, #8
 80028b4:	d10b      	bne.n	80028ce <HAL_RCC_OscConfig+0x5e>
    {
      if ((READ_BIT(RCC->CR, RCC_CR_HSERDY) != 0U) && (RCC_OscInitStruct->HSEState == RCC_HSE_OFF))
 80028b6:	4bba      	ldr	r3, [pc, #744]	; (8002ba0 <HAL_RCC_OscConfig+0x330>)
 80028b8:	681a      	ldr	r2, [r3, #0]
 80028ba:	2380      	movs	r3, #128	; 0x80
 80028bc:	029b      	lsls	r3, r3, #10
 80028be:	4013      	ands	r3, r2
 80028c0:	d062      	beq.n	8002988 <HAL_RCC_OscConfig+0x118>
 80028c2:	687b      	ldr	r3, [r7, #4]
 80028c4:	685b      	ldr	r3, [r3, #4]
 80028c6:	2b00      	cmp	r3, #0
 80028c8:	d15e      	bne.n	8002988 <HAL_RCC_OscConfig+0x118>
      {
        return HAL_ERROR;
 80028ca:	2301      	movs	r3, #1
 80028cc:	e32a      	b.n	8002f24 <HAL_RCC_OscConfig+0x6b4>
      }
    }
    else
    {
      /* Set the new HSE configuration ---------------------------------------*/
      __HAL_RCC_HSE_CONFIG(RCC_OscInitStruct->HSEState);
 80028ce:	687b      	ldr	r3, [r7, #4]
 80028d0:	685a      	ldr	r2, [r3, #4]
 80028d2:	2380      	movs	r3, #128	; 0x80
 80028d4:	025b      	lsls	r3, r3, #9
 80028d6:	429a      	cmp	r2, r3
 80028d8:	d107      	bne.n	80028ea <HAL_RCC_OscConfig+0x7a>
 80028da:	4bb1      	ldr	r3, [pc, #708]	; (8002ba0 <HAL_RCC_OscConfig+0x330>)
 80028dc:	681a      	ldr	r2, [r3, #0]
 80028de:	4bb0      	ldr	r3, [pc, #704]	; (8002ba0 <HAL_RCC_OscConfig+0x330>)
 80028e0:	2180      	movs	r1, #128	; 0x80
 80028e2:	0249      	lsls	r1, r1, #9
 80028e4:	430a      	orrs	r2, r1
 80028e6:	601a      	str	r2, [r3, #0]
 80028e8:	e020      	b.n	800292c <HAL_RCC_OscConfig+0xbc>
 80028ea:	687b      	ldr	r3, [r7, #4]
 80028ec:	685a      	ldr	r2, [r3, #4]
 80028ee:	23a0      	movs	r3, #160	; 0xa0
 80028f0:	02db      	lsls	r3, r3, #11
 80028f2:	429a      	cmp	r2, r3
 80028f4:	d10e      	bne.n	8002914 <HAL_RCC_OscConfig+0xa4>
 80028f6:	4baa      	ldr	r3, [pc, #680]	; (8002ba0 <HAL_RCC_OscConfig+0x330>)
 80028f8:	681a      	ldr	r2, [r3, #0]
 80028fa:	4ba9      	ldr	r3, [pc, #676]	; (8002ba0 <HAL_RCC_OscConfig+0x330>)
 80028fc:	2180      	movs	r1, #128	; 0x80
 80028fe:	02c9      	lsls	r1, r1, #11
 8002900:	430a      	orrs	r2, r1
 8002902:	601a      	str	r2, [r3, #0]
 8002904:	4ba6      	ldr	r3, [pc, #664]	; (8002ba0 <HAL_RCC_OscConfig+0x330>)
 8002906:	681a      	ldr	r2, [r3, #0]
 8002908:	4ba5      	ldr	r3, [pc, #660]	; (8002ba0 <HAL_RCC_OscConfig+0x330>)
 800290a:	2180      	movs	r1, #128	; 0x80
 800290c:	0249      	lsls	r1, r1, #9
 800290e:	430a      	orrs	r2, r1
 8002910:	601a      	str	r2, [r3, #0]
 8002912:	e00b      	b.n	800292c <HAL_RCC_OscConfig+0xbc>
 8002914:	4ba2      	ldr	r3, [pc, #648]	; (8002ba0 <HAL_RCC_OscConfig+0x330>)
 8002916:	681a      	ldr	r2, [r3, #0]
 8002918:	4ba1      	ldr	r3, [pc, #644]	; (8002ba0 <HAL_RCC_OscConfig+0x330>)
 800291a:	49a2      	ldr	r1, [pc, #648]	; (8002ba4 <HAL_RCC_OscConfig+0x334>)
 800291c:	400a      	ands	r2, r1
 800291e:	601a      	str	r2, [r3, #0]
 8002920:	4b9f      	ldr	r3, [pc, #636]	; (8002ba0 <HAL_RCC_OscConfig+0x330>)
 8002922:	681a      	ldr	r2, [r3, #0]
 8002924:	4b9e      	ldr	r3, [pc, #632]	; (8002ba0 <HAL_RCC_OscConfig+0x330>)
 8002926:	49a0      	ldr	r1, [pc, #640]	; (8002ba8 <HAL_RCC_OscConfig+0x338>)
 8002928:	400a      	ands	r2, r1
 800292a:	601a      	str	r2, [r3, #0]

      /* Check the HSE State */
      if (RCC_OscInitStruct->HSEState != RCC_HSE_OFF)
 800292c:	687b      	ldr	r3, [r7, #4]
 800292e:	685b      	ldr	r3, [r3, #4]
 8002930:	2b00      	cmp	r3, #0
 8002932:	d014      	beq.n	800295e <HAL_RCC_OscConfig+0xee>
      {
        /* Get Start Tick*/
        tickstart = HAL_GetTick();
 8002934:	f7fe fd70 	bl	8001418 <HAL_GetTick>
 8002938:	0003      	movs	r3, r0
 800293a:	613b      	str	r3, [r7, #16]

        /* Wait till HSE is ready */
        while (READ_BIT(RCC->CR, RCC_CR_HSERDY) == 0U)
 800293c:	e008      	b.n	8002950 <HAL_RCC_OscConfig+0xe0>
        {
          if ((HAL_GetTick() - tickstart) > HSE_TIMEOUT_VALUE)
 800293e:	f7fe fd6b 	bl	8001418 <HAL_GetTick>
 8002942:	0002      	movs	r2, r0
 8002944:	693b      	ldr	r3, [r7, #16]
 8002946:	1ad3      	subs	r3, r2, r3
 8002948:	2b64      	cmp	r3, #100	; 0x64
 800294a:	d901      	bls.n	8002950 <HAL_RCC_OscConfig+0xe0>
          {
            return HAL_TIMEOUT;
 800294c:	2303      	movs	r3, #3
 800294e:	e2e9      	b.n	8002f24 <HAL_RCC_OscConfig+0x6b4>
        while (READ_BIT(RCC->CR, RCC_CR_HSERDY) == 0U)
 8002950:	4b93      	ldr	r3, [pc, #588]	; (8002ba0 <HAL_RCC_OscConfig+0x330>)
 8002952:	681a      	ldr	r2, [r3, #0]
 8002954:	2380      	movs	r3, #128	; 0x80
 8002956:	029b      	lsls	r3, r3, #10
 8002958:	4013      	ands	r3, r2
 800295a:	d0f0      	beq.n	800293e <HAL_RCC_OscConfig+0xce>
 800295c:	e015      	b.n	800298a <HAL_RCC_OscConfig+0x11a>
        }
      }
      else
      {
        /* Get Start Tick*/
        tickstart = HAL_GetTick();
 800295e:	f7fe fd5b 	bl	8001418 <HAL_GetTick>
 8002962:	0003      	movs	r3, r0
 8002964:	613b      	str	r3, [r7, #16]

        /* Wait till HSE is disabled */
        while (READ_BIT(RCC->CR, RCC_CR_HSERDY) != 0U)
 8002966:	e008      	b.n	800297a <HAL_RCC_OscConfig+0x10a>
        {
          if ((HAL_GetTick() - tickstart) > HSE_TIMEOUT_VALUE)
 8002968:	f7fe fd56 	bl	8001418 <HAL_GetTick>
 800296c:	0002      	movs	r2, r0
 800296e:	693b      	ldr	r3, [r7, #16]
 8002970:	1ad3      	subs	r3, r2, r3
 8002972:	2b64      	cmp	r3, #100	; 0x64
 8002974:	d901      	bls.n	800297a <HAL_RCC_OscConfig+0x10a>
          {
            return HAL_TIMEOUT;
 8002976:	2303      	movs	r3, #3
 8002978:	e2d4      	b.n	8002f24 <HAL_RCC_OscConfig+0x6b4>
        while (READ_BIT(RCC->CR, RCC_CR_HSERDY) != 0U)
 800297a:	4b89      	ldr	r3, [pc, #548]	; (8002ba0 <HAL_RCC_OscConfig+0x330>)
 800297c:	681a      	ldr	r2, [r3, #0]
 800297e:	2380      	movs	r3, #128	; 0x80
 8002980:	029b      	lsls	r3, r3, #10
 8002982:	4013      	ands	r3, r2
 8002984:	d1f0      	bne.n	8002968 <HAL_RCC_OscConfig+0xf8>
 8002986:	e000      	b.n	800298a <HAL_RCC_OscConfig+0x11a>
      if ((READ_BIT(RCC->CR, RCC_CR_HSERDY) != 0U) && (RCC_OscInitStruct->HSEState == RCC_HSE_OFF))
 8002988:	46c0      	nop			; (mov r8, r8)
        }
      }
    }
  }
  /*----------------------------- HSI Configuration --------------------------*/
  if (((RCC_OscInitStruct->OscillatorType) & RCC_OSCILLATORTYPE_HSI) == RCC_OSCILLATORTYPE_HSI)
 800298a:	687b      	ldr	r3, [r7, #4]
 800298c:	681b      	ldr	r3, [r3, #0]
 800298e:	2202      	movs	r2, #2
 8002990:	4013      	ands	r3, r2
 8002992:	d100      	bne.n	8002996 <HAL_RCC_OscConfig+0x126>
 8002994:	e099      	b.n	8002aca <HAL_RCC_OscConfig+0x25a>
    assert_param(IS_RCC_HSI(RCC_OscInitStruct->HSIState));
    assert_param(IS_RCC_HSI_CALIBRATION_VALUE(RCC_OscInitStruct->HSICalibrationValue));
    assert_param(IS_RCC_HSIDIV(RCC_OscInitStruct->HSIDiv));

    /* Check if HSI16 is used as system clock or as PLL source when PLL is selected as system clock */
    temp_sysclksrc = __HAL_RCC_GET_SYSCLK_SOURCE();
 8002996:	4b82      	ldr	r3, [pc, #520]	; (8002ba0 <HAL_RCC_OscConfig+0x330>)
 8002998:	689b      	ldr	r3, [r3, #8]
 800299a:	2238      	movs	r2, #56	; 0x38
 800299c:	4013      	ands	r3, r2
 800299e:	61bb      	str	r3, [r7, #24]
    temp_pllckcfg = __HAL_RCC_GET_PLL_OSCSOURCE();
 80029a0:	4b7f      	ldr	r3, [pc, #508]	; (8002ba0 <HAL_RCC_OscConfig+0x330>)
 80029a2:	68db      	ldr	r3, [r3, #12]
 80029a4:	2203      	movs	r2, #3
 80029a6:	4013      	ands	r3, r2
 80029a8:	617b      	str	r3, [r7, #20]
    if (((temp_sysclksrc == RCC_SYSCLKSOURCE_STATUS_PLLCLK) && (temp_pllckcfg == RCC_PLLSOURCE_HSI))
 80029aa:	69bb      	ldr	r3, [r7, #24]
 80029ac:	2b10      	cmp	r3, #16
 80029ae:	d102      	bne.n	80029b6 <HAL_RCC_OscConfig+0x146>
 80029b0:	697b      	ldr	r3, [r7, #20]
 80029b2:	2b02      	cmp	r3, #2
 80029b4:	d002      	beq.n	80029bc <HAL_RCC_OscConfig+0x14c>
        || (temp_sysclksrc == RCC_SYSCLKSOURCE_STATUS_HSI))
 80029b6:	69bb      	ldr	r3, [r7, #24]
 80029b8:	2b00      	cmp	r3, #0
 80029ba:	d135      	bne.n	8002a28 <HAL_RCC_OscConfig+0x1b8>
    {
      /* When HSI is used as system clock or as PLL input clock it can not be disabled */
      if ((READ_BIT(RCC->CR, RCC_CR_HSIRDY) != 0U) && (RCC_OscInitStruct->HSIState == RCC_HSI_OFF))
 80029bc:	4b78      	ldr	r3, [pc, #480]	; (8002ba0 <HAL_RCC_OscConfig+0x330>)
 80029be:	681a      	ldr	r2, [r3, #0]
 80029c0:	2380      	movs	r3, #128	; 0x80
 80029c2:	00db      	lsls	r3, r3, #3
 80029c4:	4013      	ands	r3, r2
 80029c6:	d005      	beq.n	80029d4 <HAL_RCC_OscConfig+0x164>
 80029c8:	687b      	ldr	r3, [r7, #4]
 80029ca:	68db      	ldr	r3, [r3, #12]
 80029cc:	2b00      	cmp	r3, #0
 80029ce:	d101      	bne.n	80029d4 <HAL_RCC_OscConfig+0x164>
      {
        return HAL_ERROR;
 80029d0:	2301      	movs	r3, #1
 80029d2:	e2a7      	b.n	8002f24 <HAL_RCC_OscConfig+0x6b4>
      }
      /* Otherwise, just the calibration is allowed */
      else
      {
        /* Adjusts the Internal High Speed oscillator (HSI) calibration value.*/
        __HAL_RCC_HSI_CALIBRATIONVALUE_ADJUST(RCC_OscInitStruct->HSICalibrationValue);
 80029d4:	4b72      	ldr	r3, [pc, #456]	; (8002ba0 <HAL_RCC_OscConfig+0x330>)
 80029d6:	685b      	ldr	r3, [r3, #4]
 80029d8:	4a74      	ldr	r2, [pc, #464]	; (8002bac <HAL_RCC_OscConfig+0x33c>)
 80029da:	4013      	ands	r3, r2
 80029dc:	0019      	movs	r1, r3
 80029de:	687b      	ldr	r3, [r7, #4]
 80029e0:	695b      	ldr	r3, [r3, #20]
 80029e2:	021a      	lsls	r2, r3, #8
 80029e4:	4b6e      	ldr	r3, [pc, #440]	; (8002ba0 <HAL_RCC_OscConfig+0x330>)
 80029e6:	430a      	orrs	r2, r1
 80029e8:	605a      	str	r2, [r3, #4]

        if (temp_sysclksrc == RCC_SYSCLKSOURCE_STATUS_HSI)
 80029ea:	69bb      	ldr	r3, [r7, #24]
 80029ec:	2b00      	cmp	r3, #0
 80029ee:	d112      	bne.n	8002a16 <HAL_RCC_OscConfig+0x1a6>
        {
          /* Adjust the HSI16 division factor */
          __HAL_RCC_HSI_CONFIG(RCC_OscInitStruct->HSIDiv);
 80029f0:	4b6b      	ldr	r3, [pc, #428]	; (8002ba0 <HAL_RCC_OscConfig+0x330>)
 80029f2:	681b      	ldr	r3, [r3, #0]
 80029f4:	4a6e      	ldr	r2, [pc, #440]	; (8002bb0 <HAL_RCC_OscConfig+0x340>)
 80029f6:	4013      	ands	r3, r2
 80029f8:	0019      	movs	r1, r3
 80029fa:	687b      	ldr	r3, [r7, #4]
 80029fc:	691a      	ldr	r2, [r3, #16]
 80029fe:	4b68      	ldr	r3, [pc, #416]	; (8002ba0 <HAL_RCC_OscConfig+0x330>)
 8002a00:	430a      	orrs	r2, r1
 8002a02:	601a      	str	r2, [r3, #0]

          /* Update the SystemCoreClock global variable with HSISYS value  */
          SystemCoreClock = (HSI_VALUE / (1UL << ((READ_BIT(RCC->CR, RCC_CR_HSIDIV)) >> RCC_CR_HSIDIV_Pos)));
 8002a04:	4b66      	ldr	r3, [pc, #408]	; (8002ba0 <HAL_RCC_OscConfig+0x330>)
 8002a06:	681b      	ldr	r3, [r3, #0]
 8002a08:	0adb      	lsrs	r3, r3, #11
 8002a0a:	2207      	movs	r2, #7
 8002a0c:	4013      	ands	r3, r2
 8002a0e:	4a69      	ldr	r2, [pc, #420]	; (8002bb4 <HAL_RCC_OscConfig+0x344>)
 8002a10:	40da      	lsrs	r2, r3
 8002a12:	4b69      	ldr	r3, [pc, #420]	; (8002bb8 <HAL_RCC_OscConfig+0x348>)
 8002a14:	601a      	str	r2, [r3, #0]
        }

        /* Adapt Systick interrupt period */
        if (HAL_InitTick(uwTickPrio) != HAL_OK)
 8002a16:	4b69      	ldr	r3, [pc, #420]	; (8002bbc <HAL_RCC_OscConfig+0x34c>)
 8002a18:	681b      	ldr	r3, [r3, #0]
 8002a1a:	0018      	movs	r0, r3
 8002a1c:	f7fe fca0 	bl	8001360 <HAL_InitTick>
 8002a20:	1e03      	subs	r3, r0, #0
 8002a22:	d051      	beq.n	8002ac8 <HAL_RCC_OscConfig+0x258>
        {
          return HAL_ERROR;
 8002a24:	2301      	movs	r3, #1
 8002a26:	e27d      	b.n	8002f24 <HAL_RCC_OscConfig+0x6b4>
      }
    }
    else
    {
      /* Check the HSI State */
      if (RCC_OscInitStruct->HSIState != RCC_HSI_OFF)
 8002a28:	687b      	ldr	r3, [r7, #4]
 8002a2a:	68db      	ldr	r3, [r3, #12]
 8002a2c:	2b00      	cmp	r3, #0
 8002a2e:	d030      	beq.n	8002a92 <HAL_RCC_OscConfig+0x222>
      {
        /* Configure the HSI16 division factor */
        __HAL_RCC_HSI_CONFIG(RCC_OscInitStruct->HSIDiv);
 8002a30:	4b5b      	ldr	r3, [pc, #364]	; (8002ba0 <HAL_RCC_OscConfig+0x330>)
 8002a32:	681b      	ldr	r3, [r3, #0]
 8002a34:	4a5e      	ldr	r2, [pc, #376]	; (8002bb0 <HAL_RCC_OscConfig+0x340>)
 8002a36:	4013      	ands	r3, r2
 8002a38:	0019      	movs	r1, r3
 8002a3a:	687b      	ldr	r3, [r7, #4]
 8002a3c:	691a      	ldr	r2, [r3, #16]
 8002a3e:	4b58      	ldr	r3, [pc, #352]	; (8002ba0 <HAL_RCC_OscConfig+0x330>)
 8002a40:	430a      	orrs	r2, r1
 8002a42:	601a      	str	r2, [r3, #0]

        /* Enable the Internal High Speed oscillator (HSI16). */
        __HAL_RCC_HSI_ENABLE();
 8002a44:	4b56      	ldr	r3, [pc, #344]	; (8002ba0 <HAL_RCC_OscConfig+0x330>)
 8002a46:	681a      	ldr	r2, [r3, #0]
 8002a48:	4b55      	ldr	r3, [pc, #340]	; (8002ba0 <HAL_RCC_OscConfig+0x330>)
 8002a4a:	2180      	movs	r1, #128	; 0x80
 8002a4c:	0049      	lsls	r1, r1, #1
 8002a4e:	430a      	orrs	r2, r1
 8002a50:	601a      	str	r2, [r3, #0]

        /* Get Start Tick*/
        tickstart = HAL_GetTick();
 8002a52:	f7fe fce1 	bl	8001418 <HAL_GetTick>
 8002a56:	0003      	movs	r3, r0
 8002a58:	613b      	str	r3, [r7, #16]

        /* Wait till HSI is ready */
        while (READ_BIT(RCC->CR, RCC_CR_HSIRDY) == 0U)
 8002a5a:	e008      	b.n	8002a6e <HAL_RCC_OscConfig+0x1fe>
        {
          if ((HAL_GetTick() - tickstart) > HSI_TIMEOUT_VALUE)
 8002a5c:	f7fe fcdc 	bl	8001418 <HAL_GetTick>
 8002a60:	0002      	movs	r2, r0
 8002a62:	693b      	ldr	r3, [r7, #16]
 8002a64:	1ad3      	subs	r3, r2, r3
 8002a66:	2b02      	cmp	r3, #2
 8002a68:	d901      	bls.n	8002a6e <HAL_RCC_OscConfig+0x1fe>
          {
            return HAL_TIMEOUT;
 8002a6a:	2303      	movs	r3, #3
 8002a6c:	e25a      	b.n	8002f24 <HAL_RCC_OscConfig+0x6b4>
        while (READ_BIT(RCC->CR, RCC_CR_HSIRDY) == 0U)
 8002a6e:	4b4c      	ldr	r3, [pc, #304]	; (8002ba0 <HAL_RCC_OscConfig+0x330>)
 8002a70:	681a      	ldr	r2, [r3, #0]
 8002a72:	2380      	movs	r3, #128	; 0x80
 8002a74:	00db      	lsls	r3, r3, #3
 8002a76:	4013      	ands	r3, r2
 8002a78:	d0f0      	beq.n	8002a5c <HAL_RCC_OscConfig+0x1ec>
          }
        }

        /* Adjusts the Internal High Speed oscillator (HSI) calibration value.*/
        __HAL_RCC_HSI_CALIBRATIONVALUE_ADJUST(RCC_OscInitStruct->HSICalibrationValue);
 8002a7a:	4b49      	ldr	r3, [pc, #292]	; (8002ba0 <HAL_RCC_OscConfig+0x330>)
 8002a7c:	685b      	ldr	r3, [r3, #4]
 8002a7e:	4a4b      	ldr	r2, [pc, #300]	; (8002bac <HAL_RCC_OscConfig+0x33c>)
 8002a80:	4013      	ands	r3, r2
 8002a82:	0019      	movs	r1, r3
 8002a84:	687b      	ldr	r3, [r7, #4]
 8002a86:	695b      	ldr	r3, [r3, #20]
 8002a88:	021a      	lsls	r2, r3, #8
 8002a8a:	4b45      	ldr	r3, [pc, #276]	; (8002ba0 <HAL_RCC_OscConfig+0x330>)
 8002a8c:	430a      	orrs	r2, r1
 8002a8e:	605a      	str	r2, [r3, #4]
 8002a90:	e01b      	b.n	8002aca <HAL_RCC_OscConfig+0x25a>
      }
      else
      {
        /* Disable the Internal High Speed oscillator (HSI16). */
        __HAL_RCC_HSI_DISABLE();
 8002a92:	4b43      	ldr	r3, [pc, #268]	; (8002ba0 <HAL_RCC_OscConfig+0x330>)
 8002a94:	681a      	ldr	r2, [r3, #0]
 8002a96:	4b42      	ldr	r3, [pc, #264]	; (8002ba0 <HAL_RCC_OscConfig+0x330>)
 8002a98:	4949      	ldr	r1, [pc, #292]	; (8002bc0 <HAL_RCC_OscConfig+0x350>)
 8002a9a:	400a      	ands	r2, r1
 8002a9c:	601a      	str	r2, [r3, #0]

        /* Get Start Tick*/
        tickstart = HAL_GetTick();
 8002a9e:	f7fe fcbb 	bl	8001418 <HAL_GetTick>
 8002aa2:	0003      	movs	r3, r0
 8002aa4:	613b      	str	r3, [r7, #16]

        /* Wait till HSI is disabled */
        while (READ_BIT(RCC->CR, RCC_CR_HSIRDY) != 0U)
 8002aa6:	e008      	b.n	8002aba <HAL_RCC_OscConfig+0x24a>
        {
          if ((HAL_GetTick() - tickstart) > HSI_TIMEOUT_VALUE)
 8002aa8:	f7fe fcb6 	bl	8001418 <HAL_GetTick>
 8002aac:	0002      	movs	r2, r0
 8002aae:	693b      	ldr	r3, [r7, #16]
 8002ab0:	1ad3      	subs	r3, r2, r3
 8002ab2:	2b02      	cmp	r3, #2
 8002ab4:	d901      	bls.n	8002aba <HAL_RCC_OscConfig+0x24a>
          {
            return HAL_TIMEOUT;
 8002ab6:	2303      	movs	r3, #3
 8002ab8:	e234      	b.n	8002f24 <HAL_RCC_OscConfig+0x6b4>
        while (READ_BIT(RCC->CR, RCC_CR_HSIRDY) != 0U)
 8002aba:	4b39      	ldr	r3, [pc, #228]	; (8002ba0 <HAL_RCC_OscConfig+0x330>)
 8002abc:	681a      	ldr	r2, [r3, #0]
 8002abe:	2380      	movs	r3, #128	; 0x80
 8002ac0:	00db      	lsls	r3, r3, #3
 8002ac2:	4013      	ands	r3, r2
 8002ac4:	d1f0      	bne.n	8002aa8 <HAL_RCC_OscConfig+0x238>
 8002ac6:	e000      	b.n	8002aca <HAL_RCC_OscConfig+0x25a>
      if ((READ_BIT(RCC->CR, RCC_CR_HSIRDY) != 0U) && (RCC_OscInitStruct->HSIState == RCC_HSI_OFF))
 8002ac8:	46c0      	nop			; (mov r8, r8)
        }
      }
    }
  }
  /*------------------------------ LSI Configuration -------------------------*/
  if (((RCC_OscInitStruct->OscillatorType) & RCC_OSCILLATORTYPE_LSI) == RCC_OSCILLATORTYPE_LSI)
 8002aca:	687b      	ldr	r3, [r7, #4]
 8002acc:	681b      	ldr	r3, [r3, #0]
 8002ace:	2208      	movs	r2, #8
 8002ad0:	4013      	ands	r3, r2
 8002ad2:	d047      	beq.n	8002b64 <HAL_RCC_OscConfig+0x2f4>
  {
    /* Check the parameters */
    assert_param(IS_RCC_LSI(RCC_OscInitStruct->LSIState));

    /* Check if LSI is used as system clock */
    if (__HAL_RCC_GET_SYSCLK_SOURCE() == RCC_SYSCLKSOURCE_STATUS_LSI)
 8002ad4:	4b32      	ldr	r3, [pc, #200]	; (8002ba0 <HAL_RCC_OscConfig+0x330>)
 8002ad6:	689b      	ldr	r3, [r3, #8]
 8002ad8:	2238      	movs	r2, #56	; 0x38
 8002ada:	4013      	ands	r3, r2
 8002adc:	2b18      	cmp	r3, #24
 8002ade:	d10a      	bne.n	8002af6 <HAL_RCC_OscConfig+0x286>
    {
      /* When LSI is used as system clock it will not be disabled */
      if ((((RCC->CSR) & RCC_CSR_LSIRDY) != 0U) && (RCC_OscInitStruct->LSIState == RCC_LSI_OFF))
 8002ae0:	4b2f      	ldr	r3, [pc, #188]	; (8002ba0 <HAL_RCC_OscConfig+0x330>)
 8002ae2:	6e1b      	ldr	r3, [r3, #96]	; 0x60
 8002ae4:	2202      	movs	r2, #2
 8002ae6:	4013      	ands	r3, r2
 8002ae8:	d03c      	beq.n	8002b64 <HAL_RCC_OscConfig+0x2f4>
 8002aea:	687b      	ldr	r3, [r7, #4]
 8002aec:	699b      	ldr	r3, [r3, #24]
 8002aee:	2b00      	cmp	r3, #0
 8002af0:	d138      	bne.n	8002b64 <HAL_RCC_OscConfig+0x2f4>
      {
        return HAL_ERROR;
 8002af2:	2301      	movs	r3, #1
 8002af4:	e216      	b.n	8002f24 <HAL_RCC_OscConfig+0x6b4>
      }
    }
    else
    {
      /* Check the LSI State */
      if (RCC_OscInitStruct->LSIState != RCC_LSI_OFF)
 8002af6:	687b      	ldr	r3, [r7, #4]
 8002af8:	699b      	ldr	r3, [r3, #24]
 8002afa:	2b00      	cmp	r3, #0
 8002afc:	d019      	beq.n	8002b32 <HAL_RCC_OscConfig+0x2c2>
      {
        /* Enable the Internal Low Speed oscillator (LSI). */
        __HAL_RCC_LSI_ENABLE();
 8002afe:	4b28      	ldr	r3, [pc, #160]	; (8002ba0 <HAL_RCC_OscConfig+0x330>)
 8002b00:	6e1a      	ldr	r2, [r3, #96]	; 0x60
 8002b02:	4b27      	ldr	r3, [pc, #156]	; (8002ba0 <HAL_RCC_OscConfig+0x330>)
 8002b04:	2101      	movs	r1, #1
 8002b06:	430a      	orrs	r2, r1
 8002b08:	661a      	str	r2, [r3, #96]	; 0x60

        /* Get Start Tick*/
        tickstart = HAL_GetTick();
 8002b0a:	f7fe fc85 	bl	8001418 <HAL_GetTick>
 8002b0e:	0003      	movs	r3, r0
 8002b10:	613b      	str	r3, [r7, #16]

        /* Wait till LSI is ready */
        while (READ_BIT(RCC->CSR, RCC_CSR_LSIRDY) == 0U)
 8002b12:	e008      	b.n	8002b26 <HAL_RCC_OscConfig+0x2b6>
        {
          if ((HAL_GetTick() - tickstart) > LSI_TIMEOUT_VALUE)
 8002b14:	f7fe fc80 	bl	8001418 <HAL_GetTick>
 8002b18:	0002      	movs	r2, r0
 8002b1a:	693b      	ldr	r3, [r7, #16]
 8002b1c:	1ad3      	subs	r3, r2, r3
 8002b1e:	2b02      	cmp	r3, #2
 8002b20:	d901      	bls.n	8002b26 <HAL_RCC_OscConfig+0x2b6>
          {
            return HAL_TIMEOUT;
 8002b22:	2303      	movs	r3, #3
 8002b24:	e1fe      	b.n	8002f24 <HAL_RCC_OscConfig+0x6b4>
        while (READ_BIT(RCC->CSR, RCC_CSR_LSIRDY) == 0U)
 8002b26:	4b1e      	ldr	r3, [pc, #120]	; (8002ba0 <HAL_RCC_OscConfig+0x330>)
 8002b28:	6e1b      	ldr	r3, [r3, #96]	; 0x60
 8002b2a:	2202      	movs	r2, #2
 8002b2c:	4013      	ands	r3, r2
 8002b2e:	d0f1      	beq.n	8002b14 <HAL_RCC_OscConfig+0x2a4>
 8002b30:	e018      	b.n	8002b64 <HAL_RCC_OscConfig+0x2f4>
        }
      }
      else
      {
        /* Disable the Internal Low Speed oscillator (LSI). */
        __HAL_RCC_LSI_DISABLE();
 8002b32:	4b1b      	ldr	r3, [pc, #108]	; (8002ba0 <HAL_RCC_OscConfig+0x330>)
 8002b34:	6e1a      	ldr	r2, [r3, #96]	; 0x60
 8002b36:	4b1a      	ldr	r3, [pc, #104]	; (8002ba0 <HAL_RCC_OscConfig+0x330>)
 8002b38:	2101      	movs	r1, #1
 8002b3a:	438a      	bics	r2, r1
 8002b3c:	661a      	str	r2, [r3, #96]	; 0x60

        /* Get Start Tick*/
        tickstart = HAL_GetTick();
 8002b3e:	f7fe fc6b 	bl	8001418 <HAL_GetTick>
 8002b42:	0003      	movs	r3, r0
 8002b44:	613b      	str	r3, [r7, #16]

        /* Wait till LSI is disabled */
        while (READ_BIT(RCC->CSR, RCC_CSR_LSIRDY) != 0U)
 8002b46:	e008      	b.n	8002b5a <HAL_RCC_OscConfig+0x2ea>
        {
          if ((HAL_GetTick() - tickstart) > LSI_TIMEOUT_VALUE)
 8002b48:	f7fe fc66 	bl	8001418 <HAL_GetTick>
 8002b4c:	0002      	movs	r2, r0
 8002b4e:	693b      	ldr	r3, [r7, #16]
 8002b50:	1ad3      	subs	r3, r2, r3
 8002b52:	2b02      	cmp	r3, #2
 8002b54:	d901      	bls.n	8002b5a <HAL_RCC_OscConfig+0x2ea>
          {
            return HAL_TIMEOUT;
 8002b56:	2303      	movs	r3, #3
 8002b58:	e1e4      	b.n	8002f24 <HAL_RCC_OscConfig+0x6b4>
        while (READ_BIT(RCC->CSR, RCC_CSR_LSIRDY) != 0U)
 8002b5a:	4b11      	ldr	r3, [pc, #68]	; (8002ba0 <HAL_RCC_OscConfig+0x330>)
 8002b5c:	6e1b      	ldr	r3, [r3, #96]	; 0x60
 8002b5e:	2202      	movs	r2, #2
 8002b60:	4013      	ands	r3, r2
 8002b62:	d1f1      	bne.n	8002b48 <HAL_RCC_OscConfig+0x2d8>
        }
      }
    }
  }
  /*------------------------------ LSE Configuration -------------------------*/
  if (((RCC_OscInitStruct->OscillatorType) & RCC_OSCILLATORTYPE_LSE) == RCC_OSCILLATORTYPE_LSE)
 8002b64:	687b      	ldr	r3, [r7, #4]
 8002b66:	681b      	ldr	r3, [r3, #0]
 8002b68:	2204      	movs	r2, #4
 8002b6a:	4013      	ands	r3, r2
 8002b6c:	d100      	bne.n	8002b70 <HAL_RCC_OscConfig+0x300>
 8002b6e:	e0c7      	b.n	8002d00 <HAL_RCC_OscConfig+0x490>
  {
    FlagStatus       pwrclkchanged = RESET;
 8002b70:	231f      	movs	r3, #31
 8002b72:	18fb      	adds	r3, r7, r3
 8002b74:	2200      	movs	r2, #0
 8002b76:	701a      	strb	r2, [r3, #0]

    /* Check the parameters */
    assert_param(IS_RCC_LSE(RCC_OscInitStruct->LSEState));

    /* When the LSE is used as system clock, it is not allowed disable it */
    if (__HAL_RCC_GET_SYSCLK_SOURCE() == RCC_SYSCLKSOURCE_STATUS_LSE)
 8002b78:	4b09      	ldr	r3, [pc, #36]	; (8002ba0 <HAL_RCC_OscConfig+0x330>)
 8002b7a:	689b      	ldr	r3, [r3, #8]
 8002b7c:	2238      	movs	r2, #56	; 0x38
 8002b7e:	4013      	ands	r3, r2
 8002b80:	2b20      	cmp	r3, #32
 8002b82:	d11f      	bne.n	8002bc4 <HAL_RCC_OscConfig+0x354>
    {
      if ((((RCC->BDCR) & RCC_BDCR_LSERDY) != 0U) && (RCC_OscInitStruct->LSEState == RCC_LSE_OFF))
 8002b84:	4b06      	ldr	r3, [pc, #24]	; (8002ba0 <HAL_RCC_OscConfig+0x330>)
 8002b86:	6ddb      	ldr	r3, [r3, #92]	; 0x5c
 8002b88:	2202      	movs	r2, #2
 8002b8a:	4013      	ands	r3, r2
 8002b8c:	d100      	bne.n	8002b90 <HAL_RCC_OscConfig+0x320>
 8002b8e:	e0b7      	b.n	8002d00 <HAL_RCC_OscConfig+0x490>
 8002b90:	687b      	ldr	r3, [r7, #4]
 8002b92:	689b      	ldr	r3, [r3, #8]
 8002b94:	2b00      	cmp	r3, #0
 8002b96:	d000      	beq.n	8002b9a <HAL_RCC_OscConfig+0x32a>
 8002b98:	e0b2      	b.n	8002d00 <HAL_RCC_OscConfig+0x490>
      {
        return HAL_ERROR;
 8002b9a:	2301      	movs	r3, #1
 8002b9c:	e1c2      	b.n	8002f24 <HAL_RCC_OscConfig+0x6b4>
 8002b9e:	46c0      	nop			; (mov r8, r8)
 8002ba0:	40021000 	.word	0x40021000
 8002ba4:	fffeffff 	.word	0xfffeffff
 8002ba8:	fffbffff 	.word	0xfffbffff
 8002bac:	ffff80ff 	.word	0xffff80ff
 8002bb0:	ffffc7ff 	.word	0xffffc7ff
 8002bb4:	00f42400 	.word	0x00f42400
 8002bb8:	20000000 	.word	0x20000000
 8002bbc:	20000004 	.word	0x20000004
 8002bc0:	fffffeff 	.word	0xfffffeff
    }
    else
    {
      /* Update LSE configuration in Backup Domain control register    */
      /* Requires to enable write access to Backup Domain of necessary */
      if (__HAL_RCC_PWR_IS_CLK_DISABLED() != 0U)
 8002bc4:	4bb5      	ldr	r3, [pc, #724]	; (8002e9c <HAL_RCC_OscConfig+0x62c>)
 8002bc6:	6bda      	ldr	r2, [r3, #60]	; 0x3c
 8002bc8:	2380      	movs	r3, #128	; 0x80
 8002bca:	055b      	lsls	r3, r3, #21
 8002bcc:	4013      	ands	r3, r2
 8002bce:	d101      	bne.n	8002bd4 <HAL_RCC_OscConfig+0x364>
 8002bd0:	2301      	movs	r3, #1
 8002bd2:	e000      	b.n	8002bd6 <HAL_RCC_OscConfig+0x366>
 8002bd4:	2300      	movs	r3, #0
 8002bd6:	2b00      	cmp	r3, #0
 8002bd8:	d011      	beq.n	8002bfe <HAL_RCC_OscConfig+0x38e>
      {
        __HAL_RCC_PWR_CLK_ENABLE();
 8002bda:	4bb0      	ldr	r3, [pc, #704]	; (8002e9c <HAL_RCC_OscConfig+0x62c>)
 8002bdc:	6bda      	ldr	r2, [r3, #60]	; 0x3c
 8002bde:	4baf      	ldr	r3, [pc, #700]	; (8002e9c <HAL_RCC_OscConfig+0x62c>)
 8002be0:	2180      	movs	r1, #128	; 0x80
 8002be2:	0549      	lsls	r1, r1, #21
 8002be4:	430a      	orrs	r2, r1
 8002be6:	63da      	str	r2, [r3, #60]	; 0x3c
 8002be8:	4bac      	ldr	r3, [pc, #688]	; (8002e9c <HAL_RCC_OscConfig+0x62c>)
 8002bea:	6bda      	ldr	r2, [r3, #60]	; 0x3c
 8002bec:	2380      	movs	r3, #128	; 0x80
 8002bee:	055b      	lsls	r3, r3, #21
 8002bf0:	4013      	ands	r3, r2
 8002bf2:	60fb      	str	r3, [r7, #12]
 8002bf4:	68fb      	ldr	r3, [r7, #12]
        pwrclkchanged = SET;
 8002bf6:	231f      	movs	r3, #31
 8002bf8:	18fb      	adds	r3, r7, r3
 8002bfa:	2201      	movs	r2, #1
 8002bfc:	701a      	strb	r2, [r3, #0]
      }

      if (HAL_IS_BIT_CLR(PWR->CR1, PWR_CR1_DBP))
 8002bfe:	4ba8      	ldr	r3, [pc, #672]	; (8002ea0 <HAL_RCC_OscConfig+0x630>)
 8002c00:	681a      	ldr	r2, [r3, #0]
 8002c02:	2380      	movs	r3, #128	; 0x80
 8002c04:	005b      	lsls	r3, r3, #1
 8002c06:	4013      	ands	r3, r2
 8002c08:	d11a      	bne.n	8002c40 <HAL_RCC_OscConfig+0x3d0>
      {
        /* Enable write access to Backup domain */
        SET_BIT(PWR->CR1, PWR_CR1_DBP);
 8002c0a:	4ba5      	ldr	r3, [pc, #660]	; (8002ea0 <HAL_RCC_OscConfig+0x630>)
 8002c0c:	681a      	ldr	r2, [r3, #0]
 8002c0e:	4ba4      	ldr	r3, [pc, #656]	; (8002ea0 <HAL_RCC_OscConfig+0x630>)
 8002c10:	2180      	movs	r1, #128	; 0x80
 8002c12:	0049      	lsls	r1, r1, #1
 8002c14:	430a      	orrs	r2, r1
 8002c16:	601a      	str	r2, [r3, #0]

        /* Wait for Backup domain Write protection disable */
        tickstart = HAL_GetTick();
 8002c18:	f7fe fbfe 	bl	8001418 <HAL_GetTick>
 8002c1c:	0003      	movs	r3, r0
 8002c1e:	613b      	str	r3, [r7, #16]

        while (HAL_IS_BIT_CLR(PWR->CR1, PWR_CR1_DBP))
 8002c20:	e008      	b.n	8002c34 <HAL_RCC_OscConfig+0x3c4>
        {
          if ((HAL_GetTick() - tickstart) > RCC_DBP_TIMEOUT_VALUE)
 8002c22:	f7fe fbf9 	bl	8001418 <HAL_GetTick>
 8002c26:	0002      	movs	r2, r0
 8002c28:	693b      	ldr	r3, [r7, #16]
 8002c2a:	1ad3      	subs	r3, r2, r3
 8002c2c:	2b02      	cmp	r3, #2
 8002c2e:	d901      	bls.n	8002c34 <HAL_RCC_OscConfig+0x3c4>
          {
            return HAL_TIMEOUT;
 8002c30:	2303      	movs	r3, #3
 8002c32:	e177      	b.n	8002f24 <HAL_RCC_OscConfig+0x6b4>
        while (HAL_IS_BIT_CLR(PWR->CR1, PWR_CR1_DBP))
 8002c34:	4b9a      	ldr	r3, [pc, #616]	; (8002ea0 <HAL_RCC_OscConfig+0x630>)
 8002c36:	681a      	ldr	r2, [r3, #0]
 8002c38:	2380      	movs	r3, #128	; 0x80
 8002c3a:	005b      	lsls	r3, r3, #1
 8002c3c:	4013      	ands	r3, r2
 8002c3e:	d0f0      	beq.n	8002c22 <HAL_RCC_OscConfig+0x3b2>
          }
        }
      }

      /* Set the new LSE configuration -----------------------------------------*/
      __HAL_RCC_LSE_CONFIG(RCC_OscInitStruct->LSEState);
 8002c40:	687b      	ldr	r3, [r7, #4]
 8002c42:	689b      	ldr	r3, [r3, #8]
 8002c44:	2b01      	cmp	r3, #1
 8002c46:	d106      	bne.n	8002c56 <HAL_RCC_OscConfig+0x3e6>
 8002c48:	4b94      	ldr	r3, [pc, #592]	; (8002e9c <HAL_RCC_OscConfig+0x62c>)
 8002c4a:	6dda      	ldr	r2, [r3, #92]	; 0x5c
 8002c4c:	4b93      	ldr	r3, [pc, #588]	; (8002e9c <HAL_RCC_OscConfig+0x62c>)
 8002c4e:	2101      	movs	r1, #1
 8002c50:	430a      	orrs	r2, r1
 8002c52:	65da      	str	r2, [r3, #92]	; 0x5c
 8002c54:	e01c      	b.n	8002c90 <HAL_RCC_OscConfig+0x420>
 8002c56:	687b      	ldr	r3, [r7, #4]
 8002c58:	689b      	ldr	r3, [r3, #8]
 8002c5a:	2b05      	cmp	r3, #5
 8002c5c:	d10c      	bne.n	8002c78 <HAL_RCC_OscConfig+0x408>
 8002c5e:	4b8f      	ldr	r3, [pc, #572]	; (8002e9c <HAL_RCC_OscConfig+0x62c>)
 8002c60:	6dda      	ldr	r2, [r3, #92]	; 0x5c
 8002c62:	4b8e      	ldr	r3, [pc, #568]	; (8002e9c <HAL_RCC_OscConfig+0x62c>)
 8002c64:	2104      	movs	r1, #4
 8002c66:	430a      	orrs	r2, r1
 8002c68:	65da      	str	r2, [r3, #92]	; 0x5c
 8002c6a:	4b8c      	ldr	r3, [pc, #560]	; (8002e9c <HAL_RCC_OscConfig+0x62c>)
 8002c6c:	6dda      	ldr	r2, [r3, #92]	; 0x5c
 8002c6e:	4b8b      	ldr	r3, [pc, #556]	; (8002e9c <HAL_RCC_OscConfig+0x62c>)
 8002c70:	2101      	movs	r1, #1
 8002c72:	430a      	orrs	r2, r1
 8002c74:	65da      	str	r2, [r3, #92]	; 0x5c
 8002c76:	e00b      	b.n	8002c90 <HAL_RCC_OscConfig+0x420>
 8002c78:	4b88      	ldr	r3, [pc, #544]	; (8002e9c <HAL_RCC_OscConfig+0x62c>)
 8002c7a:	6dda      	ldr	r2, [r3, #92]	; 0x5c
 8002c7c:	4b87      	ldr	r3, [pc, #540]	; (8002e9c <HAL_RCC_OscConfig+0x62c>)
 8002c7e:	2101      	movs	r1, #1
 8002c80:	438a      	bics	r2, r1
 8002c82:	65da      	str	r2, [r3, #92]	; 0x5c
 8002c84:	4b85      	ldr	r3, [pc, #532]	; (8002e9c <HAL_RCC_OscConfig+0x62c>)
 8002c86:	6dda      	ldr	r2, [r3, #92]	; 0x5c
 8002c88:	4b84      	ldr	r3, [pc, #528]	; (8002e9c <HAL_RCC_OscConfig+0x62c>)
 8002c8a:	2104      	movs	r1, #4
 8002c8c:	438a      	bics	r2, r1
 8002c8e:	65da      	str	r2, [r3, #92]	; 0x5c

      /* Check the LSE State */
      if (RCC_OscInitStruct->LSEState != RCC_LSE_OFF)
 8002c90:	687b      	ldr	r3, [r7, #4]
 8002c92:	689b      	ldr	r3, [r3, #8]
 8002c94:	2b00      	cmp	r3, #0
 8002c96:	d014      	beq.n	8002cc2 <HAL_RCC_OscConfig+0x452>
      {
        /* Get Start Tick*/
        tickstart = HAL_GetTick();
 8002c98:	f7fe fbbe 	bl	8001418 <HAL_GetTick>
 8002c9c:	0003      	movs	r3, r0
 8002c9e:	613b      	str	r3, [r7, #16]

        /* Wait till LSE is ready */
        while (READ_BIT(RCC->BDCR, RCC_BDCR_LSERDY) == 0U)
 8002ca0:	e009      	b.n	8002cb6 <HAL_RCC_OscConfig+0x446>
        {
          if ((HAL_GetTick() - tickstart) > RCC_LSE_TIMEOUT_VALUE)
 8002ca2:	f7fe fbb9 	bl	8001418 <HAL_GetTick>
 8002ca6:	0002      	movs	r2, r0
 8002ca8:	693b      	ldr	r3, [r7, #16]
 8002caa:	1ad3      	subs	r3, r2, r3
 8002cac:	4a7d      	ldr	r2, [pc, #500]	; (8002ea4 <HAL_RCC_OscConfig+0x634>)
 8002cae:	4293      	cmp	r3, r2
 8002cb0:	d901      	bls.n	8002cb6 <HAL_RCC_OscConfig+0x446>
          {
            return HAL_TIMEOUT;
 8002cb2:	2303      	movs	r3, #3
 8002cb4:	e136      	b.n	8002f24 <HAL_RCC_OscConfig+0x6b4>
        while (READ_BIT(RCC->BDCR, RCC_BDCR_LSERDY) == 0U)
 8002cb6:	4b79      	ldr	r3, [pc, #484]	; (8002e9c <HAL_RCC_OscConfig+0x62c>)
 8002cb8:	6ddb      	ldr	r3, [r3, #92]	; 0x5c
 8002cba:	2202      	movs	r2, #2
 8002cbc:	4013      	ands	r3, r2
 8002cbe:	d0f0      	beq.n	8002ca2 <HAL_RCC_OscConfig+0x432>
 8002cc0:	e013      	b.n	8002cea <HAL_RCC_OscConfig+0x47a>
        }
      }
      else
      {
        /* Get Start Tick*/
        tickstart = HAL_GetTick();
 8002cc2:	f7fe fba9 	bl	8001418 <HAL_GetTick>
 8002cc6:	0003      	movs	r3, r0
 8002cc8:	613b      	str	r3, [r7, #16]

        /* Wait till LSE is disabled */
        while (READ_BIT(RCC->BDCR, RCC_BDCR_LSERDY) != 0U)
 8002cca:	e009      	b.n	8002ce0 <HAL_RCC_OscConfig+0x470>
        {
          if ((HAL_GetTick() - tickstart) > RCC_LSE_TIMEOUT_VALUE)
 8002ccc:	f7fe fba4 	bl	8001418 <HAL_GetTick>
 8002cd0:	0002      	movs	r2, r0
 8002cd2:	693b      	ldr	r3, [r7, #16]
 8002cd4:	1ad3      	subs	r3, r2, r3
 8002cd6:	4a73      	ldr	r2, [pc, #460]	; (8002ea4 <HAL_RCC_OscConfig+0x634>)
 8002cd8:	4293      	cmp	r3, r2
 8002cda:	d901      	bls.n	8002ce0 <HAL_RCC_OscConfig+0x470>
          {
            return HAL_TIMEOUT;
 8002cdc:	2303      	movs	r3, #3
 8002cde:	e121      	b.n	8002f24 <HAL_RCC_OscConfig+0x6b4>
        while (READ_BIT(RCC->BDCR, RCC_BDCR_LSERDY) != 0U)
 8002ce0:	4b6e      	ldr	r3, [pc, #440]	; (8002e9c <HAL_RCC_OscConfig+0x62c>)
 8002ce2:	6ddb      	ldr	r3, [r3, #92]	; 0x5c
 8002ce4:	2202      	movs	r2, #2
 8002ce6:	4013      	ands	r3, r2
 8002ce8:	d1f0      	bne.n	8002ccc <HAL_RCC_OscConfig+0x45c>
          }
        }
      }

      /* Restore clock configuration if changed */
      if (pwrclkchanged == SET)
 8002cea:	231f      	movs	r3, #31
 8002cec:	18fb      	adds	r3, r7, r3
 8002cee:	781b      	ldrb	r3, [r3, #0]
 8002cf0:	2b01      	cmp	r3, #1
 8002cf2:	d105      	bne.n	8002d00 <HAL_RCC_OscConfig+0x490>
      {
        __HAL_RCC_PWR_CLK_DISABLE();
 8002cf4:	4b69      	ldr	r3, [pc, #420]	; (8002e9c <HAL_RCC_OscConfig+0x62c>)
 8002cf6:	6bda      	ldr	r2, [r3, #60]	; 0x3c
 8002cf8:	4b68      	ldr	r3, [pc, #416]	; (8002e9c <HAL_RCC_OscConfig+0x62c>)
 8002cfa:	496b      	ldr	r1, [pc, #428]	; (8002ea8 <HAL_RCC_OscConfig+0x638>)
 8002cfc:	400a      	ands	r2, r1
 8002cfe:	63da      	str	r2, [r3, #60]	; 0x3c
      }
    }
  }
#if defined(RCC_HSI48_SUPPORT)
  /*------------------------------ HSI48 Configuration -----------------------*/
  if (((RCC_OscInitStruct->OscillatorType) & RCC_OSCILLATORTYPE_HSI48) == RCC_OSCILLATORTYPE_HSI48)
 8002d00:	687b      	ldr	r3, [r7, #4]
 8002d02:	681b      	ldr	r3, [r3, #0]
 8002d04:	2220      	movs	r2, #32
 8002d06:	4013      	ands	r3, r2
 8002d08:	d039      	beq.n	8002d7e <HAL_RCC_OscConfig+0x50e>
  {
    /* Check the parameters */
    assert_param(IS_RCC_HSI48(RCC_OscInitStruct->HSI48State));

    /* Check the LSI State */
    if (RCC_OscInitStruct->HSI48State != RCC_HSI48_OFF)
 8002d0a:	687b      	ldr	r3, [r7, #4]
 8002d0c:	69db      	ldr	r3, [r3, #28]
 8002d0e:	2b00      	cmp	r3, #0
 8002d10:	d01b      	beq.n	8002d4a <HAL_RCC_OscConfig+0x4da>
    {
      /* Enable the Internal Low Speed oscillator (HSI48). */
      __HAL_RCC_HSI48_ENABLE();
 8002d12:	4b62      	ldr	r3, [pc, #392]	; (8002e9c <HAL_RCC_OscConfig+0x62c>)
 8002d14:	681a      	ldr	r2, [r3, #0]
 8002d16:	4b61      	ldr	r3, [pc, #388]	; (8002e9c <HAL_RCC_OscConfig+0x62c>)
 8002d18:	2180      	movs	r1, #128	; 0x80
 8002d1a:	03c9      	lsls	r1, r1, #15
 8002d1c:	430a      	orrs	r2, r1
 8002d1e:	601a      	str	r2, [r3, #0]

      /* Get Start Tick*/
      tickstart = HAL_GetTick();
 8002d20:	f7fe fb7a 	bl	8001418 <HAL_GetTick>
 8002d24:	0003      	movs	r3, r0
 8002d26:	613b      	str	r3, [r7, #16]

      /* Wait till HSI48 is ready */
      while (READ_BIT(RCC->CR, RCC_CR_HSI48RDY) == 0U)
 8002d28:	e008      	b.n	8002d3c <HAL_RCC_OscConfig+0x4cc>
      {
        if ((HAL_GetTick() - tickstart) > HSI48_TIMEOUT_VALUE)
 8002d2a:	f7fe fb75 	bl	8001418 <HAL_GetTick>
 8002d2e:	0002      	movs	r2, r0
 8002d30:	693b      	ldr	r3, [r7, #16]
 8002d32:	1ad3      	subs	r3, r2, r3
 8002d34:	2b02      	cmp	r3, #2
 8002d36:	d901      	bls.n	8002d3c <HAL_RCC_OscConfig+0x4cc>
        {
          return HAL_TIMEOUT;
 8002d38:	2303      	movs	r3, #3
 8002d3a:	e0f3      	b.n	8002f24 <HAL_RCC_OscConfig+0x6b4>
      while (READ_BIT(RCC->CR, RCC_CR_HSI48RDY) == 0U)
 8002d3c:	4b57      	ldr	r3, [pc, #348]	; (8002e9c <HAL_RCC_OscConfig+0x62c>)
 8002d3e:	681a      	ldr	r2, [r3, #0]
 8002d40:	2380      	movs	r3, #128	; 0x80
 8002d42:	041b      	lsls	r3, r3, #16
 8002d44:	4013      	ands	r3, r2
 8002d46:	d0f0      	beq.n	8002d2a <HAL_RCC_OscConfig+0x4ba>
 8002d48:	e019      	b.n	8002d7e <HAL_RCC_OscConfig+0x50e>
      }
    }
    else
    {
      /* Disable the Internal Low Speed oscillator (HSI48). */
      __HAL_RCC_HSI48_DISABLE();
 8002d4a:	4b54      	ldr	r3, [pc, #336]	; (8002e9c <HAL_RCC_OscConfig+0x62c>)
 8002d4c:	681a      	ldr	r2, [r3, #0]
 8002d4e:	4b53      	ldr	r3, [pc, #332]	; (8002e9c <HAL_RCC_OscConfig+0x62c>)
 8002d50:	4956      	ldr	r1, [pc, #344]	; (8002eac <HAL_RCC_OscConfig+0x63c>)
 8002d52:	400a      	ands	r2, r1
 8002d54:	601a      	str	r2, [r3, #0]

      /* Get Start Tick*/
      tickstart = HAL_GetTick();
 8002d56:	f7fe fb5f 	bl	8001418 <HAL_GetTick>
 8002d5a:	0003      	movs	r3, r0
 8002d5c:	613b      	str	r3, [r7, #16]

      /* Wait till HSI48 is disabled */
      while (READ_BIT(RCC->CR, RCC_CR_HSI48RDY) != 0U)
 8002d5e:	e008      	b.n	8002d72 <HAL_RCC_OscConfig+0x502>
      {
        if ((HAL_GetTick() - tickstart) > HSI48_TIMEOUT_VALUE)
 8002d60:	f7fe fb5a 	bl	8001418 <HAL_GetTick>
 8002d64:	0002      	movs	r2, r0
 8002d66:	693b      	ldr	r3, [r7, #16]
 8002d68:	1ad3      	subs	r3, r2, r3
 8002d6a:	2b02      	cmp	r3, #2
 8002d6c:	d901      	bls.n	8002d72 <HAL_RCC_OscConfig+0x502>
        {
          return HAL_TIMEOUT;
 8002d6e:	2303      	movs	r3, #3
 8002d70:	e0d8      	b.n	8002f24 <HAL_RCC_OscConfig+0x6b4>
      while (READ_BIT(RCC->CR, RCC_CR_HSI48RDY) != 0U)
 8002d72:	4b4a      	ldr	r3, [pc, #296]	; (8002e9c <HAL_RCC_OscConfig+0x62c>)
 8002d74:	681a      	ldr	r2, [r3, #0]
 8002d76:	2380      	movs	r3, #128	; 0x80
 8002d78:	041b      	lsls	r3, r3, #16
 8002d7a:	4013      	ands	r3, r2
 8002d7c:	d1f0      	bne.n	8002d60 <HAL_RCC_OscConfig+0x4f0>
#endif /* RCC_HSI48_SUPPORT */
  /*-------------------------------- PLL Configuration -----------------------*/
  /* Check the parameters */
  assert_param(IS_RCC_PLL(RCC_OscInitStruct->PLL.PLLState));

  if (RCC_OscInitStruct->PLL.PLLState != RCC_PLL_NONE)
 8002d7e:	687b      	ldr	r3, [r7, #4]
 8002d80:	6a1b      	ldr	r3, [r3, #32]
 8002d82:	2b00      	cmp	r3, #0
 8002d84:	d100      	bne.n	8002d88 <HAL_RCC_OscConfig+0x518>
 8002d86:	e0cc      	b.n	8002f22 <HAL_RCC_OscConfig+0x6b2>
  {
    /* Check if the PLL is used as system clock or not */
    if (__HAL_RCC_GET_SYSCLK_SOURCE() != RCC_SYSCLKSOURCE_STATUS_PLLCLK)
 8002d88:	4b44      	ldr	r3, [pc, #272]	; (8002e9c <HAL_RCC_OscConfig+0x62c>)
 8002d8a:	689b      	ldr	r3, [r3, #8]
 8002d8c:	2238      	movs	r2, #56	; 0x38
 8002d8e:	4013      	ands	r3, r2
 8002d90:	2b10      	cmp	r3, #16
 8002d92:	d100      	bne.n	8002d96 <HAL_RCC_OscConfig+0x526>
 8002d94:	e07b      	b.n	8002e8e <HAL_RCC_OscConfig+0x61e>
    {
      if (RCC_OscInitStruct->PLL.PLLState == RCC_PLL_ON)
 8002d96:	687b      	ldr	r3, [r7, #4]
 8002d98:	6a1b      	ldr	r3, [r3, #32]
 8002d9a:	2b02      	cmp	r3, #2
 8002d9c:	d156      	bne.n	8002e4c <HAL_RCC_OscConfig+0x5dc>
        assert_param(IS_RCC_PLLQ_VALUE(RCC_OscInitStruct->PLL.PLLQ));
#endif /* RCC_PLLQ_SUPPORT */
        assert_param(IS_RCC_PLLR_VALUE(RCC_OscInitStruct->PLL.PLLR));

        /* Disable the main PLL. */
        __HAL_RCC_PLL_DISABLE();
 8002d9e:	4b3f      	ldr	r3, [pc, #252]	; (8002e9c <HAL_RCC_OscConfig+0x62c>)
 8002da0:	681a      	ldr	r2, [r3, #0]
 8002da2:	4b3e      	ldr	r3, [pc, #248]	; (8002e9c <HAL_RCC_OscConfig+0x62c>)
 8002da4:	4942      	ldr	r1, [pc, #264]	; (8002eb0 <HAL_RCC_OscConfig+0x640>)
 8002da6:	400a      	ands	r2, r1
 8002da8:	601a      	str	r2, [r3, #0]

        /* Get Start Tick*/
        tickstart = HAL_GetTick();
 8002daa:	f7fe fb35 	bl	8001418 <HAL_GetTick>
 8002dae:	0003      	movs	r3, r0
 8002db0:	613b      	str	r3, [r7, #16]

        /* Wait till PLL is ready */
        while (READ_BIT(RCC->CR, RCC_CR_PLLRDY) != 0U)
 8002db2:	e008      	b.n	8002dc6 <HAL_RCC_OscConfig+0x556>
        {
          if ((HAL_GetTick() - tickstart) > PLL_TIMEOUT_VALUE)
 8002db4:	f7fe fb30 	bl	8001418 <HAL_GetTick>
 8002db8:	0002      	movs	r2, r0
 8002dba:	693b      	ldr	r3, [r7, #16]
 8002dbc:	1ad3      	subs	r3, r2, r3
 8002dbe:	2b02      	cmp	r3, #2
 8002dc0:	d901      	bls.n	8002dc6 <HAL_RCC_OscConfig+0x556>
          {
            return HAL_TIMEOUT;
 8002dc2:	2303      	movs	r3, #3
 8002dc4:	e0ae      	b.n	8002f24 <HAL_RCC_OscConfig+0x6b4>
        while (READ_BIT(RCC->CR, RCC_CR_PLLRDY) != 0U)
 8002dc6:	4b35      	ldr	r3, [pc, #212]	; (8002e9c <HAL_RCC_OscConfig+0x62c>)
 8002dc8:	681a      	ldr	r2, [r3, #0]
 8002dca:	2380      	movs	r3, #128	; 0x80
 8002dcc:	049b      	lsls	r3, r3, #18
 8002dce:	4013      	ands	r3, r2
 8002dd0:	d1f0      	bne.n	8002db4 <HAL_RCC_OscConfig+0x544>
          }
        }

        /* Configure the main PLL clock source, multiplication and division factors. */
#if defined(RCC_PLLQ_SUPPORT)
        __HAL_RCC_PLL_CONFIG(RCC_OscInitStruct->PLL.PLLSource,
 8002dd2:	4b32      	ldr	r3, [pc, #200]	; (8002e9c <HAL_RCC_OscConfig+0x62c>)
 8002dd4:	68db      	ldr	r3, [r3, #12]
 8002dd6:	4a37      	ldr	r2, [pc, #220]	; (8002eb4 <HAL_RCC_OscConfig+0x644>)
 8002dd8:	4013      	ands	r3, r2
 8002dda:	0019      	movs	r1, r3
 8002ddc:	687b      	ldr	r3, [r7, #4]
 8002dde:	6a5a      	ldr	r2, [r3, #36]	; 0x24
 8002de0:	687b      	ldr	r3, [r7, #4]
 8002de2:	6a9b      	ldr	r3, [r3, #40]	; 0x28
 8002de4:	431a      	orrs	r2, r3
 8002de6:	687b      	ldr	r3, [r7, #4]
 8002de8:	6adb      	ldr	r3, [r3, #44]	; 0x2c
 8002dea:	021b      	lsls	r3, r3, #8
 8002dec:	431a      	orrs	r2, r3
 8002dee:	687b      	ldr	r3, [r7, #4]
 8002df0:	6b1b      	ldr	r3, [r3, #48]	; 0x30
 8002df2:	431a      	orrs	r2, r3
 8002df4:	687b      	ldr	r3, [r7, #4]
 8002df6:	6b5b      	ldr	r3, [r3, #52]	; 0x34
 8002df8:	431a      	orrs	r2, r3
 8002dfa:	687b      	ldr	r3, [r7, #4]
 8002dfc:	6b9b      	ldr	r3, [r3, #56]	; 0x38
 8002dfe:	431a      	orrs	r2, r3
 8002e00:	4b26      	ldr	r3, [pc, #152]	; (8002e9c <HAL_RCC_OscConfig+0x62c>)
 8002e02:	430a      	orrs	r2, r1
 8002e04:	60da      	str	r2, [r3, #12]
                             RCC_OscInitStruct->PLL.PLLP,
                             RCC_OscInitStruct->PLL.PLLR);
#endif /* RCC_PLLQ_SUPPORT */

        /* Enable the main PLL. */
        __HAL_RCC_PLL_ENABLE();
 8002e06:	4b25      	ldr	r3, [pc, #148]	; (8002e9c <HAL_RCC_OscConfig+0x62c>)
 8002e08:	681a      	ldr	r2, [r3, #0]
 8002e0a:	4b24      	ldr	r3, [pc, #144]	; (8002e9c <HAL_RCC_OscConfig+0x62c>)
 8002e0c:	2180      	movs	r1, #128	; 0x80
 8002e0e:	0449      	lsls	r1, r1, #17
 8002e10:	430a      	orrs	r2, r1
 8002e12:	601a      	str	r2, [r3, #0]

        /* Enable PLLR Clock output. */
        __HAL_RCC_PLLCLKOUT_ENABLE(RCC_PLLRCLK);
 8002e14:	4b21      	ldr	r3, [pc, #132]	; (8002e9c <HAL_RCC_OscConfig+0x62c>)
 8002e16:	68da      	ldr	r2, [r3, #12]
 8002e18:	4b20      	ldr	r3, [pc, #128]	; (8002e9c <HAL_RCC_OscConfig+0x62c>)
 8002e1a:	2180      	movs	r1, #128	; 0x80
 8002e1c:	0549      	lsls	r1, r1, #21
 8002e1e:	430a      	orrs	r2, r1
 8002e20:	60da      	str	r2, [r3, #12]

        /* Get Start Tick*/
        tickstart = HAL_GetTick();
 8002e22:	f7fe faf9 	bl	8001418 <HAL_GetTick>
 8002e26:	0003      	movs	r3, r0
 8002e28:	613b      	str	r3, [r7, #16]

        /* Wait till PLL is ready */
        while (READ_BIT(RCC->CR, RCC_CR_PLLRDY) == 0U)
 8002e2a:	e008      	b.n	8002e3e <HAL_RCC_OscConfig+0x5ce>
        {
          if ((HAL_GetTick() - tickstart) > PLL_TIMEOUT_VALUE)
 8002e2c:	f7fe faf4 	bl	8001418 <HAL_GetTick>
 8002e30:	0002      	movs	r2, r0
 8002e32:	693b      	ldr	r3, [r7, #16]
 8002e34:	1ad3      	subs	r3, r2, r3
 8002e36:	2b02      	cmp	r3, #2
 8002e38:	d901      	bls.n	8002e3e <HAL_RCC_OscConfig+0x5ce>
          {
            return HAL_TIMEOUT;
 8002e3a:	2303      	movs	r3, #3
 8002e3c:	e072      	b.n	8002f24 <HAL_RCC_OscConfig+0x6b4>
        while (READ_BIT(RCC->CR, RCC_CR_PLLRDY) == 0U)
 8002e3e:	4b17      	ldr	r3, [pc, #92]	; (8002e9c <HAL_RCC_OscConfig+0x62c>)
 8002e40:	681a      	ldr	r2, [r3, #0]
 8002e42:	2380      	movs	r3, #128	; 0x80
 8002e44:	049b      	lsls	r3, r3, #18
 8002e46:	4013      	ands	r3, r2
 8002e48:	d0f0      	beq.n	8002e2c <HAL_RCC_OscConfig+0x5bc>
 8002e4a:	e06a      	b.n	8002f22 <HAL_RCC_OscConfig+0x6b2>
        }
      }
      else
      {
        /* Disable the main PLL. */
        __HAL_RCC_PLL_DISABLE();
 8002e4c:	4b13      	ldr	r3, [pc, #76]	; (8002e9c <HAL_RCC_OscConfig+0x62c>)
 8002e4e:	681a      	ldr	r2, [r3, #0]
 8002e50:	4b12      	ldr	r3, [pc, #72]	; (8002e9c <HAL_RCC_OscConfig+0x62c>)
 8002e52:	4917      	ldr	r1, [pc, #92]	; (8002eb0 <HAL_RCC_OscConfig+0x640>)
 8002e54:	400a      	ands	r2, r1
 8002e56:	601a      	str	r2, [r3, #0]

        /* Get Start Tick*/
        tickstart = HAL_GetTick();
 8002e58:	f7fe fade 	bl	8001418 <HAL_GetTick>
 8002e5c:	0003      	movs	r3, r0
 8002e5e:	613b      	str	r3, [r7, #16]

        /* Wait till PLL is disabled */
        while (READ_BIT(RCC->CR, RCC_CR_PLLRDY) != 0U)
 8002e60:	e008      	b.n	8002e74 <HAL_RCC_OscConfig+0x604>
        {
          if ((HAL_GetTick() - tickstart) > PLL_TIMEOUT_VALUE)
 8002e62:	f7fe fad9 	bl	8001418 <HAL_GetTick>
 8002e66:	0002      	movs	r2, r0
 8002e68:	693b      	ldr	r3, [r7, #16]
 8002e6a:	1ad3      	subs	r3, r2, r3
 8002e6c:	2b02      	cmp	r3, #2
 8002e6e:	d901      	bls.n	8002e74 <HAL_RCC_OscConfig+0x604>
          {
            return HAL_TIMEOUT;
 8002e70:	2303      	movs	r3, #3
 8002e72:	e057      	b.n	8002f24 <HAL_RCC_OscConfig+0x6b4>
        while (READ_BIT(RCC->CR, RCC_CR_PLLRDY) != 0U)
 8002e74:	4b09      	ldr	r3, [pc, #36]	; (8002e9c <HAL_RCC_OscConfig+0x62c>)
 8002e76:	681a      	ldr	r2, [r3, #0]
 8002e78:	2380      	movs	r3, #128	; 0x80
 8002e7a:	049b      	lsls	r3, r3, #18
 8002e7c:	4013      	ands	r3, r2
 8002e7e:	d1f0      	bne.n	8002e62 <HAL_RCC_OscConfig+0x5f2>
          }
        }
        /* Unselect main PLL clock source and disable main PLL outputs to save power */
#if defined(RCC_PLLQ_SUPPORT)
        RCC->PLLCFGR &= ~(RCC_PLLCFGR_PLLSRC | RCC_PLLCFGR_PLLPEN | RCC_PLLCFGR_PLLQEN | RCC_PLLCFGR_PLLREN);
 8002e80:	4b06      	ldr	r3, [pc, #24]	; (8002e9c <HAL_RCC_OscConfig+0x62c>)
 8002e82:	68da      	ldr	r2, [r3, #12]
 8002e84:	4b05      	ldr	r3, [pc, #20]	; (8002e9c <HAL_RCC_OscConfig+0x62c>)
 8002e86:	490c      	ldr	r1, [pc, #48]	; (8002eb8 <HAL_RCC_OscConfig+0x648>)
 8002e88:	400a      	ands	r2, r1
 8002e8a:	60da      	str	r2, [r3, #12]
 8002e8c:	e049      	b.n	8002f22 <HAL_RCC_OscConfig+0x6b2>
      }
    }
    else
    {
      /* Check if there is a request to disable the PLL used as System clock source */
      if ((RCC_OscInitStruct->PLL.PLLState) == RCC_PLL_OFF)
 8002e8e:	687b      	ldr	r3, [r7, #4]
 8002e90:	6a1b      	ldr	r3, [r3, #32]
 8002e92:	2b01      	cmp	r3, #1
 8002e94:	d112      	bne.n	8002ebc <HAL_RCC_OscConfig+0x64c>
      {
        return HAL_ERROR;
 8002e96:	2301      	movs	r3, #1
 8002e98:	e044      	b.n	8002f24 <HAL_RCC_OscConfig+0x6b4>
 8002e9a:	46c0      	nop			; (mov r8, r8)
 8002e9c:	40021000 	.word	0x40021000
 8002ea0:	40007000 	.word	0x40007000
 8002ea4:	00001388 	.word	0x00001388
 8002ea8:	efffffff 	.word	0xefffffff
 8002eac:	ffbfffff 	.word	0xffbfffff
 8002eb0:	feffffff 	.word	0xfeffffff
 8002eb4:	11c1808c 	.word	0x11c1808c
 8002eb8:	eefefffc 	.word	0xeefefffc
      }
      else
      {
        /* Do not return HAL_ERROR if request repeats the current configuration */
        temp_pllckcfg = RCC->PLLCFGR;
 8002ebc:	4b1b      	ldr	r3, [pc, #108]	; (8002f2c <HAL_RCC_OscConfig+0x6bc>)
 8002ebe:	68db      	ldr	r3, [r3, #12]
 8002ec0:	617b      	str	r3, [r7, #20]
        if ((READ_BIT(temp_pllckcfg, RCC_PLLCFGR_PLLSRC) != RCC_OscInitStruct->PLL.PLLSource) ||
 8002ec2:	697b      	ldr	r3, [r7, #20]
 8002ec4:	2203      	movs	r2, #3
 8002ec6:	401a      	ands	r2, r3
 8002ec8:	687b      	ldr	r3, [r7, #4]
 8002eca:	6a5b      	ldr	r3, [r3, #36]	; 0x24
 8002ecc:	429a      	cmp	r2, r3
 8002ece:	d126      	bne.n	8002f1e <HAL_RCC_OscConfig+0x6ae>
            (READ_BIT(temp_pllckcfg, RCC_PLLCFGR_PLLM) != RCC_OscInitStruct->PLL.PLLM) ||
 8002ed0:	697b      	ldr	r3, [r7, #20]
 8002ed2:	2270      	movs	r2, #112	; 0x70
 8002ed4:	401a      	ands	r2, r3
 8002ed6:	687b      	ldr	r3, [r7, #4]
 8002ed8:	6a9b      	ldr	r3, [r3, #40]	; 0x28
        if ((READ_BIT(temp_pllckcfg, RCC_PLLCFGR_PLLSRC) != RCC_OscInitStruct->PLL.PLLSource) ||
 8002eda:	429a      	cmp	r2, r3
 8002edc:	d11f      	bne.n	8002f1e <HAL_RCC_OscConfig+0x6ae>
            (READ_BIT(temp_pllckcfg, RCC_PLLCFGR_PLLN) != (RCC_OscInitStruct->PLL.PLLN << RCC_PLLCFGR_PLLN_Pos)) ||
 8002ede:	697a      	ldr	r2, [r7, #20]
 8002ee0:	23fe      	movs	r3, #254	; 0xfe
 8002ee2:	01db      	lsls	r3, r3, #7
 8002ee4:	401a      	ands	r2, r3
 8002ee6:	687b      	ldr	r3, [r7, #4]
 8002ee8:	6adb      	ldr	r3, [r3, #44]	; 0x2c
 8002eea:	021b      	lsls	r3, r3, #8
            (READ_BIT(temp_pllckcfg, RCC_PLLCFGR_PLLM) != RCC_OscInitStruct->PLL.PLLM) ||
 8002eec:	429a      	cmp	r2, r3
 8002eee:	d116      	bne.n	8002f1e <HAL_RCC_OscConfig+0x6ae>
            (READ_BIT(temp_pllckcfg, RCC_PLLCFGR_PLLP) != RCC_OscInitStruct->PLL.PLLP) ||
 8002ef0:	697a      	ldr	r2, [r7, #20]
 8002ef2:	23f8      	movs	r3, #248	; 0xf8
 8002ef4:	039b      	lsls	r3, r3, #14
 8002ef6:	401a      	ands	r2, r3
 8002ef8:	687b      	ldr	r3, [r7, #4]
 8002efa:	6b1b      	ldr	r3, [r3, #48]	; 0x30
            (READ_BIT(temp_pllckcfg, RCC_PLLCFGR_PLLN) != (RCC_OscInitStruct->PLL.PLLN << RCC_PLLCFGR_PLLN_Pos)) ||
 8002efc:	429a      	cmp	r2, r3
 8002efe:	d10e      	bne.n	8002f1e <HAL_RCC_OscConfig+0x6ae>
#if defined (RCC_PLLQ_SUPPORT)
            (READ_BIT(temp_pllckcfg, RCC_PLLCFGR_PLLQ) != RCC_OscInitStruct->PLL.PLLQ) ||
 8002f00:	697a      	ldr	r2, [r7, #20]
 8002f02:	23e0      	movs	r3, #224	; 0xe0
 8002f04:	051b      	lsls	r3, r3, #20
 8002f06:	401a      	ands	r2, r3
 8002f08:	687b      	ldr	r3, [r7, #4]
 8002f0a:	6b5b      	ldr	r3, [r3, #52]	; 0x34
            (READ_BIT(temp_pllckcfg, RCC_PLLCFGR_PLLP) != RCC_OscInitStruct->PLL.PLLP) ||
 8002f0c:	429a      	cmp	r2, r3
 8002f0e:	d106      	bne.n	8002f1e <HAL_RCC_OscConfig+0x6ae>
#endif /* RCC_PLLQ_SUPPORT */
            (READ_BIT(temp_pllckcfg, RCC_PLLCFGR_PLLR) != RCC_OscInitStruct->PLL.PLLR))
 8002f10:	697b      	ldr	r3, [r7, #20]
 8002f12:	0f5b      	lsrs	r3, r3, #29
 8002f14:	075a      	lsls	r2, r3, #29
 8002f16:	687b      	ldr	r3, [r7, #4]
 8002f18:	6b9b      	ldr	r3, [r3, #56]	; 0x38
            (READ_BIT(temp_pllckcfg, RCC_PLLCFGR_PLLQ) != RCC_OscInitStruct->PLL.PLLQ) ||
 8002f1a:	429a      	cmp	r2, r3
 8002f1c:	d001      	beq.n	8002f22 <HAL_RCC_OscConfig+0x6b2>
        {
          return HAL_ERROR;
 8002f1e:	2301      	movs	r3, #1
 8002f20:	e000      	b.n	8002f24 <HAL_RCC_OscConfig+0x6b4>
        }
      }
    }
  }
  return HAL_OK;
 8002f22:	2300      	movs	r3, #0
}
 8002f24:	0018      	movs	r0, r3
 8002f26:	46bd      	mov	sp, r7
 8002f28:	b008      	add	sp, #32
 8002f2a:	bd80      	pop	{r7, pc}
 8002f2c:	40021000 	.word	0x40021000

08002f30 <HAL_RCC_ClockConfig>:
  *         HPRE[3:0] bits to ensure that HCLK not exceed the maximum allowed frequency
  *         (for more details refer to section above "Initialization/de-initialization functions")
  * @retval None
  */
HAL_StatusTypeDef HAL_RCC_ClockConfig(RCC_ClkInitTypeDef  *RCC_ClkInitStruct, uint32_t FLatency)
{
 8002f30:	b580      	push	{r7, lr}
 8002f32:	b084      	sub	sp, #16
 8002f34:	af00      	add	r7, sp, #0
 8002f36:	6078      	str	r0, [r7, #4]
 8002f38:	6039      	str	r1, [r7, #0]
  uint32_t tickstart;

  /* Check Null pointer */
  if (RCC_ClkInitStruct == NULL)
 8002f3a:	687b      	ldr	r3, [r7, #4]
 8002f3c:	2b00      	cmp	r3, #0
 8002f3e:	d101      	bne.n	8002f44 <HAL_RCC_ClockConfig+0x14>
  {
    return HAL_ERROR;
 8002f40:	2301      	movs	r3, #1
 8002f42:	e0e9      	b.n	8003118 <HAL_RCC_ClockConfig+0x1e8>
  /* To correctly read data from FLASH memory, the number of wait states (LATENCY)
    must be correctly programmed according to the frequency of the FLASH clock
    (HCLK) and the supply voltage of the device. */

  /* Increasing the number of wait states because of higher CPU frequency */
  if (FLatency > __HAL_FLASH_GET_LATENCY())
 8002f44:	4b76      	ldr	r3, [pc, #472]	; (8003120 <HAL_RCC_ClockConfig+0x1f0>)
 8002f46:	681b      	ldr	r3, [r3, #0]
 8002f48:	2207      	movs	r2, #7
 8002f4a:	4013      	ands	r3, r2
 8002f4c:	683a      	ldr	r2, [r7, #0]
 8002f4e:	429a      	cmp	r2, r3
 8002f50:	d91e      	bls.n	8002f90 <HAL_RCC_ClockConfig+0x60>
  {
    /* Program the new number of wait states to the LATENCY bits in the FLASH_ACR register */
    __HAL_FLASH_SET_LATENCY(FLatency);
 8002f52:	4b73      	ldr	r3, [pc, #460]	; (8003120 <HAL_RCC_ClockConfig+0x1f0>)
 8002f54:	681b      	ldr	r3, [r3, #0]
 8002f56:	2207      	movs	r2, #7
 8002f58:	4393      	bics	r3, r2
 8002f5a:	0019      	movs	r1, r3
 8002f5c:	4b70      	ldr	r3, [pc, #448]	; (8003120 <HAL_RCC_ClockConfig+0x1f0>)
 8002f5e:	683a      	ldr	r2, [r7, #0]
 8002f60:	430a      	orrs	r2, r1
 8002f62:	601a      	str	r2, [r3, #0]

    /* Check that the new number of wait states is taken into account to access the Flash
    memory by polling the FLASH_ACR register */
    tickstart = HAL_GetTick();
 8002f64:	f7fe fa58 	bl	8001418 <HAL_GetTick>
 8002f68:	0003      	movs	r3, r0
 8002f6a:	60fb      	str	r3, [r7, #12]

    while ((FLASH->ACR & FLASH_ACR_LATENCY) != FLatency)
 8002f6c:	e009      	b.n	8002f82 <HAL_RCC_ClockConfig+0x52>
    {
      if ((HAL_GetTick() - tickstart) > CLOCKSWITCH_TIMEOUT_VALUE)
 8002f6e:	f7fe fa53 	bl	8001418 <HAL_GetTick>
 8002f72:	0002      	movs	r2, r0
 8002f74:	68fb      	ldr	r3, [r7, #12]
 8002f76:	1ad3      	subs	r3, r2, r3
 8002f78:	4a6a      	ldr	r2, [pc, #424]	; (8003124 <HAL_RCC_ClockConfig+0x1f4>)
 8002f7a:	4293      	cmp	r3, r2
 8002f7c:	d901      	bls.n	8002f82 <HAL_RCC_ClockConfig+0x52>
      {
        return HAL_TIMEOUT;
 8002f7e:	2303      	movs	r3, #3
 8002f80:	e0ca      	b.n	8003118 <HAL_RCC_ClockConfig+0x1e8>
    while ((FLASH->ACR & FLASH_ACR_LATENCY) != FLatency)
 8002f82:	4b67      	ldr	r3, [pc, #412]	; (8003120 <HAL_RCC_ClockConfig+0x1f0>)
 8002f84:	681b      	ldr	r3, [r3, #0]
 8002f86:	2207      	movs	r2, #7
 8002f88:	4013      	ands	r3, r2
 8002f8a:	683a      	ldr	r2, [r7, #0]
 8002f8c:	429a      	cmp	r2, r3
 8002f8e:	d1ee      	bne.n	8002f6e <HAL_RCC_ClockConfig+0x3e>
      }
    }
  }

  /*-------------------------- HCLK Configuration --------------------------*/
  if (((RCC_ClkInitStruct->ClockType) & RCC_CLOCKTYPE_HCLK) == RCC_CLOCKTYPE_HCLK)
 8002f90:	687b      	ldr	r3, [r7, #4]
 8002f92:	681b      	ldr	r3, [r3, #0]
 8002f94:	2202      	movs	r2, #2
 8002f96:	4013      	ands	r3, r2
 8002f98:	d015      	beq.n	8002fc6 <HAL_RCC_ClockConfig+0x96>
  {
    /* Set the highest APB divider in order to ensure that we do not go through
       a non-spec phase whatever we decrease or increase HCLK. */
    if (((RCC_ClkInitStruct->ClockType) & RCC_CLOCKTYPE_PCLK1) == RCC_CLOCKTYPE_PCLK1)
 8002f9a:	687b      	ldr	r3, [r7, #4]
 8002f9c:	681b      	ldr	r3, [r3, #0]
 8002f9e:	2204      	movs	r2, #4
 8002fa0:	4013      	ands	r3, r2
 8002fa2:	d006      	beq.n	8002fb2 <HAL_RCC_ClockConfig+0x82>
    {
      MODIFY_REG(RCC->CFGR, RCC_CFGR_PPRE, RCC_HCLK_DIV16);
 8002fa4:	4b60      	ldr	r3, [pc, #384]	; (8003128 <HAL_RCC_ClockConfig+0x1f8>)
 8002fa6:	689a      	ldr	r2, [r3, #8]
 8002fa8:	4b5f      	ldr	r3, [pc, #380]	; (8003128 <HAL_RCC_ClockConfig+0x1f8>)
 8002faa:	21e0      	movs	r1, #224	; 0xe0
 8002fac:	01c9      	lsls	r1, r1, #7
 8002fae:	430a      	orrs	r2, r1
 8002fb0:	609a      	str	r2, [r3, #8]
    }

    /* Set the new HCLK clock divider */
    assert_param(IS_RCC_HCLK(RCC_ClkInitStruct->AHBCLKDivider));
    MODIFY_REG(RCC->CFGR, RCC_CFGR_HPRE, RCC_ClkInitStruct->AHBCLKDivider);
 8002fb2:	4b5d      	ldr	r3, [pc, #372]	; (8003128 <HAL_RCC_ClockConfig+0x1f8>)
 8002fb4:	689b      	ldr	r3, [r3, #8]
 8002fb6:	4a5d      	ldr	r2, [pc, #372]	; (800312c <HAL_RCC_ClockConfig+0x1fc>)
 8002fb8:	4013      	ands	r3, r2
 8002fba:	0019      	movs	r1, r3
 8002fbc:	687b      	ldr	r3, [r7, #4]
 8002fbe:	689a      	ldr	r2, [r3, #8]
 8002fc0:	4b59      	ldr	r3, [pc, #356]	; (8003128 <HAL_RCC_ClockConfig+0x1f8>)
 8002fc2:	430a      	orrs	r2, r1
 8002fc4:	609a      	str	r2, [r3, #8]
  }

  /*------------------------- SYSCLK Configuration ---------------------------*/
  if (((RCC_ClkInitStruct->ClockType) & RCC_CLOCKTYPE_SYSCLK) == RCC_CLOCKTYPE_SYSCLK)
 8002fc6:	687b      	ldr	r3, [r7, #4]
 8002fc8:	681b      	ldr	r3, [r3, #0]
 8002fca:	2201      	movs	r2, #1
 8002fcc:	4013      	ands	r3, r2
 8002fce:	d057      	beq.n	8003080 <HAL_RCC_ClockConfig+0x150>
  {
    assert_param(IS_RCC_SYSCLKSOURCE(RCC_ClkInitStruct->SYSCLKSource));

    /* HSE is selected as System Clock Source */
    if (RCC_ClkInitStruct->SYSCLKSource == RCC_SYSCLKSOURCE_HSE)
 8002fd0:	687b      	ldr	r3, [r7, #4]
 8002fd2:	685b      	ldr	r3, [r3, #4]
 8002fd4:	2b01      	cmp	r3, #1
 8002fd6:	d107      	bne.n	8002fe8 <HAL_RCC_ClockConfig+0xb8>
    {
      /* Check the HSE ready flag */
      if (READ_BIT(RCC->CR, RCC_CR_HSERDY) == 0U)
 8002fd8:	4b53      	ldr	r3, [pc, #332]	; (8003128 <HAL_RCC_ClockConfig+0x1f8>)
 8002fda:	681a      	ldr	r2, [r3, #0]
 8002fdc:	2380      	movs	r3, #128	; 0x80
 8002fde:	029b      	lsls	r3, r3, #10
 8002fe0:	4013      	ands	r3, r2
 8002fe2:	d12b      	bne.n	800303c <HAL_RCC_ClockConfig+0x10c>
      {
        return HAL_ERROR;
 8002fe4:	2301      	movs	r3, #1
 8002fe6:	e097      	b.n	8003118 <HAL_RCC_ClockConfig+0x1e8>
      }
    }
    /* PLL is selected as System Clock Source */
    else if (RCC_ClkInitStruct->SYSCLKSource == RCC_SYSCLKSOURCE_PLLCLK)
 8002fe8:	687b      	ldr	r3, [r7, #4]
 8002fea:	685b      	ldr	r3, [r3, #4]
 8002fec:	2b02      	cmp	r3, #2
 8002fee:	d107      	bne.n	8003000 <HAL_RCC_ClockConfig+0xd0>
    {
      /* Check the PLL ready flag */
      if (READ_BIT(RCC->CR, RCC_CR_PLLRDY) == 0U)
 8002ff0:	4b4d      	ldr	r3, [pc, #308]	; (8003128 <HAL_RCC_ClockConfig+0x1f8>)
 8002ff2:	681a      	ldr	r2, [r3, #0]
 8002ff4:	2380      	movs	r3, #128	; 0x80
 8002ff6:	049b      	lsls	r3, r3, #18
 8002ff8:	4013      	ands	r3, r2
 8002ffa:	d11f      	bne.n	800303c <HAL_RCC_ClockConfig+0x10c>
      {
        return HAL_ERROR;
 8002ffc:	2301      	movs	r3, #1
 8002ffe:	e08b      	b.n	8003118 <HAL_RCC_ClockConfig+0x1e8>
      }
    }
    /* HSI is selected as System Clock Source */
    else if (RCC_ClkInitStruct->SYSCLKSource == RCC_SYSCLKSOURCE_HSI)
 8003000:	687b      	ldr	r3, [r7, #4]
 8003002:	685b      	ldr	r3, [r3, #4]
 8003004:	2b00      	cmp	r3, #0
 8003006:	d107      	bne.n	8003018 <HAL_RCC_ClockConfig+0xe8>
    {
      /* Check the HSI ready flag */
      if (READ_BIT(RCC->CR, RCC_CR_HSIRDY) == 0U)
 8003008:	4b47      	ldr	r3, [pc, #284]	; (8003128 <HAL_RCC_ClockConfig+0x1f8>)
 800300a:	681a      	ldr	r2, [r3, #0]
 800300c:	2380      	movs	r3, #128	; 0x80
 800300e:	00db      	lsls	r3, r3, #3
 8003010:	4013      	ands	r3, r2
 8003012:	d113      	bne.n	800303c <HAL_RCC_ClockConfig+0x10c>
      {
        return HAL_ERROR;
 8003014:	2301      	movs	r3, #1
 8003016:	e07f      	b.n	8003118 <HAL_RCC_ClockConfig+0x1e8>
      }
    }
    /* LSI is selected as System Clock Source */
    else if (RCC_ClkInitStruct->SYSCLKSource == RCC_SYSCLKSOURCE_LSI)
 8003018:	687b      	ldr	r3, [r7, #4]
 800301a:	685b      	ldr	r3, [r3, #4]
 800301c:	2b03      	cmp	r3, #3
 800301e:	d106      	bne.n	800302e <HAL_RCC_ClockConfig+0xfe>
    {
      /* Check the LSI ready flag */
      if (READ_BIT(RCC->CSR, RCC_CSR_LSIRDY) == 0U)
 8003020:	4b41      	ldr	r3, [pc, #260]	; (8003128 <HAL_RCC_ClockConfig+0x1f8>)
 8003022:	6e1b      	ldr	r3, [r3, #96]	; 0x60
 8003024:	2202      	movs	r2, #2
 8003026:	4013      	ands	r3, r2
 8003028:	d108      	bne.n	800303c <HAL_RCC_ClockConfig+0x10c>
      {
        return HAL_ERROR;
 800302a:	2301      	movs	r3, #1
 800302c:	e074      	b.n	8003118 <HAL_RCC_ClockConfig+0x1e8>
    }
    /* LSE is selected as System Clock Source */
    else
    {
      /* Check the LSE ready flag */
      if (READ_BIT(RCC->BDCR, RCC_BDCR_LSERDY) == 0U)
 800302e:	4b3e      	ldr	r3, [pc, #248]	; (8003128 <HAL_RCC_ClockConfig+0x1f8>)
 8003030:	6ddb      	ldr	r3, [r3, #92]	; 0x5c
 8003032:	2202      	movs	r2, #2
 8003034:	4013      	ands	r3, r2
 8003036:	d101      	bne.n	800303c <HAL_RCC_ClockConfig+0x10c>
      {
        return HAL_ERROR;
 8003038:	2301      	movs	r3, #1
 800303a:	e06d      	b.n	8003118 <HAL_RCC_ClockConfig+0x1e8>
      }
    }
    MODIFY_REG(RCC->CFGR, RCC_CFGR_SW, RCC_ClkInitStruct->SYSCLKSource);
 800303c:	4b3a      	ldr	r3, [pc, #232]	; (8003128 <HAL_RCC_ClockConfig+0x1f8>)
 800303e:	689b      	ldr	r3, [r3, #8]
 8003040:	2207      	movs	r2, #7
 8003042:	4393      	bics	r3, r2
 8003044:	0019      	movs	r1, r3
 8003046:	687b      	ldr	r3, [r7, #4]
 8003048:	685a      	ldr	r2, [r3, #4]
 800304a:	4b37      	ldr	r3, [pc, #220]	; (8003128 <HAL_RCC_ClockConfig+0x1f8>)
 800304c:	430a      	orrs	r2, r1
 800304e:	609a      	str	r2, [r3, #8]

    /* Get Start Tick*/
    tickstart = HAL_GetTick();
 8003050:	f7fe f9e2 	bl	8001418 <HAL_GetTick>
 8003054:	0003      	movs	r3, r0
 8003056:	60fb      	str	r3, [r7, #12]

    while (__HAL_RCC_GET_SYSCLK_SOURCE() != (RCC_ClkInitStruct->SYSCLKSource << RCC_CFGR_SWS_Pos))
 8003058:	e009      	b.n	800306e <HAL_RCC_ClockConfig+0x13e>
    {
      if ((HAL_GetTick() - tickstart) > CLOCKSWITCH_TIMEOUT_VALUE)
 800305a:	f7fe f9dd 	bl	8001418 <HAL_GetTick>
 800305e:	0002      	movs	r2, r0
 8003060:	68fb      	ldr	r3, [r7, #12]
 8003062:	1ad3      	subs	r3, r2, r3
 8003064:	4a2f      	ldr	r2, [pc, #188]	; (8003124 <HAL_RCC_ClockConfig+0x1f4>)
 8003066:	4293      	cmp	r3, r2
 8003068:	d901      	bls.n	800306e <HAL_RCC_ClockConfig+0x13e>
      {
        return HAL_TIMEOUT;
 800306a:	2303      	movs	r3, #3
 800306c:	e054      	b.n	8003118 <HAL_RCC_ClockConfig+0x1e8>
    while (__HAL_RCC_GET_SYSCLK_SOURCE() != (RCC_ClkInitStruct->SYSCLKSource << RCC_CFGR_SWS_Pos))
 800306e:	4b2e      	ldr	r3, [pc, #184]	; (8003128 <HAL_RCC_ClockConfig+0x1f8>)
 8003070:	689b      	ldr	r3, [r3, #8]
 8003072:	2238      	movs	r2, #56	; 0x38
 8003074:	401a      	ands	r2, r3
 8003076:	687b      	ldr	r3, [r7, #4]
 8003078:	685b      	ldr	r3, [r3, #4]
 800307a:	00db      	lsls	r3, r3, #3
 800307c:	429a      	cmp	r2, r3
 800307e:	d1ec      	bne.n	800305a <HAL_RCC_ClockConfig+0x12a>
      }
    }
  }

  /* Decreasing the number of wait states because of lower CPU frequency */
  if (FLatency < __HAL_FLASH_GET_LATENCY())
 8003080:	4b27      	ldr	r3, [pc, #156]	; (8003120 <HAL_RCC_ClockConfig+0x1f0>)
 8003082:	681b      	ldr	r3, [r3, #0]
 8003084:	2207      	movs	r2, #7
 8003086:	4013      	ands	r3, r2
 8003088:	683a      	ldr	r2, [r7, #0]
 800308a:	429a      	cmp	r2, r3
 800308c:	d21e      	bcs.n	80030cc <HAL_RCC_ClockConfig+0x19c>
  {
    /* Program the new number of wait states to the LATENCY bits in the FLASH_ACR register */
    __HAL_FLASH_SET_LATENCY(FLatency);
 800308e:	4b24      	ldr	r3, [pc, #144]	; (8003120 <HAL_RCC_ClockConfig+0x1f0>)
 8003090:	681b      	ldr	r3, [r3, #0]
 8003092:	2207      	movs	r2, #7
 8003094:	4393      	bics	r3, r2
 8003096:	0019      	movs	r1, r3
 8003098:	4b21      	ldr	r3, [pc, #132]	; (8003120 <HAL_RCC_ClockConfig+0x1f0>)
 800309a:	683a      	ldr	r2, [r7, #0]
 800309c:	430a      	orrs	r2, r1
 800309e:	601a      	str	r2, [r3, #0]

    /* Check that the new number of wait states is taken into account to access the Flash
    memory by polling the FLASH_ACR register */
    tickstart = HAL_GetTick();
 80030a0:	f7fe f9ba 	bl	8001418 <HAL_GetTick>
 80030a4:	0003      	movs	r3, r0
 80030a6:	60fb      	str	r3, [r7, #12]

    while ((FLASH->ACR & FLASH_ACR_LATENCY) != FLatency)
 80030a8:	e009      	b.n	80030be <HAL_RCC_ClockConfig+0x18e>
    {
      if ((HAL_GetTick() - tickstart) > CLOCKSWITCH_TIMEOUT_VALUE)
 80030aa:	f7fe f9b5 	bl	8001418 <HAL_GetTick>
 80030ae:	0002      	movs	r2, r0
 80030b0:	68fb      	ldr	r3, [r7, #12]
 80030b2:	1ad3      	subs	r3, r2, r3
 80030b4:	4a1b      	ldr	r2, [pc, #108]	; (8003124 <HAL_RCC_ClockConfig+0x1f4>)
 80030b6:	4293      	cmp	r3, r2
 80030b8:	d901      	bls.n	80030be <HAL_RCC_ClockConfig+0x18e>
      {
        return HAL_TIMEOUT;
 80030ba:	2303      	movs	r3, #3
 80030bc:	e02c      	b.n	8003118 <HAL_RCC_ClockConfig+0x1e8>
    while ((FLASH->ACR & FLASH_ACR_LATENCY) != FLatency)
 80030be:	4b18      	ldr	r3, [pc, #96]	; (8003120 <HAL_RCC_ClockConfig+0x1f0>)
 80030c0:	681b      	ldr	r3, [r3, #0]
 80030c2:	2207      	movs	r2, #7
 80030c4:	4013      	ands	r3, r2
 80030c6:	683a      	ldr	r2, [r7, #0]
 80030c8:	429a      	cmp	r2, r3
 80030ca:	d1ee      	bne.n	80030aa <HAL_RCC_ClockConfig+0x17a>
      }
    }
  }

  /*-------------------------- PCLK1 Configuration ---------------------------*/
  if (((RCC_ClkInitStruct->ClockType) & RCC_CLOCKTYPE_PCLK1) == RCC_CLOCKTYPE_PCLK1)
 80030cc:	687b      	ldr	r3, [r7, #4]
 80030ce:	681b      	ldr	r3, [r3, #0]
 80030d0:	2204      	movs	r2, #4
 80030d2:	4013      	ands	r3, r2
 80030d4:	d009      	beq.n	80030ea <HAL_RCC_ClockConfig+0x1ba>
  {
    assert_param(IS_RCC_PCLK(RCC_ClkInitStruct->APB1CLKDivider));
    MODIFY_REG(RCC->CFGR, RCC_CFGR_PPRE, RCC_ClkInitStruct->APB1CLKDivider);
 80030d6:	4b14      	ldr	r3, [pc, #80]	; (8003128 <HAL_RCC_ClockConfig+0x1f8>)
 80030d8:	689b      	ldr	r3, [r3, #8]
 80030da:	4a15      	ldr	r2, [pc, #84]	; (8003130 <HAL_RCC_ClockConfig+0x200>)
 80030dc:	4013      	ands	r3, r2
 80030de:	0019      	movs	r1, r3
 80030e0:	687b      	ldr	r3, [r7, #4]
 80030e2:	68da      	ldr	r2, [r3, #12]
 80030e4:	4b10      	ldr	r3, [pc, #64]	; (8003128 <HAL_RCC_ClockConfig+0x1f8>)
 80030e6:	430a      	orrs	r2, r1
 80030e8:	609a      	str	r2, [r3, #8]
  }

  /* Update the SystemCoreClock global variable */
  SystemCoreClock = (HAL_RCC_GetSysClockFreq() >> ((AHBPrescTable[(RCC->CFGR & RCC_CFGR_HPRE) >> RCC_CFGR_HPRE_Pos]) & 0x1FU));
 80030ea:	f000 f829 	bl	8003140 <HAL_RCC_GetSysClockFreq>
 80030ee:	0001      	movs	r1, r0
 80030f0:	4b0d      	ldr	r3, [pc, #52]	; (8003128 <HAL_RCC_ClockConfig+0x1f8>)
 80030f2:	689b      	ldr	r3, [r3, #8]
 80030f4:	0a1b      	lsrs	r3, r3, #8
 80030f6:	220f      	movs	r2, #15
 80030f8:	401a      	ands	r2, r3
 80030fa:	4b0e      	ldr	r3, [pc, #56]	; (8003134 <HAL_RCC_ClockConfig+0x204>)
 80030fc:	0092      	lsls	r2, r2, #2
 80030fe:	58d3      	ldr	r3, [r2, r3]
 8003100:	221f      	movs	r2, #31
 8003102:	4013      	ands	r3, r2
 8003104:	000a      	movs	r2, r1
 8003106:	40da      	lsrs	r2, r3
 8003108:	4b0b      	ldr	r3, [pc, #44]	; (8003138 <HAL_RCC_ClockConfig+0x208>)
 800310a:	601a      	str	r2, [r3, #0]

  /* Configure the source of time base considering new system clocks settings*/
  return HAL_InitTick(uwTickPrio);
 800310c:	4b0b      	ldr	r3, [pc, #44]	; (800313c <HAL_RCC_ClockConfig+0x20c>)
 800310e:	681b      	ldr	r3, [r3, #0]
 8003110:	0018      	movs	r0, r3
 8003112:	f7fe f925 	bl	8001360 <HAL_InitTick>
 8003116:	0003      	movs	r3, r0
}
 8003118:	0018      	movs	r0, r3
 800311a:	46bd      	mov	sp, r7
 800311c:	b004      	add	sp, #16
 800311e:	bd80      	pop	{r7, pc}
 8003120:	40022000 	.word	0x40022000
 8003124:	00001388 	.word	0x00001388
 8003128:	40021000 	.word	0x40021000
 800312c:	fffff0ff 	.word	0xfffff0ff
 8003130:	ffff8fff 	.word	0xffff8fff
 8003134:	08004cf4 	.word	0x08004cf4
 8003138:	20000000 	.word	0x20000000
 800313c:	20000004 	.word	0x20000004

08003140 <HAL_RCC_GetSysClockFreq>:
  *
  *
  * @retval SYSCLK frequency
  */
uint32_t HAL_RCC_GetSysClockFreq(void)
{
 8003140:	b580      	push	{r7, lr}
 8003142:	b086      	sub	sp, #24
 8003144:	af00      	add	r7, sp, #0
  uint32_t pllvco, pllsource, pllr, pllm, hsidiv;
  uint32_t sysclockfreq;

  if (__HAL_RCC_GET_SYSCLK_SOURCE() == RCC_SYSCLKSOURCE_STATUS_HSI)
 8003146:	4b3c      	ldr	r3, [pc, #240]	; (8003238 <HAL_RCC_GetSysClockFreq+0xf8>)
 8003148:	689b      	ldr	r3, [r3, #8]
 800314a:	2238      	movs	r2, #56	; 0x38
 800314c:	4013      	ands	r3, r2
 800314e:	d10f      	bne.n	8003170 <HAL_RCC_GetSysClockFreq+0x30>
  {
    /* HSISYS can be derived for HSI16 */
    hsidiv = (1UL << ((READ_BIT(RCC->CR, RCC_CR_HSIDIV)) >> RCC_CR_HSIDIV_Pos));
 8003150:	4b39      	ldr	r3, [pc, #228]	; (8003238 <HAL_RCC_GetSysClockFreq+0xf8>)
 8003152:	681b      	ldr	r3, [r3, #0]
 8003154:	0adb      	lsrs	r3, r3, #11
 8003156:	2207      	movs	r2, #7
 8003158:	4013      	ands	r3, r2
 800315a:	2201      	movs	r2, #1
 800315c:	409a      	lsls	r2, r3
 800315e:	0013      	movs	r3, r2
 8003160:	603b      	str	r3, [r7, #0]

    /* HSI used as system clock source */
    sysclockfreq = (HSI_VALUE / hsidiv);
 8003162:	6839      	ldr	r1, [r7, #0]
 8003164:	4835      	ldr	r0, [pc, #212]	; (800323c <HAL_RCC_GetSysClockFreq+0xfc>)
 8003166:	f7fc ffcd 	bl	8000104 <__udivsi3>
 800316a:	0003      	movs	r3, r0
 800316c:	613b      	str	r3, [r7, #16]
 800316e:	e05d      	b.n	800322c <HAL_RCC_GetSysClockFreq+0xec>
  }
  else if (__HAL_RCC_GET_SYSCLK_SOURCE() == RCC_SYSCLKSOURCE_STATUS_HSE)
 8003170:	4b31      	ldr	r3, [pc, #196]	; (8003238 <HAL_RCC_GetSysClockFreq+0xf8>)
 8003172:	689b      	ldr	r3, [r3, #8]
 8003174:	2238      	movs	r2, #56	; 0x38
 8003176:	4013      	ands	r3, r2
 8003178:	2b08      	cmp	r3, #8
 800317a:	d102      	bne.n	8003182 <HAL_RCC_GetSysClockFreq+0x42>
  {
    /* HSE used as system clock source */
    sysclockfreq = HSE_VALUE;
 800317c:	4b30      	ldr	r3, [pc, #192]	; (8003240 <HAL_RCC_GetSysClockFreq+0x100>)
 800317e:	613b      	str	r3, [r7, #16]
 8003180:	e054      	b.n	800322c <HAL_RCC_GetSysClockFreq+0xec>
  }
  else if (__HAL_RCC_GET_SYSCLK_SOURCE() == RCC_SYSCLKSOURCE_STATUS_PLLCLK)
 8003182:	4b2d      	ldr	r3, [pc, #180]	; (8003238 <HAL_RCC_GetSysClockFreq+0xf8>)
 8003184:	689b      	ldr	r3, [r3, #8]
 8003186:	2238      	movs	r2, #56	; 0x38
 8003188:	4013      	ands	r3, r2
 800318a:	2b10      	cmp	r3, #16
 800318c:	d138      	bne.n	8003200 <HAL_RCC_GetSysClockFreq+0xc0>
    /* PLL used as system clock  source */

    /* PLL_VCO = ((HSE_VALUE or HSI_VALUE)/ PLLM) * PLLN
    SYSCLK = PLL_VCO / PLLR
    */
    pllsource = (RCC->PLLCFGR & RCC_PLLCFGR_PLLSRC);
 800318e:	4b2a      	ldr	r3, [pc, #168]	; (8003238 <HAL_RCC_GetSysClockFreq+0xf8>)
 8003190:	68db      	ldr	r3, [r3, #12]
 8003192:	2203      	movs	r2, #3
 8003194:	4013      	ands	r3, r2
 8003196:	60fb      	str	r3, [r7, #12]
    pllm = ((RCC->PLLCFGR & RCC_PLLCFGR_PLLM) >> RCC_PLLCFGR_PLLM_Pos) + 1U ;
 8003198:	4b27      	ldr	r3, [pc, #156]	; (8003238 <HAL_RCC_GetSysClockFreq+0xf8>)
 800319a:	68db      	ldr	r3, [r3, #12]
 800319c:	091b      	lsrs	r3, r3, #4
 800319e:	2207      	movs	r2, #7
 80031a0:	4013      	ands	r3, r2
 80031a2:	3301      	adds	r3, #1
 80031a4:	60bb      	str	r3, [r7, #8]

    switch (pllsource)
 80031a6:	68fb      	ldr	r3, [r7, #12]
 80031a8:	2b03      	cmp	r3, #3
 80031aa:	d10d      	bne.n	80031c8 <HAL_RCC_GetSysClockFreq+0x88>
    {
      case RCC_PLLSOURCE_HSE:  /* HSE used as PLL clock source */
        pllvco = (HSE_VALUE / pllm) * ((RCC->PLLCFGR & RCC_PLLCFGR_PLLN) >> RCC_PLLCFGR_PLLN_Pos);
 80031ac:	68b9      	ldr	r1, [r7, #8]
 80031ae:	4824      	ldr	r0, [pc, #144]	; (8003240 <HAL_RCC_GetSysClockFreq+0x100>)
 80031b0:	f7fc ffa8 	bl	8000104 <__udivsi3>
 80031b4:	0003      	movs	r3, r0
 80031b6:	0019      	movs	r1, r3
 80031b8:	4b1f      	ldr	r3, [pc, #124]	; (8003238 <HAL_RCC_GetSysClockFreq+0xf8>)
 80031ba:	68db      	ldr	r3, [r3, #12]
 80031bc:	0a1b      	lsrs	r3, r3, #8
 80031be:	227f      	movs	r2, #127	; 0x7f
 80031c0:	4013      	ands	r3, r2
 80031c2:	434b      	muls	r3, r1
 80031c4:	617b      	str	r3, [r7, #20]
        break;
 80031c6:	e00d      	b.n	80031e4 <HAL_RCC_GetSysClockFreq+0xa4>

      case RCC_PLLSOURCE_HSI:  /* HSI16 used as PLL clock source */
      default:                 /* HSI16 used as PLL clock source */
        pllvco = (HSI_VALUE / pllm) * ((RCC->PLLCFGR & RCC_PLLCFGR_PLLN) >> RCC_PLLCFGR_PLLN_Pos) ;
 80031c8:	68b9      	ldr	r1, [r7, #8]
 80031ca:	481c      	ldr	r0, [pc, #112]	; (800323c <HAL_RCC_GetSysClockFreq+0xfc>)
 80031cc:	f7fc ff9a 	bl	8000104 <__udivsi3>
 80031d0:	0003      	movs	r3, r0
 80031d2:	0019      	movs	r1, r3
 80031d4:	4b18      	ldr	r3, [pc, #96]	; (8003238 <HAL_RCC_GetSysClockFreq+0xf8>)
 80031d6:	68db      	ldr	r3, [r3, #12]
 80031d8:	0a1b      	lsrs	r3, r3, #8
 80031da:	227f      	movs	r2, #127	; 0x7f
 80031dc:	4013      	ands	r3, r2
 80031de:	434b      	muls	r3, r1
 80031e0:	617b      	str	r3, [r7, #20]
        break;
 80031e2:	46c0      	nop			; (mov r8, r8)
    }
    pllr = (((RCC->PLLCFGR & RCC_PLLCFGR_PLLR) >> RCC_PLLCFGR_PLLR_Pos) + 1U);
 80031e4:	4b14      	ldr	r3, [pc, #80]	; (8003238 <HAL_RCC_GetSysClockFreq+0xf8>)
 80031e6:	68db      	ldr	r3, [r3, #12]
 80031e8:	0f5b      	lsrs	r3, r3, #29
 80031ea:	2207      	movs	r2, #7
 80031ec:	4013      	ands	r3, r2
 80031ee:	3301      	adds	r3, #1
 80031f0:	607b      	str	r3, [r7, #4]
    sysclockfreq = pllvco / pllr;
 80031f2:	6879      	ldr	r1, [r7, #4]
 80031f4:	6978      	ldr	r0, [r7, #20]
 80031f6:	f7fc ff85 	bl	8000104 <__udivsi3>
 80031fa:	0003      	movs	r3, r0
 80031fc:	613b      	str	r3, [r7, #16]
 80031fe:	e015      	b.n	800322c <HAL_RCC_GetSysClockFreq+0xec>
  }
  else if (__HAL_RCC_GET_SYSCLK_SOURCE() == RCC_SYSCLKSOURCE_STATUS_LSE)
 8003200:	4b0d      	ldr	r3, [pc, #52]	; (8003238 <HAL_RCC_GetSysClockFreq+0xf8>)
 8003202:	689b      	ldr	r3, [r3, #8]
 8003204:	2238      	movs	r2, #56	; 0x38
 8003206:	4013      	ands	r3, r2
 8003208:	2b20      	cmp	r3, #32
 800320a:	d103      	bne.n	8003214 <HAL_RCC_GetSysClockFreq+0xd4>
  {
    /* LSE used as system clock source */
    sysclockfreq = LSE_VALUE;
 800320c:	2380      	movs	r3, #128	; 0x80
 800320e:	021b      	lsls	r3, r3, #8
 8003210:	613b      	str	r3, [r7, #16]
 8003212:	e00b      	b.n	800322c <HAL_RCC_GetSysClockFreq+0xec>
  }
  else if (__HAL_RCC_GET_SYSCLK_SOURCE() == RCC_SYSCLKSOURCE_STATUS_LSI)
 8003214:	4b08      	ldr	r3, [pc, #32]	; (8003238 <HAL_RCC_GetSysClockFreq+0xf8>)
 8003216:	689b      	ldr	r3, [r3, #8]
 8003218:	2238      	movs	r2, #56	; 0x38
 800321a:	4013      	ands	r3, r2
 800321c:	2b18      	cmp	r3, #24
 800321e:	d103      	bne.n	8003228 <HAL_RCC_GetSysClockFreq+0xe8>
  {
    /* LSI used as system clock source */
    sysclockfreq = LSI_VALUE;
 8003220:	23fa      	movs	r3, #250	; 0xfa
 8003222:	01db      	lsls	r3, r3, #7
 8003224:	613b      	str	r3, [r7, #16]
 8003226:	e001      	b.n	800322c <HAL_RCC_GetSysClockFreq+0xec>
  }
  else
  {
    sysclockfreq = 0U;
 8003228:	2300      	movs	r3, #0
 800322a:	613b      	str	r3, [r7, #16]
  }

  return sysclockfreq;
 800322c:	693b      	ldr	r3, [r7, #16]
}
 800322e:	0018      	movs	r0, r3
 8003230:	46bd      	mov	sp, r7
 8003232:	b006      	add	sp, #24
 8003234:	bd80      	pop	{r7, pc}
 8003236:	46c0      	nop			; (mov r8, r8)
 8003238:	40021000 	.word	0x40021000
 800323c:	00f42400 	.word	0x00f42400
 8003240:	007a1200 	.word	0x007a1200

08003244 <HAL_RCC_GetHCLKFreq>:
  *
  * @note   The SystemCoreClock CMSIS variable is used to store System Clock Frequency.
  * @retval HCLK frequency in Hz
  */
uint32_t HAL_RCC_GetHCLKFreq(void)
{
 8003244:	b580      	push	{r7, lr}
 8003246:	af00      	add	r7, sp, #0
  return SystemCoreClock;
 8003248:	4b02      	ldr	r3, [pc, #8]	; (8003254 <HAL_RCC_GetHCLKFreq+0x10>)
 800324a:	681b      	ldr	r3, [r3, #0]
}
 800324c:	0018      	movs	r0, r3
 800324e:	46bd      	mov	sp, r7
 8003250:	bd80      	pop	{r7, pc}
 8003252:	46c0      	nop			; (mov r8, r8)
 8003254:	20000000 	.word	0x20000000

08003258 <HAL_RCC_GetPCLK1Freq>:
  * @note   Each time PCLK1 changes, this function must be called to update the
  *         right PCLK1 value. Otherwise, any configuration based on this function will be incorrect.
  * @retval PCLK1 frequency in Hz
  */
uint32_t HAL_RCC_GetPCLK1Freq(void)
{
 8003258:	b5b0      	push	{r4, r5, r7, lr}
 800325a:	af00      	add	r7, sp, #0
  /* Get HCLK source and Compute PCLK1 frequency ---------------------------*/
  return ((uint32_t)(__LL_RCC_CALC_PCLK1_FREQ(HAL_RCC_GetHCLKFreq(), LL_RCC_GetAPB1Prescaler())));
 800325c:	f7ff fff2 	bl	8003244 <HAL_RCC_GetHCLKFreq>
 8003260:	0004      	movs	r4, r0
 8003262:	f7ff faf9 	bl	8002858 <LL_RCC_GetAPB1Prescaler>
 8003266:	0003      	movs	r3, r0
 8003268:	0b1a      	lsrs	r2, r3, #12
 800326a:	4b05      	ldr	r3, [pc, #20]	; (8003280 <HAL_RCC_GetPCLK1Freq+0x28>)
 800326c:	0092      	lsls	r2, r2, #2
 800326e:	58d3      	ldr	r3, [r2, r3]
 8003270:	221f      	movs	r2, #31
 8003272:	4013      	ands	r3, r2
 8003274:	40dc      	lsrs	r4, r3
 8003276:	0023      	movs	r3, r4
}
 8003278:	0018      	movs	r0, r3
 800327a:	46bd      	mov	sp, r7
 800327c:	bdb0      	pop	{r4, r5, r7, pc}
 800327e:	46c0      	nop			; (mov r8, r8)
 8003280:	08004d34 	.word	0x08004d34

08003284 <HAL_RCCEx_PeriphCLKConfig>:
  *         the RTC clock source: in this case the access to Backup domain is enabled.
  *
  * @retval HAL status
  */
HAL_StatusTypeDef HAL_RCCEx_PeriphCLKConfig(RCC_PeriphCLKInitTypeDef  *PeriphClkInit)
{
 8003284:	b580      	push	{r7, lr}
 8003286:	b086      	sub	sp, #24
 8003288:	af00      	add	r7, sp, #0
 800328a:	6078      	str	r0, [r7, #4]
  uint32_t tmpregister;
  uint32_t tickstart;
  HAL_StatusTypeDef ret    = HAL_OK;   /* Intermediate status */
 800328c:	2313      	movs	r3, #19
 800328e:	18fb      	adds	r3, r7, r3
 8003290:	2200      	movs	r2, #0
 8003292:	701a      	strb	r2, [r3, #0]
  HAL_StatusTypeDef status = HAL_OK;   /* Final status */
 8003294:	2312      	movs	r3, #18
 8003296:	18fb      	adds	r3, r7, r3
 8003298:	2200      	movs	r2, #0
 800329a:	701a      	strb	r2, [r3, #0]

  /* Check the parameters */
  assert_param(IS_RCC_PERIPHCLOCK(PeriphClkInit->PeriphClockSelection));

  /*-------------------------- RTC clock source configuration ----------------------*/
  if ((PeriphClkInit->PeriphClockSelection & RCC_PERIPHCLK_RTC) == RCC_PERIPHCLK_RTC)
 800329c:	687b      	ldr	r3, [r7, #4]
 800329e:	681a      	ldr	r2, [r3, #0]
 80032a0:	2380      	movs	r3, #128	; 0x80
 80032a2:	029b      	lsls	r3, r3, #10
 80032a4:	4013      	ands	r3, r2
 80032a6:	d100      	bne.n	80032aa <HAL_RCCEx_PeriphCLKConfig+0x26>
 80032a8:	e0ad      	b.n	8003406 <HAL_RCCEx_PeriphCLKConfig+0x182>
  {
    FlagStatus       pwrclkchanged = RESET;
 80032aa:	2011      	movs	r0, #17
 80032ac:	183b      	adds	r3, r7, r0
 80032ae:	2200      	movs	r2, #0
 80032b0:	701a      	strb	r2, [r3, #0]

    /* Check for RTC Parameters used to output RTCCLK */
    assert_param(IS_RCC_RTCCLKSOURCE(PeriphClkInit->RTCClockSelection));

    /* Enable Power Clock */
    if (__HAL_RCC_PWR_IS_CLK_DISABLED())
 80032b2:	4b47      	ldr	r3, [pc, #284]	; (80033d0 <HAL_RCCEx_PeriphCLKConfig+0x14c>)
 80032b4:	6bda      	ldr	r2, [r3, #60]	; 0x3c
 80032b6:	2380      	movs	r3, #128	; 0x80
 80032b8:	055b      	lsls	r3, r3, #21
 80032ba:	4013      	ands	r3, r2
 80032bc:	d110      	bne.n	80032e0 <HAL_RCCEx_PeriphCLKConfig+0x5c>
    {
      __HAL_RCC_PWR_CLK_ENABLE();
 80032be:	4b44      	ldr	r3, [pc, #272]	; (80033d0 <HAL_RCCEx_PeriphCLKConfig+0x14c>)
 80032c0:	6bda      	ldr	r2, [r3, #60]	; 0x3c
 80032c2:	4b43      	ldr	r3, [pc, #268]	; (80033d0 <HAL_RCCEx_PeriphCLKConfig+0x14c>)
 80032c4:	2180      	movs	r1, #128	; 0x80
 80032c6:	0549      	lsls	r1, r1, #21
 80032c8:	430a      	orrs	r2, r1
 80032ca:	63da      	str	r2, [r3, #60]	; 0x3c
 80032cc:	4b40      	ldr	r3, [pc, #256]	; (80033d0 <HAL_RCCEx_PeriphCLKConfig+0x14c>)
 80032ce:	6bda      	ldr	r2, [r3, #60]	; 0x3c
 80032d0:	2380      	movs	r3, #128	; 0x80
 80032d2:	055b      	lsls	r3, r3, #21
 80032d4:	4013      	ands	r3, r2
 80032d6:	60bb      	str	r3, [r7, #8]
 80032d8:	68bb      	ldr	r3, [r7, #8]
      pwrclkchanged = SET;
 80032da:	183b      	adds	r3, r7, r0
 80032dc:	2201      	movs	r2, #1
 80032de:	701a      	strb	r2, [r3, #0]
    }

    /* Enable write access to Backup domain */
    SET_BIT(PWR->CR1, PWR_CR1_DBP);
 80032e0:	4b3c      	ldr	r3, [pc, #240]	; (80033d4 <HAL_RCCEx_PeriphCLKConfig+0x150>)
 80032e2:	681a      	ldr	r2, [r3, #0]
 80032e4:	4b3b      	ldr	r3, [pc, #236]	; (80033d4 <HAL_RCCEx_PeriphCLKConfig+0x150>)
 80032e6:	2180      	movs	r1, #128	; 0x80
 80032e8:	0049      	lsls	r1, r1, #1
 80032ea:	430a      	orrs	r2, r1
 80032ec:	601a      	str	r2, [r3, #0]

    /* Wait for Backup domain Write protection disable */
    tickstart = HAL_GetTick();
 80032ee:	f7fe f893 	bl	8001418 <HAL_GetTick>
 80032f2:	0003      	movs	r3, r0
 80032f4:	60fb      	str	r3, [r7, #12]

    while ((PWR->CR1 & PWR_CR1_DBP) == 0U)
 80032f6:	e00b      	b.n	8003310 <HAL_RCCEx_PeriphCLKConfig+0x8c>
    {
      if ((HAL_GetTick() - tickstart) > RCC_DBP_TIMEOUT_VALUE)
 80032f8:	f7fe f88e 	bl	8001418 <HAL_GetTick>
 80032fc:	0002      	movs	r2, r0
 80032fe:	68fb      	ldr	r3, [r7, #12]
 8003300:	1ad3      	subs	r3, r2, r3
 8003302:	2b02      	cmp	r3, #2
 8003304:	d904      	bls.n	8003310 <HAL_RCCEx_PeriphCLKConfig+0x8c>
      {
        ret = HAL_TIMEOUT;
 8003306:	2313      	movs	r3, #19
 8003308:	18fb      	adds	r3, r7, r3
 800330a:	2203      	movs	r2, #3
 800330c:	701a      	strb	r2, [r3, #0]
        break;
 800330e:	e005      	b.n	800331c <HAL_RCCEx_PeriphCLKConfig+0x98>
    while ((PWR->CR1 & PWR_CR1_DBP) == 0U)
 8003310:	4b30      	ldr	r3, [pc, #192]	; (80033d4 <HAL_RCCEx_PeriphCLKConfig+0x150>)
 8003312:	681a      	ldr	r2, [r3, #0]
 8003314:	2380      	movs	r3, #128	; 0x80
 8003316:	005b      	lsls	r3, r3, #1
 8003318:	4013      	ands	r3, r2
 800331a:	d0ed      	beq.n	80032f8 <HAL_RCCEx_PeriphCLKConfig+0x74>
      }
    }

    if (ret == HAL_OK)
 800331c:	2313      	movs	r3, #19
 800331e:	18fb      	adds	r3, r7, r3
 8003320:	781b      	ldrb	r3, [r3, #0]
 8003322:	2b00      	cmp	r3, #0
 8003324:	d15e      	bne.n	80033e4 <HAL_RCCEx_PeriphCLKConfig+0x160>
    {
      /* Reset the Backup domain only if the RTC Clock source selection is modified from default */
      tmpregister = READ_BIT(RCC->BDCR, RCC_BDCR_RTCSEL);
 8003326:	4b2a      	ldr	r3, [pc, #168]	; (80033d0 <HAL_RCCEx_PeriphCLKConfig+0x14c>)
 8003328:	6dda      	ldr	r2, [r3, #92]	; 0x5c
 800332a:	23c0      	movs	r3, #192	; 0xc0
 800332c:	009b      	lsls	r3, r3, #2
 800332e:	4013      	ands	r3, r2
 8003330:	617b      	str	r3, [r7, #20]

      /* Reset the Backup domain only if the RTC Clock source selection is modified */
      if ((tmpregister != RCC_RTCCLKSOURCE_NONE) && (tmpregister != PeriphClkInit->RTCClockSelection))
 8003332:	697b      	ldr	r3, [r7, #20]
 8003334:	2b00      	cmp	r3, #0
 8003336:	d019      	beq.n	800336c <HAL_RCCEx_PeriphCLKConfig+0xe8>
 8003338:	687b      	ldr	r3, [r7, #4]
 800333a:	6c1b      	ldr	r3, [r3, #64]	; 0x40
 800333c:	697a      	ldr	r2, [r7, #20]
 800333e:	429a      	cmp	r2, r3
 8003340:	d014      	beq.n	800336c <HAL_RCCEx_PeriphCLKConfig+0xe8>
      {
        /* Store the content of BDCR register before the reset of Backup Domain */
        tmpregister = READ_BIT(RCC->BDCR, ~(RCC_BDCR_RTCSEL));
 8003342:	4b23      	ldr	r3, [pc, #140]	; (80033d0 <HAL_RCCEx_PeriphCLKConfig+0x14c>)
 8003344:	6ddb      	ldr	r3, [r3, #92]	; 0x5c
 8003346:	4a24      	ldr	r2, [pc, #144]	; (80033d8 <HAL_RCCEx_PeriphCLKConfig+0x154>)
 8003348:	4013      	ands	r3, r2
 800334a:	617b      	str	r3, [r7, #20]
        /* RTC Clock selection can be changed only if the Backup Domain is reset */
        __HAL_RCC_BACKUPRESET_FORCE();
 800334c:	4b20      	ldr	r3, [pc, #128]	; (80033d0 <HAL_RCCEx_PeriphCLKConfig+0x14c>)
 800334e:	6dda      	ldr	r2, [r3, #92]	; 0x5c
 8003350:	4b1f      	ldr	r3, [pc, #124]	; (80033d0 <HAL_RCCEx_PeriphCLKConfig+0x14c>)
 8003352:	2180      	movs	r1, #128	; 0x80
 8003354:	0249      	lsls	r1, r1, #9
 8003356:	430a      	orrs	r2, r1
 8003358:	65da      	str	r2, [r3, #92]	; 0x5c
        __HAL_RCC_BACKUPRESET_RELEASE();
 800335a:	4b1d      	ldr	r3, [pc, #116]	; (80033d0 <HAL_RCCEx_PeriphCLKConfig+0x14c>)
 800335c:	6dda      	ldr	r2, [r3, #92]	; 0x5c
 800335e:	4b1c      	ldr	r3, [pc, #112]	; (80033d0 <HAL_RCCEx_PeriphCLKConfig+0x14c>)
 8003360:	491e      	ldr	r1, [pc, #120]	; (80033dc <HAL_RCCEx_PeriphCLKConfig+0x158>)
 8003362:	400a      	ands	r2, r1
 8003364:	65da      	str	r2, [r3, #92]	; 0x5c
        /* Restore the Content of BDCR register */
        RCC->BDCR = tmpregister;
 8003366:	4b1a      	ldr	r3, [pc, #104]	; (80033d0 <HAL_RCCEx_PeriphCLKConfig+0x14c>)
 8003368:	697a      	ldr	r2, [r7, #20]
 800336a:	65da      	str	r2, [r3, #92]	; 0x5c
      }

      /* Wait for LSE reactivation if LSE was enable prior to Backup Domain reset */
      if (HAL_IS_BIT_SET(tmpregister, RCC_BDCR_LSEON))
 800336c:	697b      	ldr	r3, [r7, #20]
 800336e:	2201      	movs	r2, #1
 8003370:	4013      	ands	r3, r2
 8003372:	d016      	beq.n	80033a2 <HAL_RCCEx_PeriphCLKConfig+0x11e>
      {
        /* Get Start Tick*/
        tickstart = HAL_GetTick();
 8003374:	f7fe f850 	bl	8001418 <HAL_GetTick>
 8003378:	0003      	movs	r3, r0
 800337a:	60fb      	str	r3, [r7, #12]

        /* Wait till LSE is ready */
        while (READ_BIT(RCC->BDCR, RCC_BDCR_LSERDY) == 0U)
 800337c:	e00c      	b.n	8003398 <HAL_RCCEx_PeriphCLKConfig+0x114>
        {
          if ((HAL_GetTick() - tickstart) > RCC_LSE_TIMEOUT_VALUE)
 800337e:	f7fe f84b 	bl	8001418 <HAL_GetTick>
 8003382:	0002      	movs	r2, r0
 8003384:	68fb      	ldr	r3, [r7, #12]
 8003386:	1ad3      	subs	r3, r2, r3
 8003388:	4a15      	ldr	r2, [pc, #84]	; (80033e0 <HAL_RCCEx_PeriphCLKConfig+0x15c>)
 800338a:	4293      	cmp	r3, r2
 800338c:	d904      	bls.n	8003398 <HAL_RCCEx_PeriphCLKConfig+0x114>
          {
            ret = HAL_TIMEOUT;
 800338e:	2313      	movs	r3, #19
 8003390:	18fb      	adds	r3, r7, r3
 8003392:	2203      	movs	r2, #3
 8003394:	701a      	strb	r2, [r3, #0]
            break;
 8003396:	e004      	b.n	80033a2 <HAL_RCCEx_PeriphCLKConfig+0x11e>
        while (READ_BIT(RCC->BDCR, RCC_BDCR_LSERDY) == 0U)
 8003398:	4b0d      	ldr	r3, [pc, #52]	; (80033d0 <HAL_RCCEx_PeriphCLKConfig+0x14c>)
 800339a:	6ddb      	ldr	r3, [r3, #92]	; 0x5c
 800339c:	2202      	movs	r2, #2
 800339e:	4013      	ands	r3, r2
 80033a0:	d0ed      	beq.n	800337e <HAL_RCCEx_PeriphCLKConfig+0xfa>
          }
        }
      }

      if (ret == HAL_OK)
 80033a2:	2313      	movs	r3, #19
 80033a4:	18fb      	adds	r3, r7, r3
 80033a6:	781b      	ldrb	r3, [r3, #0]
 80033a8:	2b00      	cmp	r3, #0
 80033aa:	d10a      	bne.n	80033c2 <HAL_RCCEx_PeriphCLKConfig+0x13e>
      {
        /* Apply new RTC clock source selection */
        __HAL_RCC_RTC_CONFIG(PeriphClkInit->RTCClockSelection);
 80033ac:	4b08      	ldr	r3, [pc, #32]	; (80033d0 <HAL_RCCEx_PeriphCLKConfig+0x14c>)
 80033ae:	6ddb      	ldr	r3, [r3, #92]	; 0x5c
 80033b0:	4a09      	ldr	r2, [pc, #36]	; (80033d8 <HAL_RCCEx_PeriphCLKConfig+0x154>)
 80033b2:	4013      	ands	r3, r2
 80033b4:	0019      	movs	r1, r3
 80033b6:	687b      	ldr	r3, [r7, #4]
 80033b8:	6c1a      	ldr	r2, [r3, #64]	; 0x40
 80033ba:	4b05      	ldr	r3, [pc, #20]	; (80033d0 <HAL_RCCEx_PeriphCLKConfig+0x14c>)
 80033bc:	430a      	orrs	r2, r1
 80033be:	65da      	str	r2, [r3, #92]	; 0x5c
 80033c0:	e016      	b.n	80033f0 <HAL_RCCEx_PeriphCLKConfig+0x16c>
      }
      else
      {
        /* set overall return value */
        status = ret;
 80033c2:	2312      	movs	r3, #18
 80033c4:	18fb      	adds	r3, r7, r3
 80033c6:	2213      	movs	r2, #19
 80033c8:	18ba      	adds	r2, r7, r2
 80033ca:	7812      	ldrb	r2, [r2, #0]
 80033cc:	701a      	strb	r2, [r3, #0]
 80033ce:	e00f      	b.n	80033f0 <HAL_RCCEx_PeriphCLKConfig+0x16c>
 80033d0:	40021000 	.word	0x40021000
 80033d4:	40007000 	.word	0x40007000
 80033d8:	fffffcff 	.word	0xfffffcff
 80033dc:	fffeffff 	.word	0xfffeffff
 80033e0:	00001388 	.word	0x00001388
      }
    }
    else
    {
      /* set overall return value */
      status = ret;
 80033e4:	2312      	movs	r3, #18
 80033e6:	18fb      	adds	r3, r7, r3
 80033e8:	2213      	movs	r2, #19
 80033ea:	18ba      	adds	r2, r7, r2
 80033ec:	7812      	ldrb	r2, [r2, #0]
 80033ee:	701a      	strb	r2, [r3, #0]
    }

    /* Restore clock configuration if changed */
    if (pwrclkchanged == SET)
 80033f0:	2311      	movs	r3, #17
 80033f2:	18fb      	adds	r3, r7, r3
 80033f4:	781b      	ldrb	r3, [r3, #0]
 80033f6:	2b01      	cmp	r3, #1
 80033f8:	d105      	bne.n	8003406 <HAL_RCCEx_PeriphCLKConfig+0x182>
    {
      __HAL_RCC_PWR_CLK_DISABLE();
 80033fa:	4bb6      	ldr	r3, [pc, #728]	; (80036d4 <HAL_RCCEx_PeriphCLKConfig+0x450>)
 80033fc:	6bda      	ldr	r2, [r3, #60]	; 0x3c
 80033fe:	4bb5      	ldr	r3, [pc, #724]	; (80036d4 <HAL_RCCEx_PeriphCLKConfig+0x450>)
 8003400:	49b5      	ldr	r1, [pc, #724]	; (80036d8 <HAL_RCCEx_PeriphCLKConfig+0x454>)
 8003402:	400a      	ands	r2, r1
 8003404:	63da      	str	r2, [r3, #60]	; 0x3c
    }
  }

  /*-------------------------- USART1 clock source configuration -------------------*/
  if (((PeriphClkInit->PeriphClockSelection) & RCC_PERIPHCLK_USART1) == RCC_PERIPHCLK_USART1)
 8003406:	687b      	ldr	r3, [r7, #4]
 8003408:	681b      	ldr	r3, [r3, #0]
 800340a:	2201      	movs	r2, #1
 800340c:	4013      	ands	r3, r2
 800340e:	d009      	beq.n	8003424 <HAL_RCCEx_PeriphCLKConfig+0x1a0>
  {
    /* Check the parameters */
    assert_param(IS_RCC_USART1CLKSOURCE(PeriphClkInit->Usart1ClockSelection));

    /* Configure the USART1 clock source */
    __HAL_RCC_USART1_CONFIG(PeriphClkInit->Usart1ClockSelection);
 8003410:	4bb0      	ldr	r3, [pc, #704]	; (80036d4 <HAL_RCCEx_PeriphCLKConfig+0x450>)
 8003412:	6d5b      	ldr	r3, [r3, #84]	; 0x54
 8003414:	2203      	movs	r2, #3
 8003416:	4393      	bics	r3, r2
 8003418:	0019      	movs	r1, r3
 800341a:	687b      	ldr	r3, [r7, #4]
 800341c:	685a      	ldr	r2, [r3, #4]
 800341e:	4bad      	ldr	r3, [pc, #692]	; (80036d4 <HAL_RCCEx_PeriphCLKConfig+0x450>)
 8003420:	430a      	orrs	r2, r1
 8003422:	655a      	str	r2, [r3, #84]	; 0x54
  }

#if defined(RCC_CCIPR_USART2SEL)
  /*-------------------------- USART2 clock source configuration -------------------*/
  if (((PeriphClkInit->PeriphClockSelection) & RCC_PERIPHCLK_USART2) == RCC_PERIPHCLK_USART2)
 8003424:	687b      	ldr	r3, [r7, #4]
 8003426:	681b      	ldr	r3, [r3, #0]
 8003428:	2202      	movs	r2, #2
 800342a:	4013      	ands	r3, r2
 800342c:	d009      	beq.n	8003442 <HAL_RCCEx_PeriphCLKConfig+0x1be>
  {
    /* Check the parameters */
    assert_param(IS_RCC_USART2CLKSOURCE(PeriphClkInit->Usart2ClockSelection));

    /* Configure the USART2 clock source */
    __HAL_RCC_USART2_CONFIG(PeriphClkInit->Usart2ClockSelection);
 800342e:	4ba9      	ldr	r3, [pc, #676]	; (80036d4 <HAL_RCCEx_PeriphCLKConfig+0x450>)
 8003430:	6d5b      	ldr	r3, [r3, #84]	; 0x54
 8003432:	220c      	movs	r2, #12
 8003434:	4393      	bics	r3, r2
 8003436:	0019      	movs	r1, r3
 8003438:	687b      	ldr	r3, [r7, #4]
 800343a:	689a      	ldr	r2, [r3, #8]
 800343c:	4ba5      	ldr	r3, [pc, #660]	; (80036d4 <HAL_RCCEx_PeriphCLKConfig+0x450>)
 800343e:	430a      	orrs	r2, r1
 8003440:	655a      	str	r2, [r3, #84]	; 0x54
  }
#endif /* RCC_CCIPR_USART2SEL */

#if defined(RCC_CCIPR_USART3SEL)
  /*-------------------------- USART3 clock source configuration -------------------*/
  if (((PeriphClkInit->PeriphClockSelection) & RCC_PERIPHCLK_USART3) == RCC_PERIPHCLK_USART3)
 8003442:	687b      	ldr	r3, [r7, #4]
 8003444:	681b      	ldr	r3, [r3, #0]
 8003446:	2204      	movs	r2, #4
 8003448:	4013      	ands	r3, r2
 800344a:	d009      	beq.n	8003460 <HAL_RCCEx_PeriphCLKConfig+0x1dc>
  {
    /* Check the parameters */
    assert_param(IS_RCC_USART3CLKSOURCE(PeriphClkInit->Usart3ClockSelection));

    /* Configure the USART3 clock source */
    __HAL_RCC_USART3_CONFIG(PeriphClkInit->Usart3ClockSelection);
 800344c:	4ba1      	ldr	r3, [pc, #644]	; (80036d4 <HAL_RCCEx_PeriphCLKConfig+0x450>)
 800344e:	6d5b      	ldr	r3, [r3, #84]	; 0x54
 8003450:	2230      	movs	r2, #48	; 0x30
 8003452:	4393      	bics	r3, r2
 8003454:	0019      	movs	r1, r3
 8003456:	687b      	ldr	r3, [r7, #4]
 8003458:	68da      	ldr	r2, [r3, #12]
 800345a:	4b9e      	ldr	r3, [pc, #632]	; (80036d4 <HAL_RCCEx_PeriphCLKConfig+0x450>)
 800345c:	430a      	orrs	r2, r1
 800345e:	655a      	str	r2, [r3, #84]	; 0x54
  }
#endif /* RCC_CCIPR_USART3SEL */

#if defined(LPUART1)
  /*-------------------------- LPUART1 clock source configuration ------------------*/
  if (((PeriphClkInit->PeriphClockSelection) & RCC_PERIPHCLK_LPUART1) == RCC_PERIPHCLK_LPUART1)
 8003460:	687b      	ldr	r3, [r7, #4]
 8003462:	681b      	ldr	r3, [r3, #0]
 8003464:	2210      	movs	r2, #16
 8003466:	4013      	ands	r3, r2
 8003468:	d009      	beq.n	800347e <HAL_RCCEx_PeriphCLKConfig+0x1fa>
  {
    /* Check the parameters */
    assert_param(IS_RCC_LPUART1CLKSOURCE(PeriphClkInit->Lpuart1ClockSelection));

    /* Configure the LPUART1 clock source */
    __HAL_RCC_LPUART1_CONFIG(PeriphClkInit->Lpuart1ClockSelection);
 800346a:	4b9a      	ldr	r3, [pc, #616]	; (80036d4 <HAL_RCCEx_PeriphCLKConfig+0x450>)
 800346c:	6d5b      	ldr	r3, [r3, #84]	; 0x54
 800346e:	4a9b      	ldr	r2, [pc, #620]	; (80036dc <HAL_RCCEx_PeriphCLKConfig+0x458>)
 8003470:	4013      	ands	r3, r2
 8003472:	0019      	movs	r1, r3
 8003474:	687b      	ldr	r3, [r7, #4]
 8003476:	691a      	ldr	r2, [r3, #16]
 8003478:	4b96      	ldr	r3, [pc, #600]	; (80036d4 <HAL_RCCEx_PeriphCLKConfig+0x450>)
 800347a:	430a      	orrs	r2, r1
 800347c:	655a      	str	r2, [r3, #84]	; 0x54
  }
#endif /* LPUART1 */

#if defined(LPUART2)
  /*-------------------------- LPUART2 clock source configuration ------------------*/
  if (((PeriphClkInit->PeriphClockSelection) & RCC_PERIPHCLK_LPUART2) == RCC_PERIPHCLK_LPUART2)
 800347e:	687b      	ldr	r3, [r7, #4]
 8003480:	681a      	ldr	r2, [r3, #0]
 8003482:	2380      	movs	r3, #128	; 0x80
 8003484:	015b      	lsls	r3, r3, #5
 8003486:	4013      	ands	r3, r2
 8003488:	d009      	beq.n	800349e <HAL_RCCEx_PeriphCLKConfig+0x21a>
  {
    /* Check the parameters */
    assert_param(IS_RCC_LPUART2CLKSOURCE(PeriphClkInit->Lpuart2ClockSelection));

    /* Configure the LPUART clock source */
    __HAL_RCC_LPUART2_CONFIG(PeriphClkInit->Lpuart2ClockSelection);
 800348a:	4b92      	ldr	r3, [pc, #584]	; (80036d4 <HAL_RCCEx_PeriphCLKConfig+0x450>)
 800348c:	6d5b      	ldr	r3, [r3, #84]	; 0x54
 800348e:	4a94      	ldr	r2, [pc, #592]	; (80036e0 <HAL_RCCEx_PeriphCLKConfig+0x45c>)
 8003490:	4013      	ands	r3, r2
 8003492:	0019      	movs	r1, r3
 8003494:	687b      	ldr	r3, [r7, #4]
 8003496:	695a      	ldr	r2, [r3, #20]
 8003498:	4b8e      	ldr	r3, [pc, #568]	; (80036d4 <HAL_RCCEx_PeriphCLKConfig+0x450>)
 800349a:	430a      	orrs	r2, r1
 800349c:	655a      	str	r2, [r3, #84]	; 0x54
  }
#endif /* LPUART2 */

#if defined(RCC_CCIPR_LPTIM1SEL)
  /*-------------------------- LPTIM1 clock source configuration -------------------*/
  if (((PeriphClkInit->PeriphClockSelection) & RCC_PERIPHCLK_LPTIM1) == (RCC_PERIPHCLK_LPTIM1))
 800349e:	687b      	ldr	r3, [r7, #4]
 80034a0:	681a      	ldr	r2, [r3, #0]
 80034a2:	2380      	movs	r3, #128	; 0x80
 80034a4:	009b      	lsls	r3, r3, #2
 80034a6:	4013      	ands	r3, r2
 80034a8:	d009      	beq.n	80034be <HAL_RCCEx_PeriphCLKConfig+0x23a>
  {
    assert_param(IS_RCC_LPTIM1CLKSOURCE(PeriphClkInit->Lptim1ClockSelection));
    __HAL_RCC_LPTIM1_CONFIG(PeriphClkInit->Lptim1ClockSelection);
 80034aa:	4b8a      	ldr	r3, [pc, #552]	; (80036d4 <HAL_RCCEx_PeriphCLKConfig+0x450>)
 80034ac:	6d5b      	ldr	r3, [r3, #84]	; 0x54
 80034ae:	4a8d      	ldr	r2, [pc, #564]	; (80036e4 <HAL_RCCEx_PeriphCLKConfig+0x460>)
 80034b0:	4013      	ands	r3, r2
 80034b2:	0019      	movs	r1, r3
 80034b4:	687b      	ldr	r3, [r7, #4]
 80034b6:	6a9a      	ldr	r2, [r3, #40]	; 0x28
 80034b8:	4b86      	ldr	r3, [pc, #536]	; (80036d4 <HAL_RCCEx_PeriphCLKConfig+0x450>)
 80034ba:	430a      	orrs	r2, r1
 80034bc:	655a      	str	r2, [r3, #84]	; 0x54
  }
#endif /* RCC_CCIPR_LPTIM1SEL */

#if defined(RCC_CCIPR_LPTIM2SEL)
  /*-------------------------- LPTIM2 clock source configuration -------------------*/
  if (((PeriphClkInit->PeriphClockSelection) & RCC_PERIPHCLK_LPTIM2) == (RCC_PERIPHCLK_LPTIM2))
 80034be:	687b      	ldr	r3, [r7, #4]
 80034c0:	681a      	ldr	r2, [r3, #0]
 80034c2:	2380      	movs	r3, #128	; 0x80
 80034c4:	00db      	lsls	r3, r3, #3
 80034c6:	4013      	ands	r3, r2
 80034c8:	d009      	beq.n	80034de <HAL_RCCEx_PeriphCLKConfig+0x25a>
  {
    assert_param(IS_RCC_LPTIM2CLKSOURCE(PeriphClkInit->Lptim2ClockSelection));
    __HAL_RCC_LPTIM2_CONFIG(PeriphClkInit->Lptim2ClockSelection);
 80034ca:	4b82      	ldr	r3, [pc, #520]	; (80036d4 <HAL_RCCEx_PeriphCLKConfig+0x450>)
 80034cc:	6d5b      	ldr	r3, [r3, #84]	; 0x54
 80034ce:	4a86      	ldr	r2, [pc, #536]	; (80036e8 <HAL_RCCEx_PeriphCLKConfig+0x464>)
 80034d0:	4013      	ands	r3, r2
 80034d2:	0019      	movs	r1, r3
 80034d4:	687b      	ldr	r3, [r7, #4]
 80034d6:	6ada      	ldr	r2, [r3, #44]	; 0x2c
 80034d8:	4b7e      	ldr	r3, [pc, #504]	; (80036d4 <HAL_RCCEx_PeriphCLKConfig+0x450>)
 80034da:	430a      	orrs	r2, r1
 80034dc:	655a      	str	r2, [r3, #84]	; 0x54
  }
#endif /* RCC_CCIPR_LPTIM2SEL */

  /*-------------------------- I2C1 clock source configuration ---------------------*/
  if (((PeriphClkInit->PeriphClockSelection) & RCC_PERIPHCLK_I2C1) == RCC_PERIPHCLK_I2C1)
 80034de:	687b      	ldr	r3, [r7, #4]
 80034e0:	681b      	ldr	r3, [r3, #0]
 80034e2:	2220      	movs	r2, #32
 80034e4:	4013      	ands	r3, r2
 80034e6:	d009      	beq.n	80034fc <HAL_RCCEx_PeriphCLKConfig+0x278>
  {
    /* Check the parameters */
    assert_param(IS_RCC_I2C1CLKSOURCE(PeriphClkInit->I2c1ClockSelection));

    /* Configure the I2C1 clock source */
    __HAL_RCC_I2C1_CONFIG(PeriphClkInit->I2c1ClockSelection);
 80034e8:	4b7a      	ldr	r3, [pc, #488]	; (80036d4 <HAL_RCCEx_PeriphCLKConfig+0x450>)
 80034ea:	6d5b      	ldr	r3, [r3, #84]	; 0x54
 80034ec:	4a7f      	ldr	r2, [pc, #508]	; (80036ec <HAL_RCCEx_PeriphCLKConfig+0x468>)
 80034ee:	4013      	ands	r3, r2
 80034f0:	0019      	movs	r1, r3
 80034f2:	687b      	ldr	r3, [r7, #4]
 80034f4:	699a      	ldr	r2, [r3, #24]
 80034f6:	4b77      	ldr	r3, [pc, #476]	; (80036d4 <HAL_RCCEx_PeriphCLKConfig+0x450>)
 80034f8:	430a      	orrs	r2, r1
 80034fa:	655a      	str	r2, [r3, #84]	; 0x54
  }

#if defined(RCC_CCIPR_I2C2SEL)
  /*-------------------------- I2C2 clock source configuration ---------------------*/
  if (((PeriphClkInit->PeriphClockSelection) & RCC_PERIPHCLK_I2C2) == RCC_PERIPHCLK_I2C2)
 80034fc:	687b      	ldr	r3, [r7, #4]
 80034fe:	681b      	ldr	r3, [r3, #0]
 8003500:	2240      	movs	r2, #64	; 0x40
 8003502:	4013      	ands	r3, r2
 8003504:	d009      	beq.n	800351a <HAL_RCCEx_PeriphCLKConfig+0x296>
  {
    /* Check the parameters */
    assert_param(IS_RCC_I2C2CLKSOURCE(PeriphClkInit->I2c2ClockSelection));

    /* Configure the I2C2 clock source */
    __HAL_RCC_I2C2_CONFIG(PeriphClkInit->I2c2ClockSelection);
 8003506:	4b73      	ldr	r3, [pc, #460]	; (80036d4 <HAL_RCCEx_PeriphCLKConfig+0x450>)
 8003508:	6d5b      	ldr	r3, [r3, #84]	; 0x54
 800350a:	4a79      	ldr	r2, [pc, #484]	; (80036f0 <HAL_RCCEx_PeriphCLKConfig+0x46c>)
 800350c:	4013      	ands	r3, r2
 800350e:	0019      	movs	r1, r3
 8003510:	687b      	ldr	r3, [r7, #4]
 8003512:	69da      	ldr	r2, [r3, #28]
 8003514:	4b6f      	ldr	r3, [pc, #444]	; (80036d4 <HAL_RCCEx_PeriphCLKConfig+0x450>)
 8003516:	430a      	orrs	r2, r1
 8003518:	655a      	str	r2, [r3, #84]	; 0x54
      __HAL_RCC_PLLCLKOUT_ENABLE(RCC_PLLQCLK);
    }
  }
#endif /* RNG */
  /*-------------------------- ADC clock source configuration ----------------------*/
  if (((PeriphClkInit->PeriphClockSelection) & RCC_PERIPHCLK_ADC) == RCC_PERIPHCLK_ADC)
 800351a:	687b      	ldr	r3, [r7, #4]
 800351c:	681a      	ldr	r2, [r3, #0]
 800351e:	2380      	movs	r3, #128	; 0x80
 8003520:	01db      	lsls	r3, r3, #7
 8003522:	4013      	ands	r3, r2
 8003524:	d015      	beq.n	8003552 <HAL_RCCEx_PeriphCLKConfig+0x2ce>
  {
    /* Check the parameters */
    assert_param(IS_RCC_ADCCLKSOURCE(PeriphClkInit->AdcClockSelection));

    /* Configure the ADC interface clock source */
    __HAL_RCC_ADC_CONFIG(PeriphClkInit->AdcClockSelection);
 8003526:	4b6b      	ldr	r3, [pc, #428]	; (80036d4 <HAL_RCCEx_PeriphCLKConfig+0x450>)
 8003528:	6d5b      	ldr	r3, [r3, #84]	; 0x54
 800352a:	009b      	lsls	r3, r3, #2
 800352c:	0899      	lsrs	r1, r3, #2
 800352e:	687b      	ldr	r3, [r7, #4]
 8003530:	6b1a      	ldr	r2, [r3, #48]	; 0x30
 8003532:	4b68      	ldr	r3, [pc, #416]	; (80036d4 <HAL_RCCEx_PeriphCLKConfig+0x450>)
 8003534:	430a      	orrs	r2, r1
 8003536:	655a      	str	r2, [r3, #84]	; 0x54

    if (PeriphClkInit->AdcClockSelection == RCC_ADCCLKSOURCE_PLLADC)
 8003538:	687b      	ldr	r3, [r7, #4]
 800353a:	6b1a      	ldr	r2, [r3, #48]	; 0x30
 800353c:	2380      	movs	r3, #128	; 0x80
 800353e:	05db      	lsls	r3, r3, #23
 8003540:	429a      	cmp	r2, r3
 8003542:	d106      	bne.n	8003552 <HAL_RCCEx_PeriphCLKConfig+0x2ce>
    {
      /* Enable PLLPCLK output */
      __HAL_RCC_PLLCLKOUT_ENABLE(RCC_PLLPCLK);
 8003544:	4b63      	ldr	r3, [pc, #396]	; (80036d4 <HAL_RCCEx_PeriphCLKConfig+0x450>)
 8003546:	68da      	ldr	r2, [r3, #12]
 8003548:	4b62      	ldr	r3, [pc, #392]	; (80036d4 <HAL_RCCEx_PeriphCLKConfig+0x450>)
 800354a:	2180      	movs	r1, #128	; 0x80
 800354c:	0249      	lsls	r1, r1, #9
 800354e:	430a      	orrs	r2, r1
 8003550:	60da      	str	r2, [r3, #12]
    }
  }

#if defined(CEC)
  /*-------------------------- CEC clock source configuration ---------------------*/
  if (((PeriphClkInit->PeriphClockSelection) & RCC_PERIPHCLK_CEC) == RCC_PERIPHCLK_CEC)
 8003552:	687b      	ldr	r3, [r7, #4]
 8003554:	681a      	ldr	r2, [r3, #0]
 8003556:	2380      	movs	r3, #128	; 0x80
 8003558:	031b      	lsls	r3, r3, #12
 800355a:	4013      	ands	r3, r2
 800355c:	d009      	beq.n	8003572 <HAL_RCCEx_PeriphCLKConfig+0x2ee>
  {
    /* Check the parameters */
    assert_param(IS_RCC_CECCLKSOURCE(PeriphClkInit->CecClockSelection));

    /* Configure the CEC clock source */
    __HAL_RCC_CEC_CONFIG(PeriphClkInit->CecClockSelection);
 800355e:	4b5d      	ldr	r3, [pc, #372]	; (80036d4 <HAL_RCCEx_PeriphCLKConfig+0x450>)
 8003560:	6d5b      	ldr	r3, [r3, #84]	; 0x54
 8003562:	2240      	movs	r2, #64	; 0x40
 8003564:	4393      	bics	r3, r2
 8003566:	0019      	movs	r1, r3
 8003568:	687b      	ldr	r3, [r7, #4]
 800356a:	6b5a      	ldr	r2, [r3, #52]	; 0x34
 800356c:	4b59      	ldr	r3, [pc, #356]	; (80036d4 <HAL_RCCEx_PeriphCLKConfig+0x450>)
 800356e:	430a      	orrs	r2, r1
 8003570:	655a      	str	r2, [r3, #84]	; 0x54
  }
#endif /* CEC */

#if defined(RCC_CCIPR_TIM1SEL)
  /*-------------------------- TIM1 clock source configuration ---------------------*/
  if (((PeriphClkInit->PeriphClockSelection) & RCC_PERIPHCLK_TIM1) == RCC_PERIPHCLK_TIM1)
 8003572:	687b      	ldr	r3, [r7, #4]
 8003574:	681a      	ldr	r2, [r3, #0]
 8003576:	2380      	movs	r3, #128	; 0x80
 8003578:	039b      	lsls	r3, r3, #14
 800357a:	4013      	ands	r3, r2
 800357c:	d016      	beq.n	80035ac <HAL_RCCEx_PeriphCLKConfig+0x328>
  {
    /* Check the parameters */
    assert_param(IS_RCC_TIM1CLKSOURCE(PeriphClkInit->Tim1ClockSelection));

    /* Configure the TIM1 clock source */
    __HAL_RCC_TIM1_CONFIG(PeriphClkInit->Tim1ClockSelection);
 800357e:	4b55      	ldr	r3, [pc, #340]	; (80036d4 <HAL_RCCEx_PeriphCLKConfig+0x450>)
 8003580:	6d5b      	ldr	r3, [r3, #84]	; 0x54
 8003582:	4a5c      	ldr	r2, [pc, #368]	; (80036f4 <HAL_RCCEx_PeriphCLKConfig+0x470>)
 8003584:	4013      	ands	r3, r2
 8003586:	0019      	movs	r1, r3
 8003588:	687b      	ldr	r3, [r7, #4]
 800358a:	6b9a      	ldr	r2, [r3, #56]	; 0x38
 800358c:	4b51      	ldr	r3, [pc, #324]	; (80036d4 <HAL_RCCEx_PeriphCLKConfig+0x450>)
 800358e:	430a      	orrs	r2, r1
 8003590:	655a      	str	r2, [r3, #84]	; 0x54

    if (PeriphClkInit->Tim1ClockSelection == RCC_TIM1CLKSOURCE_PLL)
 8003592:	687b      	ldr	r3, [r7, #4]
 8003594:	6b9a      	ldr	r2, [r3, #56]	; 0x38
 8003596:	2380      	movs	r3, #128	; 0x80
 8003598:	03db      	lsls	r3, r3, #15
 800359a:	429a      	cmp	r2, r3
 800359c:	d106      	bne.n	80035ac <HAL_RCCEx_PeriphCLKConfig+0x328>
    {
      /* Enable PLLQCLK output */
      __HAL_RCC_PLLCLKOUT_ENABLE(RCC_PLLQCLK);
 800359e:	4b4d      	ldr	r3, [pc, #308]	; (80036d4 <HAL_RCCEx_PeriphCLKConfig+0x450>)
 80035a0:	68da      	ldr	r2, [r3, #12]
 80035a2:	4b4c      	ldr	r3, [pc, #304]	; (80036d4 <HAL_RCCEx_PeriphCLKConfig+0x450>)
 80035a4:	2180      	movs	r1, #128	; 0x80
 80035a6:	0449      	lsls	r1, r1, #17
 80035a8:	430a      	orrs	r2, r1
 80035aa:	60da      	str	r2, [r3, #12]
  }
#endif /* RCC_CCIPR_TIM1SEL */

#if defined(RCC_CCIPR_TIM15SEL)
  /*-------------------------- TIM15 clock source configuration ---------------------*/
  if (((PeriphClkInit->PeriphClockSelection) & RCC_PERIPHCLK_TIM15) == RCC_PERIPHCLK_TIM15)
 80035ac:	687b      	ldr	r3, [r7, #4]
 80035ae:	681a      	ldr	r2, [r3, #0]
 80035b0:	2380      	movs	r3, #128	; 0x80
 80035b2:	03db      	lsls	r3, r3, #15
 80035b4:	4013      	ands	r3, r2
 80035b6:	d016      	beq.n	80035e6 <HAL_RCCEx_PeriphCLKConfig+0x362>
  {
    /* Check the parameters */
    assert_param(IS_RCC_TIM15CLKSOURCE(PeriphClkInit->Tim15ClockSelection));

    /* Configure the TIM15 clock source */
    __HAL_RCC_TIM15_CONFIG(PeriphClkInit->Tim15ClockSelection);
 80035b8:	4b46      	ldr	r3, [pc, #280]	; (80036d4 <HAL_RCCEx_PeriphCLKConfig+0x450>)
 80035ba:	6d5b      	ldr	r3, [r3, #84]	; 0x54
 80035bc:	4a4e      	ldr	r2, [pc, #312]	; (80036f8 <HAL_RCCEx_PeriphCLKConfig+0x474>)
 80035be:	4013      	ands	r3, r2
 80035c0:	0019      	movs	r1, r3
 80035c2:	687b      	ldr	r3, [r7, #4]
 80035c4:	6bda      	ldr	r2, [r3, #60]	; 0x3c
 80035c6:	4b43      	ldr	r3, [pc, #268]	; (80036d4 <HAL_RCCEx_PeriphCLKConfig+0x450>)
 80035c8:	430a      	orrs	r2, r1
 80035ca:	655a      	str	r2, [r3, #84]	; 0x54

    if (PeriphClkInit->Tim15ClockSelection == RCC_TIM15CLKSOURCE_PLL)
 80035cc:	687b      	ldr	r3, [r7, #4]
 80035ce:	6bda      	ldr	r2, [r3, #60]	; 0x3c
 80035d0:	2380      	movs	r3, #128	; 0x80
 80035d2:	045b      	lsls	r3, r3, #17
 80035d4:	429a      	cmp	r2, r3
 80035d6:	d106      	bne.n	80035e6 <HAL_RCCEx_PeriphCLKConfig+0x362>
    {
      /* Enable PLLQCLK output */
      __HAL_RCC_PLLCLKOUT_ENABLE(RCC_PLLQCLK);
 80035d8:	4b3e      	ldr	r3, [pc, #248]	; (80036d4 <HAL_RCCEx_PeriphCLKConfig+0x450>)
 80035da:	68da      	ldr	r2, [r3, #12]
 80035dc:	4b3d      	ldr	r3, [pc, #244]	; (80036d4 <HAL_RCCEx_PeriphCLKConfig+0x450>)
 80035de:	2180      	movs	r1, #128	; 0x80
 80035e0:	0449      	lsls	r1, r1, #17
 80035e2:	430a      	orrs	r2, r1
 80035e4:	60da      	str	r2, [r3, #12]
    }
  }
#endif /* RCC_CCIPR_TIM15SEL */

  /*-------------------------- I2S1 clock source configuration ---------------------*/
  if (((PeriphClkInit->PeriphClockSelection) & RCC_PERIPHCLK_I2S1) == RCC_PERIPHCLK_I2S1)
 80035e6:	687b      	ldr	r3, [r7, #4]
 80035e8:	681a      	ldr	r2, [r3, #0]
 80035ea:	2380      	movs	r3, #128	; 0x80
 80035ec:	011b      	lsls	r3, r3, #4
 80035ee:	4013      	ands	r3, r2
 80035f0:	d014      	beq.n	800361c <HAL_RCCEx_PeriphCLKConfig+0x398>
  {
    /* Check the parameters */
    assert_param(IS_RCC_I2S1CLKSOURCE(PeriphClkInit->I2s1ClockSelection));

    /* Configure the I2S1 clock source */
    __HAL_RCC_I2S1_CONFIG(PeriphClkInit->I2s1ClockSelection);
 80035f2:	4b38      	ldr	r3, [pc, #224]	; (80036d4 <HAL_RCCEx_PeriphCLKConfig+0x450>)
 80035f4:	6d9b      	ldr	r3, [r3, #88]	; 0x58
 80035f6:	2203      	movs	r2, #3
 80035f8:	4393      	bics	r3, r2
 80035fa:	0019      	movs	r1, r3
 80035fc:	687b      	ldr	r3, [r7, #4]
 80035fe:	6a1a      	ldr	r2, [r3, #32]
 8003600:	4b34      	ldr	r3, [pc, #208]	; (80036d4 <HAL_RCCEx_PeriphCLKConfig+0x450>)
 8003602:	430a      	orrs	r2, r1
 8003604:	659a      	str	r2, [r3, #88]	; 0x58

    if (PeriphClkInit->I2s1ClockSelection == RCC_I2S1CLKSOURCE_PLL)
 8003606:	687b      	ldr	r3, [r7, #4]
 8003608:	6a1b      	ldr	r3, [r3, #32]
 800360a:	2b01      	cmp	r3, #1
 800360c:	d106      	bne.n	800361c <HAL_RCCEx_PeriphCLKConfig+0x398>
    {
      /* Enable PLLPCLK output */
      __HAL_RCC_PLLCLKOUT_ENABLE(RCC_PLLPCLK);
 800360e:	4b31      	ldr	r3, [pc, #196]	; (80036d4 <HAL_RCCEx_PeriphCLKConfig+0x450>)
 8003610:	68da      	ldr	r2, [r3, #12]
 8003612:	4b30      	ldr	r3, [pc, #192]	; (80036d4 <HAL_RCCEx_PeriphCLKConfig+0x450>)
 8003614:	2180      	movs	r1, #128	; 0x80
 8003616:	0249      	lsls	r1, r1, #9
 8003618:	430a      	orrs	r2, r1
 800361a:	60da      	str	r2, [r3, #12]
    }
  }

#if defined(RCC_CCIPR2_I2S2SEL)
  /*-------------------------- I2S2 clock source configuration ---------------------*/
  if (((PeriphClkInit->PeriphClockSelection) & RCC_PERIPHCLK_I2S2) == RCC_PERIPHCLK_I2S2)
 800361c:	687b      	ldr	r3, [r7, #4]
 800361e:	681a      	ldr	r2, [r3, #0]
 8003620:	2380      	movs	r3, #128	; 0x80
 8003622:	019b      	lsls	r3, r3, #6
 8003624:	4013      	ands	r3, r2
 8003626:	d014      	beq.n	8003652 <HAL_RCCEx_PeriphCLKConfig+0x3ce>
  {
    /* Check the parameters */
    assert_param(IS_RCC_I2S2CLKSOURCE(PeriphClkInit->I2s2ClockSelection));

    /* Configure the I2S2 clock source */
    __HAL_RCC_I2S2_CONFIG(PeriphClkInit->I2s2ClockSelection);
 8003628:	4b2a      	ldr	r3, [pc, #168]	; (80036d4 <HAL_RCCEx_PeriphCLKConfig+0x450>)
 800362a:	6d9b      	ldr	r3, [r3, #88]	; 0x58
 800362c:	220c      	movs	r2, #12
 800362e:	4393      	bics	r3, r2
 8003630:	0019      	movs	r1, r3
 8003632:	687b      	ldr	r3, [r7, #4]
 8003634:	6a5a      	ldr	r2, [r3, #36]	; 0x24
 8003636:	4b27      	ldr	r3, [pc, #156]	; (80036d4 <HAL_RCCEx_PeriphCLKConfig+0x450>)
 8003638:	430a      	orrs	r2, r1
 800363a:	659a      	str	r2, [r3, #88]	; 0x58

    if (PeriphClkInit->I2s2ClockSelection == RCC_I2S2CLKSOURCE_PLL)
 800363c:	687b      	ldr	r3, [r7, #4]
 800363e:	6a5b      	ldr	r3, [r3, #36]	; 0x24
 8003640:	2b04      	cmp	r3, #4
 8003642:	d106      	bne.n	8003652 <HAL_RCCEx_PeriphCLKConfig+0x3ce>
    {
      /* Enable PLLPCLK output */
      __HAL_RCC_PLLCLKOUT_ENABLE(RCC_PLLPCLK);
 8003644:	4b23      	ldr	r3, [pc, #140]	; (80036d4 <HAL_RCCEx_PeriphCLKConfig+0x450>)
 8003646:	68da      	ldr	r2, [r3, #12]
 8003648:	4b22      	ldr	r3, [pc, #136]	; (80036d4 <HAL_RCCEx_PeriphCLKConfig+0x450>)
 800364a:	2180      	movs	r1, #128	; 0x80
 800364c:	0249      	lsls	r1, r1, #9
 800364e:	430a      	orrs	r2, r1
 8003650:	60da      	str	r2, [r3, #12]
  }
#endif /* RCC_CCIPR2_I2S2SEL */

#if defined(STM32G0C1xx) || defined(STM32G0B1xx)  || defined(STM32G0B0xx)
  /*-------------------------- USB clock source configuration ---------------------*/
  if (((PeriphClkInit->PeriphClockSelection) & RCC_PERIPHCLK_USB) == RCC_PERIPHCLK_USB)
 8003652:	687b      	ldr	r3, [r7, #4]
 8003654:	681a      	ldr	r2, [r3, #0]
 8003656:	2380      	movs	r3, #128	; 0x80
 8003658:	045b      	lsls	r3, r3, #17
 800365a:	4013      	ands	r3, r2
 800365c:	d016      	beq.n	800368c <HAL_RCCEx_PeriphCLKConfig+0x408>
  {
    /* Check the parameters */
    assert_param(IS_RCC_USBCLKSOURCE(PeriphClkInit->UsbClockSelection));

    /* Configure the USB clock source */
    __HAL_RCC_USB_CONFIG(PeriphClkInit->UsbClockSelection);
 800365e:	4b1d      	ldr	r3, [pc, #116]	; (80036d4 <HAL_RCCEx_PeriphCLKConfig+0x450>)
 8003660:	6d9b      	ldr	r3, [r3, #88]	; 0x58
 8003662:	4a22      	ldr	r2, [pc, #136]	; (80036ec <HAL_RCCEx_PeriphCLKConfig+0x468>)
 8003664:	4013      	ands	r3, r2
 8003666:	0019      	movs	r1, r3
 8003668:	687b      	ldr	r3, [r7, #4]
 800366a:	6c5a      	ldr	r2, [r3, #68]	; 0x44
 800366c:	4b19      	ldr	r3, [pc, #100]	; (80036d4 <HAL_RCCEx_PeriphCLKConfig+0x450>)
 800366e:	430a      	orrs	r2, r1
 8003670:	659a      	str	r2, [r3, #88]	; 0x58

    if (PeriphClkInit->UsbClockSelection == RCC_USBCLKSOURCE_PLL)
 8003672:	687b      	ldr	r3, [r7, #4]
 8003674:	6c5a      	ldr	r2, [r3, #68]	; 0x44
 8003676:	2380      	movs	r3, #128	; 0x80
 8003678:	019b      	lsls	r3, r3, #6
 800367a:	429a      	cmp	r2, r3
 800367c:	d106      	bne.n	800368c <HAL_RCCEx_PeriphCLKConfig+0x408>
    {
      /* Enable PLLQCLK output */
      __HAL_RCC_PLLCLKOUT_ENABLE(RCC_PLLQCLK);
 800367e:	4b15      	ldr	r3, [pc, #84]	; (80036d4 <HAL_RCCEx_PeriphCLKConfig+0x450>)
 8003680:	68da      	ldr	r2, [r3, #12]
 8003682:	4b14      	ldr	r3, [pc, #80]	; (80036d4 <HAL_RCCEx_PeriphCLKConfig+0x450>)
 8003684:	2180      	movs	r1, #128	; 0x80
 8003686:	0449      	lsls	r1, r1, #17
 8003688:	430a      	orrs	r2, r1
 800368a:	60da      	str	r2, [r3, #12]
  }
#endif /* STM32G0C1xx || STM32G0B1xx || STM32G0B0xx */

#if defined(FDCAN1) || defined(FDCAN2)
  /*-------------------------- FDCAN clock source configuration ---------------------*/
  if (((PeriphClkInit->PeriphClockSelection) & RCC_PERIPHCLK_FDCAN) == RCC_PERIPHCLK_FDCAN)
 800368c:	687b      	ldr	r3, [r7, #4]
 800368e:	681a      	ldr	r2, [r3, #0]
 8003690:	2380      	movs	r3, #128	; 0x80
 8003692:	049b      	lsls	r3, r3, #18
 8003694:	4013      	ands	r3, r2
 8003696:	d016      	beq.n	80036c6 <HAL_RCCEx_PeriphCLKConfig+0x442>
  {
    /* Check the parameters */
    assert_param(IS_RCC_FDCANCLKSOURCE(PeriphClkInit->FdcanClockSelection));

    /* Configure the FDCAN clock source */
    __HAL_RCC_FDCAN_CONFIG(PeriphClkInit->FdcanClockSelection);
 8003698:	4b0e      	ldr	r3, [pc, #56]	; (80036d4 <HAL_RCCEx_PeriphCLKConfig+0x450>)
 800369a:	6d9b      	ldr	r3, [r3, #88]	; 0x58
 800369c:	4a10      	ldr	r2, [pc, #64]	; (80036e0 <HAL_RCCEx_PeriphCLKConfig+0x45c>)
 800369e:	4013      	ands	r3, r2
 80036a0:	0019      	movs	r1, r3
 80036a2:	687b      	ldr	r3, [r7, #4]
 80036a4:	6c9a      	ldr	r2, [r3, #72]	; 0x48
 80036a6:	4b0b      	ldr	r3, [pc, #44]	; (80036d4 <HAL_RCCEx_PeriphCLKConfig+0x450>)
 80036a8:	430a      	orrs	r2, r1
 80036aa:	659a      	str	r2, [r3, #88]	; 0x58

    if (PeriphClkInit->FdcanClockSelection == RCC_FDCANCLKSOURCE_PLL)
 80036ac:	687b      	ldr	r3, [r7, #4]
 80036ae:	6c9a      	ldr	r2, [r3, #72]	; 0x48
 80036b0:	2380      	movs	r3, #128	; 0x80
 80036b2:	005b      	lsls	r3, r3, #1
 80036b4:	429a      	cmp	r2, r3
 80036b6:	d106      	bne.n	80036c6 <HAL_RCCEx_PeriphCLKConfig+0x442>
    {
      /* Enable PLLQCLK output */
      __HAL_RCC_PLLCLKOUT_ENABLE(RCC_PLLQCLK);
 80036b8:	4b06      	ldr	r3, [pc, #24]	; (80036d4 <HAL_RCCEx_PeriphCLKConfig+0x450>)
 80036ba:	68da      	ldr	r2, [r3, #12]
 80036bc:	4b05      	ldr	r3, [pc, #20]	; (80036d4 <HAL_RCCEx_PeriphCLKConfig+0x450>)
 80036be:	2180      	movs	r1, #128	; 0x80
 80036c0:	0449      	lsls	r1, r1, #17
 80036c2:	430a      	orrs	r2, r1
 80036c4:	60da      	str	r2, [r3, #12]
    }
  }
#endif /* FDCAN1 || FDCAN2 */

  return status;
 80036c6:	2312      	movs	r3, #18
 80036c8:	18fb      	adds	r3, r7, r3
 80036ca:	781b      	ldrb	r3, [r3, #0]
}
 80036cc:	0018      	movs	r0, r3
 80036ce:	46bd      	mov	sp, r7
 80036d0:	b006      	add	sp, #24
 80036d2:	bd80      	pop	{r7, pc}
 80036d4:	40021000 	.word	0x40021000
 80036d8:	efffffff 	.word	0xefffffff
 80036dc:	fffff3ff 	.word	0xfffff3ff
 80036e0:	fffffcff 	.word	0xfffffcff
 80036e4:	fff3ffff 	.word	0xfff3ffff
 80036e8:	ffcfffff 	.word	0xffcfffff
 80036ec:	ffffcfff 	.word	0xffffcfff
 80036f0:	ffff3fff 	.word	0xffff3fff
 80036f4:	ffbfffff 	.word	0xffbfffff
 80036f8:	feffffff 	.word	0xfeffffff

080036fc <HAL_TIM_Base_Init>:
  *         Ex: call @ref HAL_TIM_Base_DeInit() before HAL_TIM_Base_Init()
  * @param  htim TIM Base handle
  * @retval HAL status
  */
HAL_StatusTypeDef HAL_TIM_Base_Init(TIM_HandleTypeDef *htim)
{
 80036fc:	b580      	push	{r7, lr}
 80036fe:	b082      	sub	sp, #8
 8003700:	af00      	add	r7, sp, #0
 8003702:	6078      	str	r0, [r7, #4]
  /* Check the TIM handle allocation */
  if (htim == NULL)
 8003704:	687b      	ldr	r3, [r7, #4]
 8003706:	2b00      	cmp	r3, #0
 8003708:	d101      	bne.n	800370e <HAL_TIM_Base_Init+0x12>
  {
    return HAL_ERROR;
 800370a:	2301      	movs	r3, #1
 800370c:	e04a      	b.n	80037a4 <HAL_TIM_Base_Init+0xa8>
  assert_param(IS_TIM_COUNTER_MODE(htim->Init.CounterMode));
  assert_param(IS_TIM_CLOCKDIVISION_DIV(htim->Init.ClockDivision));
  assert_param(IS_TIM_PERIOD(htim, htim->Init.Period));
  assert_param(IS_TIM_AUTORELOAD_PRELOAD(htim->Init.AutoReloadPreload));

  if (htim->State == HAL_TIM_STATE_RESET)
 800370e:	687b      	ldr	r3, [r7, #4]
 8003710:	223d      	movs	r2, #61	; 0x3d
 8003712:	5c9b      	ldrb	r3, [r3, r2]
 8003714:	b2db      	uxtb	r3, r3
 8003716:	2b00      	cmp	r3, #0
 8003718:	d107      	bne.n	800372a <HAL_TIM_Base_Init+0x2e>
  {
    /* Allocate lock resource and initialize it */
    htim->Lock = HAL_UNLOCKED;
 800371a:	687b      	ldr	r3, [r7, #4]
 800371c:	223c      	movs	r2, #60	; 0x3c
 800371e:	2100      	movs	r1, #0
 8003720:	5499      	strb	r1, [r3, r2]
    }
    /* Init the low level hardware : GPIO, CLOCK, NVIC */
    htim->Base_MspInitCallback(htim);
#else
    /* Init the low level hardware : GPIO, CLOCK, NVIC */
    HAL_TIM_Base_MspInit(htim);
 8003722:	687b      	ldr	r3, [r7, #4]
 8003724:	0018      	movs	r0, r3
 8003726:	f7fd fae7 	bl	8000cf8 <HAL_TIM_Base_MspInit>
#endif /* USE_HAL_TIM_REGISTER_CALLBACKS */
  }

  /* Set the TIM state */
  htim->State = HAL_TIM_STATE_BUSY;
 800372a:	687b      	ldr	r3, [r7, #4]
 800372c:	223d      	movs	r2, #61	; 0x3d
 800372e:	2102      	movs	r1, #2
 8003730:	5499      	strb	r1, [r3, r2]

  /* Set the Time Base configuration */
  TIM_Base_SetConfig(htim->Instance, &htim->Init);
 8003732:	687b      	ldr	r3, [r7, #4]
 8003734:	681a      	ldr	r2, [r3, #0]
 8003736:	687b      	ldr	r3, [r7, #4]
 8003738:	3304      	adds	r3, #4
 800373a:	0019      	movs	r1, r3
 800373c:	0010      	movs	r0, r2
 800373e:	f000 f90b 	bl	8003958 <TIM_Base_SetConfig>

  /* Initialize the DMA burst operation state */
  htim->DMABurstState = HAL_DMA_BURST_STATE_READY;
 8003742:	687b      	ldr	r3, [r7, #4]
 8003744:	2248      	movs	r2, #72	; 0x48
 8003746:	2101      	movs	r1, #1
 8003748:	5499      	strb	r1, [r3, r2]

  /* Initialize the TIM channels state */
  TIM_CHANNEL_STATE_SET_ALL(htim, HAL_TIM_CHANNEL_STATE_READY);
 800374a:	687b      	ldr	r3, [r7, #4]
 800374c:	223e      	movs	r2, #62	; 0x3e
 800374e:	2101      	movs	r1, #1
 8003750:	5499      	strb	r1, [r3, r2]
 8003752:	687b      	ldr	r3, [r7, #4]
 8003754:	223f      	movs	r2, #63	; 0x3f
 8003756:	2101      	movs	r1, #1
 8003758:	5499      	strb	r1, [r3, r2]
 800375a:	687b      	ldr	r3, [r7, #4]
 800375c:	2240      	movs	r2, #64	; 0x40
 800375e:	2101      	movs	r1, #1
 8003760:	5499      	strb	r1, [r3, r2]
 8003762:	687b      	ldr	r3, [r7, #4]
 8003764:	2241      	movs	r2, #65	; 0x41
 8003766:	2101      	movs	r1, #1
 8003768:	5499      	strb	r1, [r3, r2]
 800376a:	687b      	ldr	r3, [r7, #4]
 800376c:	2242      	movs	r2, #66	; 0x42
 800376e:	2101      	movs	r1, #1
 8003770:	5499      	strb	r1, [r3, r2]
 8003772:	687b      	ldr	r3, [r7, #4]
 8003774:	2243      	movs	r2, #67	; 0x43
 8003776:	2101      	movs	r1, #1
 8003778:	5499      	strb	r1, [r3, r2]
  TIM_CHANNEL_N_STATE_SET_ALL(htim, HAL_TIM_CHANNEL_STATE_READY);
 800377a:	687b      	ldr	r3, [r7, #4]
 800377c:	2244      	movs	r2, #68	; 0x44
 800377e:	2101      	movs	r1, #1
 8003780:	5499      	strb	r1, [r3, r2]
 8003782:	687b      	ldr	r3, [r7, #4]
 8003784:	2245      	movs	r2, #69	; 0x45
 8003786:	2101      	movs	r1, #1
 8003788:	5499      	strb	r1, [r3, r2]
 800378a:	687b      	ldr	r3, [r7, #4]
 800378c:	2246      	movs	r2, #70	; 0x46
 800378e:	2101      	movs	r1, #1
 8003790:	5499      	strb	r1, [r3, r2]
 8003792:	687b      	ldr	r3, [r7, #4]
 8003794:	2247      	movs	r2, #71	; 0x47
 8003796:	2101      	movs	r1, #1
 8003798:	5499      	strb	r1, [r3, r2]

  /* Initialize the TIM state*/
  htim->State = HAL_TIM_STATE_READY;
 800379a:	687b      	ldr	r3, [r7, #4]
 800379c:	223d      	movs	r2, #61	; 0x3d
 800379e:	2101      	movs	r1, #1
 80037a0:	5499      	strb	r1, [r3, r2]

  return HAL_OK;
 80037a2:	2300      	movs	r3, #0
}
 80037a4:	0018      	movs	r0, r3
 80037a6:	46bd      	mov	sp, r7
 80037a8:	b002      	add	sp, #8
 80037aa:	bd80      	pop	{r7, pc}

080037ac <HAL_TIM_ConfigClockSource>:
  * @param  sClockSourceConfig pointer to a TIM_ClockConfigTypeDef structure that
  *         contains the clock source information for the TIM peripheral.
  * @retval HAL status
  */
HAL_StatusTypeDef HAL_TIM_ConfigClockSource(TIM_HandleTypeDef *htim, const TIM_ClockConfigTypeDef *sClockSourceConfig)
{
 80037ac:	b580      	push	{r7, lr}
 80037ae:	b084      	sub	sp, #16
 80037b0:	af00      	add	r7, sp, #0
 80037b2:	6078      	str	r0, [r7, #4]
 80037b4:	6039      	str	r1, [r7, #0]
  HAL_StatusTypeDef status = HAL_OK;
 80037b6:	230f      	movs	r3, #15
 80037b8:	18fb      	adds	r3, r7, r3
 80037ba:	2200      	movs	r2, #0
 80037bc:	701a      	strb	r2, [r3, #0]
  uint32_t tmpsmcr;

  /* Process Locked */
  __HAL_LOCK(htim);
 80037be:	687b      	ldr	r3, [r7, #4]
 80037c0:	223c      	movs	r2, #60	; 0x3c
 80037c2:	5c9b      	ldrb	r3, [r3, r2]
 80037c4:	2b01      	cmp	r3, #1
 80037c6:	d101      	bne.n	80037cc <HAL_TIM_ConfigClockSource+0x20>
 80037c8:	2302      	movs	r3, #2
 80037ca:	e0bc      	b.n	8003946 <HAL_TIM_ConfigClockSource+0x19a>
 80037cc:	687b      	ldr	r3, [r7, #4]
 80037ce:	223c      	movs	r2, #60	; 0x3c
 80037d0:	2101      	movs	r1, #1
 80037d2:	5499      	strb	r1, [r3, r2]

  htim->State = HAL_TIM_STATE_BUSY;
 80037d4:	687b      	ldr	r3, [r7, #4]
 80037d6:	223d      	movs	r2, #61	; 0x3d
 80037d8:	2102      	movs	r1, #2
 80037da:	5499      	strb	r1, [r3, r2]

  /* Check the parameters */
  assert_param(IS_TIM_CLOCKSOURCE(sClockSourceConfig->ClockSource));

  /* Reset the SMS, TS, ECE, ETPS and ETRF bits */
  tmpsmcr = htim->Instance->SMCR;
 80037dc:	687b      	ldr	r3, [r7, #4]
 80037de:	681b      	ldr	r3, [r3, #0]
 80037e0:	689b      	ldr	r3, [r3, #8]
 80037e2:	60bb      	str	r3, [r7, #8]
  tmpsmcr &= ~(TIM_SMCR_SMS | TIM_SMCR_TS);
 80037e4:	68bb      	ldr	r3, [r7, #8]
 80037e6:	4a5a      	ldr	r2, [pc, #360]	; (8003950 <HAL_TIM_ConfigClockSource+0x1a4>)
 80037e8:	4013      	ands	r3, r2
 80037ea:	60bb      	str	r3, [r7, #8]
  tmpsmcr &= ~(TIM_SMCR_ETF | TIM_SMCR_ETPS | TIM_SMCR_ECE | TIM_SMCR_ETP);
 80037ec:	68bb      	ldr	r3, [r7, #8]
 80037ee:	4a59      	ldr	r2, [pc, #356]	; (8003954 <HAL_TIM_ConfigClockSource+0x1a8>)
 80037f0:	4013      	ands	r3, r2
 80037f2:	60bb      	str	r3, [r7, #8]
  htim->Instance->SMCR = tmpsmcr;
 80037f4:	687b      	ldr	r3, [r7, #4]
 80037f6:	681b      	ldr	r3, [r3, #0]
 80037f8:	68ba      	ldr	r2, [r7, #8]
 80037fa:	609a      	str	r2, [r3, #8]

  switch (sClockSourceConfig->ClockSource)
 80037fc:	683b      	ldr	r3, [r7, #0]
 80037fe:	681b      	ldr	r3, [r3, #0]
 8003800:	2280      	movs	r2, #128	; 0x80
 8003802:	0192      	lsls	r2, r2, #6
 8003804:	4293      	cmp	r3, r2
 8003806:	d040      	beq.n	800388a <HAL_TIM_ConfigClockSource+0xde>
 8003808:	2280      	movs	r2, #128	; 0x80
 800380a:	0192      	lsls	r2, r2, #6
 800380c:	4293      	cmp	r3, r2
 800380e:	d900      	bls.n	8003812 <HAL_TIM_ConfigClockSource+0x66>
 8003810:	e088      	b.n	8003924 <HAL_TIM_ConfigClockSource+0x178>
 8003812:	2280      	movs	r2, #128	; 0x80
 8003814:	0152      	lsls	r2, r2, #5
 8003816:	4293      	cmp	r3, r2
 8003818:	d100      	bne.n	800381c <HAL_TIM_ConfigClockSource+0x70>
 800381a:	e088      	b.n	800392e <HAL_TIM_ConfigClockSource+0x182>
 800381c:	2280      	movs	r2, #128	; 0x80
 800381e:	0152      	lsls	r2, r2, #5
 8003820:	4293      	cmp	r3, r2
 8003822:	d900      	bls.n	8003826 <HAL_TIM_ConfigClockSource+0x7a>
 8003824:	e07e      	b.n	8003924 <HAL_TIM_ConfigClockSource+0x178>
 8003826:	2b70      	cmp	r3, #112	; 0x70
 8003828:	d018      	beq.n	800385c <HAL_TIM_ConfigClockSource+0xb0>
 800382a:	d900      	bls.n	800382e <HAL_TIM_ConfigClockSource+0x82>
 800382c:	e07a      	b.n	8003924 <HAL_TIM_ConfigClockSource+0x178>
 800382e:	2b60      	cmp	r3, #96	; 0x60
 8003830:	d04f      	beq.n	80038d2 <HAL_TIM_ConfigClockSource+0x126>
 8003832:	d900      	bls.n	8003836 <HAL_TIM_ConfigClockSource+0x8a>
 8003834:	e076      	b.n	8003924 <HAL_TIM_ConfigClockSource+0x178>
 8003836:	2b50      	cmp	r3, #80	; 0x50
 8003838:	d03b      	beq.n	80038b2 <HAL_TIM_ConfigClockSource+0x106>
 800383a:	d900      	bls.n	800383e <HAL_TIM_ConfigClockSource+0x92>
 800383c:	e072      	b.n	8003924 <HAL_TIM_ConfigClockSource+0x178>
 800383e:	2b40      	cmp	r3, #64	; 0x40
 8003840:	d057      	beq.n	80038f2 <HAL_TIM_ConfigClockSource+0x146>
 8003842:	d900      	bls.n	8003846 <HAL_TIM_ConfigClockSource+0x9a>
 8003844:	e06e      	b.n	8003924 <HAL_TIM_ConfigClockSource+0x178>
 8003846:	2b30      	cmp	r3, #48	; 0x30
 8003848:	d063      	beq.n	8003912 <HAL_TIM_ConfigClockSource+0x166>
 800384a:	d86b      	bhi.n	8003924 <HAL_TIM_ConfigClockSource+0x178>
 800384c:	2b20      	cmp	r3, #32
 800384e:	d060      	beq.n	8003912 <HAL_TIM_ConfigClockSource+0x166>
 8003850:	d868      	bhi.n	8003924 <HAL_TIM_ConfigClockSource+0x178>
 8003852:	2b00      	cmp	r3, #0
 8003854:	d05d      	beq.n	8003912 <HAL_TIM_ConfigClockSource+0x166>
 8003856:	2b10      	cmp	r3, #16
 8003858:	d05b      	beq.n	8003912 <HAL_TIM_ConfigClockSource+0x166>
 800385a:	e063      	b.n	8003924 <HAL_TIM_ConfigClockSource+0x178>
      assert_param(IS_TIM_CLOCKPRESCALER(sClockSourceConfig->ClockPrescaler));
      assert_param(IS_TIM_CLOCKPOLARITY(sClockSourceConfig->ClockPolarity));
      assert_param(IS_TIM_CLOCKFILTER(sClockSourceConfig->ClockFilter));

      /* Configure the ETR Clock source */
      TIM_ETR_SetConfig(htim->Instance,
 800385c:	687b      	ldr	r3, [r7, #4]
 800385e:	6818      	ldr	r0, [r3, #0]
 8003860:	683b      	ldr	r3, [r7, #0]
 8003862:	6899      	ldr	r1, [r3, #8]
 8003864:	683b      	ldr	r3, [r7, #0]
 8003866:	685a      	ldr	r2, [r3, #4]
 8003868:	683b      	ldr	r3, [r7, #0]
 800386a:	68db      	ldr	r3, [r3, #12]
 800386c:	f000 f97a 	bl	8003b64 <TIM_ETR_SetConfig>
                        sClockSourceConfig->ClockPrescaler,
                        sClockSourceConfig->ClockPolarity,
                        sClockSourceConfig->ClockFilter);

      /* Select the External clock mode1 and the ETRF trigger */
      tmpsmcr = htim->Instance->SMCR;
 8003870:	687b      	ldr	r3, [r7, #4]
 8003872:	681b      	ldr	r3, [r3, #0]
 8003874:	689b      	ldr	r3, [r3, #8]
 8003876:	60bb      	str	r3, [r7, #8]
      tmpsmcr |= (TIM_SLAVEMODE_EXTERNAL1 | TIM_CLOCKSOURCE_ETRMODE1);
 8003878:	68bb      	ldr	r3, [r7, #8]
 800387a:	2277      	movs	r2, #119	; 0x77
 800387c:	4313      	orrs	r3, r2
 800387e:	60bb      	str	r3, [r7, #8]
      /* Write to TIMx SMCR */
      htim->Instance->SMCR = tmpsmcr;
 8003880:	687b      	ldr	r3, [r7, #4]
 8003882:	681b      	ldr	r3, [r3, #0]
 8003884:	68ba      	ldr	r2, [r7, #8]
 8003886:	609a      	str	r2, [r3, #8]
      break;
 8003888:	e052      	b.n	8003930 <HAL_TIM_ConfigClockSource+0x184>
      assert_param(IS_TIM_CLOCKPRESCALER(sClockSourceConfig->ClockPrescaler));
      assert_param(IS_TIM_CLOCKPOLARITY(sClockSourceConfig->ClockPolarity));
      assert_param(IS_TIM_CLOCKFILTER(sClockSourceConfig->ClockFilter));

      /* Configure the ETR Clock source */
      TIM_ETR_SetConfig(htim->Instance,
 800388a:	687b      	ldr	r3, [r7, #4]
 800388c:	6818      	ldr	r0, [r3, #0]
 800388e:	683b      	ldr	r3, [r7, #0]
 8003890:	6899      	ldr	r1, [r3, #8]
 8003892:	683b      	ldr	r3, [r7, #0]
 8003894:	685a      	ldr	r2, [r3, #4]
 8003896:	683b      	ldr	r3, [r7, #0]
 8003898:	68db      	ldr	r3, [r3, #12]
 800389a:	f000 f963 	bl	8003b64 <TIM_ETR_SetConfig>
                        sClockSourceConfig->ClockPrescaler,
                        sClockSourceConfig->ClockPolarity,
                        sClockSourceConfig->ClockFilter);
      /* Enable the External clock mode2 */
      htim->Instance->SMCR |= TIM_SMCR_ECE;
 800389e:	687b      	ldr	r3, [r7, #4]
 80038a0:	681b      	ldr	r3, [r3, #0]
 80038a2:	689a      	ldr	r2, [r3, #8]
 80038a4:	687b      	ldr	r3, [r7, #4]
 80038a6:	681b      	ldr	r3, [r3, #0]
 80038a8:	2180      	movs	r1, #128	; 0x80
 80038aa:	01c9      	lsls	r1, r1, #7
 80038ac:	430a      	orrs	r2, r1
 80038ae:	609a      	str	r2, [r3, #8]
      break;
 80038b0:	e03e      	b.n	8003930 <HAL_TIM_ConfigClockSource+0x184>

      /* Check TI1 input conditioning related parameters */
      assert_param(IS_TIM_CLOCKPOLARITY(sClockSourceConfig->ClockPolarity));
      assert_param(IS_TIM_CLOCKFILTER(sClockSourceConfig->ClockFilter));

      TIM_TI1_ConfigInputStage(htim->Instance,
 80038b2:	687b      	ldr	r3, [r7, #4]
 80038b4:	6818      	ldr	r0, [r3, #0]
 80038b6:	683b      	ldr	r3, [r7, #0]
 80038b8:	6859      	ldr	r1, [r3, #4]
 80038ba:	683b      	ldr	r3, [r7, #0]
 80038bc:	68db      	ldr	r3, [r3, #12]
 80038be:	001a      	movs	r2, r3
 80038c0:	f000 f8d4 	bl	8003a6c <TIM_TI1_ConfigInputStage>
                               sClockSourceConfig->ClockPolarity,
                               sClockSourceConfig->ClockFilter);
      TIM_ITRx_SetConfig(htim->Instance, TIM_CLOCKSOURCE_TI1);
 80038c4:	687b      	ldr	r3, [r7, #4]
 80038c6:	681b      	ldr	r3, [r3, #0]
 80038c8:	2150      	movs	r1, #80	; 0x50
 80038ca:	0018      	movs	r0, r3
 80038cc:	f000 f92e 	bl	8003b2c <TIM_ITRx_SetConfig>
      break;
 80038d0:	e02e      	b.n	8003930 <HAL_TIM_ConfigClockSource+0x184>

      /* Check TI2 input conditioning related parameters */
      assert_param(IS_TIM_CLOCKPOLARITY(sClockSourceConfig->ClockPolarity));
      assert_param(IS_TIM_CLOCKFILTER(sClockSourceConfig->ClockFilter));

      TIM_TI2_ConfigInputStage(htim->Instance,
 80038d2:	687b      	ldr	r3, [r7, #4]
 80038d4:	6818      	ldr	r0, [r3, #0]
 80038d6:	683b      	ldr	r3, [r7, #0]
 80038d8:	6859      	ldr	r1, [r3, #4]
 80038da:	683b      	ldr	r3, [r7, #0]
 80038dc:	68db      	ldr	r3, [r3, #12]
 80038de:	001a      	movs	r2, r3
 80038e0:	f000 f8f2 	bl	8003ac8 <TIM_TI2_ConfigInputStage>
                               sClockSourceConfig->ClockPolarity,
                               sClockSourceConfig->ClockFilter);
      TIM_ITRx_SetConfig(htim->Instance, TIM_CLOCKSOURCE_TI2);
 80038e4:	687b      	ldr	r3, [r7, #4]
 80038e6:	681b      	ldr	r3, [r3, #0]
 80038e8:	2160      	movs	r1, #96	; 0x60
 80038ea:	0018      	movs	r0, r3
 80038ec:	f000 f91e 	bl	8003b2c <TIM_ITRx_SetConfig>
      break;
 80038f0:	e01e      	b.n	8003930 <HAL_TIM_ConfigClockSource+0x184>

      /* Check TI1 input conditioning related parameters */
      assert_param(IS_TIM_CLOCKPOLARITY(sClockSourceConfig->ClockPolarity));
      assert_param(IS_TIM_CLOCKFILTER(sClockSourceConfig->ClockFilter));

      TIM_TI1_ConfigInputStage(htim->Instance,
 80038f2:	687b      	ldr	r3, [r7, #4]
 80038f4:	6818      	ldr	r0, [r3, #0]
 80038f6:	683b      	ldr	r3, [r7, #0]
 80038f8:	6859      	ldr	r1, [r3, #4]
 80038fa:	683b      	ldr	r3, [r7, #0]
 80038fc:	68db      	ldr	r3, [r3, #12]
 80038fe:	001a      	movs	r2, r3
 8003900:	f000 f8b4 	bl	8003a6c <TIM_TI1_ConfigInputStage>
                               sClockSourceConfig->ClockPolarity,
                               sClockSourceConfig->ClockFilter);
      TIM_ITRx_SetConfig(htim->Instance, TIM_CLOCKSOURCE_TI1ED);
 8003904:	687b      	ldr	r3, [r7, #4]
 8003906:	681b      	ldr	r3, [r3, #0]
 8003908:	2140      	movs	r1, #64	; 0x40
 800390a:	0018      	movs	r0, r3
 800390c:	f000 f90e 	bl	8003b2c <TIM_ITRx_SetConfig>
      break;
 8003910:	e00e      	b.n	8003930 <HAL_TIM_ConfigClockSource+0x184>
    case TIM_CLOCKSOURCE_ITR3:
    {
      /* Check whether or not the timer instance supports internal trigger input */
      assert_param(IS_TIM_CLOCKSOURCE_ITRX_INSTANCE(htim->Instance));

      TIM_ITRx_SetConfig(htim->Instance, sClockSourceConfig->ClockSource);
 8003912:	687b      	ldr	r3, [r7, #4]
 8003914:	681a      	ldr	r2, [r3, #0]
 8003916:	683b      	ldr	r3, [r7, #0]
 8003918:	681b      	ldr	r3, [r3, #0]
 800391a:	0019      	movs	r1, r3
 800391c:	0010      	movs	r0, r2
 800391e:	f000 f905 	bl	8003b2c <TIM_ITRx_SetConfig>
      break;
 8003922:	e005      	b.n	8003930 <HAL_TIM_ConfigClockSource+0x184>
    }

    default:
      status = HAL_ERROR;
 8003924:	230f      	movs	r3, #15
 8003926:	18fb      	adds	r3, r7, r3
 8003928:	2201      	movs	r2, #1
 800392a:	701a      	strb	r2, [r3, #0]
      break;
 800392c:	e000      	b.n	8003930 <HAL_TIM_ConfigClockSource+0x184>
      break;
 800392e:	46c0      	nop			; (mov r8, r8)
  }
  htim->State = HAL_TIM_STATE_READY;
 8003930:	687b      	ldr	r3, [r7, #4]
 8003932:	223d      	movs	r2, #61	; 0x3d
 8003934:	2101      	movs	r1, #1
 8003936:	5499      	strb	r1, [r3, r2]

  __HAL_UNLOCK(htim);
 8003938:	687b      	ldr	r3, [r7, #4]
 800393a:	223c      	movs	r2, #60	; 0x3c
 800393c:	2100      	movs	r1, #0
 800393e:	5499      	strb	r1, [r3, r2]

  return status;
 8003940:	230f      	movs	r3, #15
 8003942:	18fb      	adds	r3, r7, r3
 8003944:	781b      	ldrb	r3, [r3, #0]
}
 8003946:	0018      	movs	r0, r3
 8003948:	46bd      	mov	sp, r7
 800394a:	b004      	add	sp, #16
 800394c:	bd80      	pop	{r7, pc}
 800394e:	46c0      	nop			; (mov r8, r8)
 8003950:	ffceff88 	.word	0xffceff88
 8003954:	ffff00ff 	.word	0xffff00ff

08003958 <TIM_Base_SetConfig>:
  * @param  TIMx TIM peripheral
  * @param  Structure TIM Base configuration structure
  * @retval None
  */
void TIM_Base_SetConfig(TIM_TypeDef *TIMx, const TIM_Base_InitTypeDef *Structure)
{
 8003958:	b580      	push	{r7, lr}
 800395a:	b084      	sub	sp, #16
 800395c:	af00      	add	r7, sp, #0
 800395e:	6078      	str	r0, [r7, #4]
 8003960:	6039      	str	r1, [r7, #0]
  uint32_t tmpcr1;
  tmpcr1 = TIMx->CR1;
 8003962:	687b      	ldr	r3, [r7, #4]
 8003964:	681b      	ldr	r3, [r3, #0]
 8003966:	60fb      	str	r3, [r7, #12]

  /* Set TIM Time Base Unit parameters ---------------------------------------*/
  if (IS_TIM_COUNTER_MODE_SELECT_INSTANCE(TIMx))
 8003968:	687b      	ldr	r3, [r7, #4]
 800396a:	4a38      	ldr	r2, [pc, #224]	; (8003a4c <TIM_Base_SetConfig+0xf4>)
 800396c:	4293      	cmp	r3, r2
 800396e:	d00c      	beq.n	800398a <TIM_Base_SetConfig+0x32>
 8003970:	687a      	ldr	r2, [r7, #4]
 8003972:	2380      	movs	r3, #128	; 0x80
 8003974:	05db      	lsls	r3, r3, #23
 8003976:	429a      	cmp	r2, r3
 8003978:	d007      	beq.n	800398a <TIM_Base_SetConfig+0x32>
 800397a:	687b      	ldr	r3, [r7, #4]
 800397c:	4a34      	ldr	r2, [pc, #208]	; (8003a50 <TIM_Base_SetConfig+0xf8>)
 800397e:	4293      	cmp	r3, r2
 8003980:	d003      	beq.n	800398a <TIM_Base_SetConfig+0x32>
 8003982:	687b      	ldr	r3, [r7, #4]
 8003984:	4a33      	ldr	r2, [pc, #204]	; (8003a54 <TIM_Base_SetConfig+0xfc>)
 8003986:	4293      	cmp	r3, r2
 8003988:	d108      	bne.n	800399c <TIM_Base_SetConfig+0x44>
  {
    /* Select the Counter Mode */
    tmpcr1 &= ~(TIM_CR1_DIR | TIM_CR1_CMS);
 800398a:	68fb      	ldr	r3, [r7, #12]
 800398c:	2270      	movs	r2, #112	; 0x70
 800398e:	4393      	bics	r3, r2
 8003990:	60fb      	str	r3, [r7, #12]
    tmpcr1 |= Structure->CounterMode;
 8003992:	683b      	ldr	r3, [r7, #0]
 8003994:	685b      	ldr	r3, [r3, #4]
 8003996:	68fa      	ldr	r2, [r7, #12]
 8003998:	4313      	orrs	r3, r2
 800399a:	60fb      	str	r3, [r7, #12]
  }

  if (IS_TIM_CLOCK_DIVISION_INSTANCE(TIMx))
 800399c:	687b      	ldr	r3, [r7, #4]
 800399e:	4a2b      	ldr	r2, [pc, #172]	; (8003a4c <TIM_Base_SetConfig+0xf4>)
 80039a0:	4293      	cmp	r3, r2
 80039a2:	d01c      	beq.n	80039de <TIM_Base_SetConfig+0x86>
 80039a4:	687a      	ldr	r2, [r7, #4]
 80039a6:	2380      	movs	r3, #128	; 0x80
 80039a8:	05db      	lsls	r3, r3, #23
 80039aa:	429a      	cmp	r2, r3
 80039ac:	d017      	beq.n	80039de <TIM_Base_SetConfig+0x86>
 80039ae:	687b      	ldr	r3, [r7, #4]
 80039b0:	4a27      	ldr	r2, [pc, #156]	; (8003a50 <TIM_Base_SetConfig+0xf8>)
 80039b2:	4293      	cmp	r3, r2
 80039b4:	d013      	beq.n	80039de <TIM_Base_SetConfig+0x86>
 80039b6:	687b      	ldr	r3, [r7, #4]
 80039b8:	4a26      	ldr	r2, [pc, #152]	; (8003a54 <TIM_Base_SetConfig+0xfc>)
 80039ba:	4293      	cmp	r3, r2
 80039bc:	d00f      	beq.n	80039de <TIM_Base_SetConfig+0x86>
 80039be:	687b      	ldr	r3, [r7, #4]
 80039c0:	4a25      	ldr	r2, [pc, #148]	; (8003a58 <TIM_Base_SetConfig+0x100>)
 80039c2:	4293      	cmp	r3, r2
 80039c4:	d00b      	beq.n	80039de <TIM_Base_SetConfig+0x86>
 80039c6:	687b      	ldr	r3, [r7, #4]
 80039c8:	4a24      	ldr	r2, [pc, #144]	; (8003a5c <TIM_Base_SetConfig+0x104>)
 80039ca:	4293      	cmp	r3, r2
 80039cc:	d007      	beq.n	80039de <TIM_Base_SetConfig+0x86>
 80039ce:	687b      	ldr	r3, [r7, #4]
 80039d0:	4a23      	ldr	r2, [pc, #140]	; (8003a60 <TIM_Base_SetConfig+0x108>)
 80039d2:	4293      	cmp	r3, r2
 80039d4:	d003      	beq.n	80039de <TIM_Base_SetConfig+0x86>
 80039d6:	687b      	ldr	r3, [r7, #4]
 80039d8:	4a22      	ldr	r2, [pc, #136]	; (8003a64 <TIM_Base_SetConfig+0x10c>)
 80039da:	4293      	cmp	r3, r2
 80039dc:	d108      	bne.n	80039f0 <TIM_Base_SetConfig+0x98>
  {
    /* Set the clock division */
    tmpcr1 &= ~TIM_CR1_CKD;
 80039de:	68fb      	ldr	r3, [r7, #12]
 80039e0:	4a21      	ldr	r2, [pc, #132]	; (8003a68 <TIM_Base_SetConfig+0x110>)
 80039e2:	4013      	ands	r3, r2
 80039e4:	60fb      	str	r3, [r7, #12]
    tmpcr1 |= (uint32_t)Structure->ClockDivision;
 80039e6:	683b      	ldr	r3, [r7, #0]
 80039e8:	68db      	ldr	r3, [r3, #12]
 80039ea:	68fa      	ldr	r2, [r7, #12]
 80039ec:	4313      	orrs	r3, r2
 80039ee:	60fb      	str	r3, [r7, #12]
  }

  /* Set the auto-reload preload */
  MODIFY_REG(tmpcr1, TIM_CR1_ARPE, Structure->AutoReloadPreload);
 80039f0:	68fb      	ldr	r3, [r7, #12]
 80039f2:	2280      	movs	r2, #128	; 0x80
 80039f4:	4393      	bics	r3, r2
 80039f6:	001a      	movs	r2, r3
 80039f8:	683b      	ldr	r3, [r7, #0]
 80039fa:	695b      	ldr	r3, [r3, #20]
 80039fc:	4313      	orrs	r3, r2
 80039fe:	60fb      	str	r3, [r7, #12]

  TIMx->CR1 = tmpcr1;
 8003a00:	687b      	ldr	r3, [r7, #4]
 8003a02:	68fa      	ldr	r2, [r7, #12]
 8003a04:	601a      	str	r2, [r3, #0]

  /* Set the Autoreload value */
  TIMx->ARR = (uint32_t)Structure->Period ;
 8003a06:	683b      	ldr	r3, [r7, #0]
 8003a08:	689a      	ldr	r2, [r3, #8]
 8003a0a:	687b      	ldr	r3, [r7, #4]
 8003a0c:	62da      	str	r2, [r3, #44]	; 0x2c

  /* Set the Prescaler value */
  TIMx->PSC = Structure->Prescaler;
 8003a0e:	683b      	ldr	r3, [r7, #0]
 8003a10:	681a      	ldr	r2, [r3, #0]
 8003a12:	687b      	ldr	r3, [r7, #4]
 8003a14:	629a      	str	r2, [r3, #40]	; 0x28

  if (IS_TIM_REPETITION_COUNTER_INSTANCE(TIMx))
 8003a16:	687b      	ldr	r3, [r7, #4]
 8003a18:	4a0c      	ldr	r2, [pc, #48]	; (8003a4c <TIM_Base_SetConfig+0xf4>)
 8003a1a:	4293      	cmp	r3, r2
 8003a1c:	d00b      	beq.n	8003a36 <TIM_Base_SetConfig+0xde>
 8003a1e:	687b      	ldr	r3, [r7, #4]
 8003a20:	4a0e      	ldr	r2, [pc, #56]	; (8003a5c <TIM_Base_SetConfig+0x104>)
 8003a22:	4293      	cmp	r3, r2
 8003a24:	d007      	beq.n	8003a36 <TIM_Base_SetConfig+0xde>
 8003a26:	687b      	ldr	r3, [r7, #4]
 8003a28:	4a0d      	ldr	r2, [pc, #52]	; (8003a60 <TIM_Base_SetConfig+0x108>)
 8003a2a:	4293      	cmp	r3, r2
 8003a2c:	d003      	beq.n	8003a36 <TIM_Base_SetConfig+0xde>
 8003a2e:	687b      	ldr	r3, [r7, #4]
 8003a30:	4a0c      	ldr	r2, [pc, #48]	; (8003a64 <TIM_Base_SetConfig+0x10c>)
 8003a32:	4293      	cmp	r3, r2
 8003a34:	d103      	bne.n	8003a3e <TIM_Base_SetConfig+0xe6>
  {
    /* Set the Repetition Counter value */
    TIMx->RCR = Structure->RepetitionCounter;
 8003a36:	683b      	ldr	r3, [r7, #0]
 8003a38:	691a      	ldr	r2, [r3, #16]
 8003a3a:	687b      	ldr	r3, [r7, #4]
 8003a3c:	631a      	str	r2, [r3, #48]	; 0x30
  }

  /* Generate an update event to reload the Prescaler
     and the repetition counter (only for advanced timer) value immediately */
  TIMx->EGR = TIM_EGR_UG;
 8003a3e:	687b      	ldr	r3, [r7, #4]
 8003a40:	2201      	movs	r2, #1
 8003a42:	615a      	str	r2, [r3, #20]
}
 8003a44:	46c0      	nop			; (mov r8, r8)
 8003a46:	46bd      	mov	sp, r7
 8003a48:	b004      	add	sp, #16
 8003a4a:	bd80      	pop	{r7, pc}
 8003a4c:	40012c00 	.word	0x40012c00
 8003a50:	40000400 	.word	0x40000400
 8003a54:	40000800 	.word	0x40000800
 8003a58:	40002000 	.word	0x40002000
 8003a5c:	40014000 	.word	0x40014000
 8003a60:	40014400 	.word	0x40014400
 8003a64:	40014800 	.word	0x40014800
 8003a68:	fffffcff 	.word	0xfffffcff

08003a6c <TIM_TI1_ConfigInputStage>:
  * @param  TIM_ICFilter Specifies the Input Capture Filter.
  *          This parameter must be a value between 0x00 and 0x0F.
  * @retval None
  */
static void TIM_TI1_ConfigInputStage(TIM_TypeDef *TIMx, uint32_t TIM_ICPolarity, uint32_t TIM_ICFilter)
{
 8003a6c:	b580      	push	{r7, lr}
 8003a6e:	b086      	sub	sp, #24
 8003a70:	af00      	add	r7, sp, #0
 8003a72:	60f8      	str	r0, [r7, #12]
 8003a74:	60b9      	str	r1, [r7, #8]
 8003a76:	607a      	str	r2, [r7, #4]
  uint32_t tmpccmr1;
  uint32_t tmpccer;

  /* Disable the Channel 1: Reset the CC1E Bit */
  tmpccer = TIMx->CCER;
 8003a78:	68fb      	ldr	r3, [r7, #12]
 8003a7a:	6a1b      	ldr	r3, [r3, #32]
 8003a7c:	617b      	str	r3, [r7, #20]
  TIMx->CCER &= ~TIM_CCER_CC1E;
 8003a7e:	68fb      	ldr	r3, [r7, #12]
 8003a80:	6a1b      	ldr	r3, [r3, #32]
 8003a82:	2201      	movs	r2, #1
 8003a84:	4393      	bics	r3, r2
 8003a86:	001a      	movs	r2, r3
 8003a88:	68fb      	ldr	r3, [r7, #12]
 8003a8a:	621a      	str	r2, [r3, #32]
  tmpccmr1 = TIMx->CCMR1;
 8003a8c:	68fb      	ldr	r3, [r7, #12]
 8003a8e:	699b      	ldr	r3, [r3, #24]
 8003a90:	613b      	str	r3, [r7, #16]

  /* Set the filter */
  tmpccmr1 &= ~TIM_CCMR1_IC1F;
 8003a92:	693b      	ldr	r3, [r7, #16]
 8003a94:	22f0      	movs	r2, #240	; 0xf0
 8003a96:	4393      	bics	r3, r2
 8003a98:	613b      	str	r3, [r7, #16]
  tmpccmr1 |= (TIM_ICFilter << 4U);
 8003a9a:	687b      	ldr	r3, [r7, #4]
 8003a9c:	011b      	lsls	r3, r3, #4
 8003a9e:	693a      	ldr	r2, [r7, #16]
 8003aa0:	4313      	orrs	r3, r2
 8003aa2:	613b      	str	r3, [r7, #16]

  /* Select the Polarity and set the CC1E Bit */
  tmpccer &= ~(TIM_CCER_CC1P | TIM_CCER_CC1NP);
 8003aa4:	697b      	ldr	r3, [r7, #20]
 8003aa6:	220a      	movs	r2, #10
 8003aa8:	4393      	bics	r3, r2
 8003aaa:	617b      	str	r3, [r7, #20]
  tmpccer |= TIM_ICPolarity;
 8003aac:	697a      	ldr	r2, [r7, #20]
 8003aae:	68bb      	ldr	r3, [r7, #8]
 8003ab0:	4313      	orrs	r3, r2
 8003ab2:	617b      	str	r3, [r7, #20]

  /* Write to TIMx CCMR1 and CCER registers */
  TIMx->CCMR1 = tmpccmr1;
 8003ab4:	68fb      	ldr	r3, [r7, #12]
 8003ab6:	693a      	ldr	r2, [r7, #16]
 8003ab8:	619a      	str	r2, [r3, #24]
  TIMx->CCER = tmpccer;
 8003aba:	68fb      	ldr	r3, [r7, #12]
 8003abc:	697a      	ldr	r2, [r7, #20]
 8003abe:	621a      	str	r2, [r3, #32]
}
 8003ac0:	46c0      	nop			; (mov r8, r8)
 8003ac2:	46bd      	mov	sp, r7
 8003ac4:	b006      	add	sp, #24
 8003ac6:	bd80      	pop	{r7, pc}

08003ac8 <TIM_TI2_ConfigInputStage>:
  * @param  TIM_ICFilter Specifies the Input Capture Filter.
  *          This parameter must be a value between 0x00 and 0x0F.
  * @retval None
  */
static void TIM_TI2_ConfigInputStage(TIM_TypeDef *TIMx, uint32_t TIM_ICPolarity, uint32_t TIM_ICFilter)
{
 8003ac8:	b580      	push	{r7, lr}
 8003aca:	b086      	sub	sp, #24
 8003acc:	af00      	add	r7, sp, #0
 8003ace:	60f8      	str	r0, [r7, #12]
 8003ad0:	60b9      	str	r1, [r7, #8]
 8003ad2:	607a      	str	r2, [r7, #4]
  uint32_t tmpccmr1;
  uint32_t tmpccer;

  /* Disable the Channel 2: Reset the CC2E Bit */
  TIMx->CCER &= ~TIM_CCER_CC2E;
 8003ad4:	68fb      	ldr	r3, [r7, #12]
 8003ad6:	6a1b      	ldr	r3, [r3, #32]
 8003ad8:	2210      	movs	r2, #16
 8003ada:	4393      	bics	r3, r2
 8003adc:	001a      	movs	r2, r3
 8003ade:	68fb      	ldr	r3, [r7, #12]
 8003ae0:	621a      	str	r2, [r3, #32]
  tmpccmr1 = TIMx->CCMR1;
 8003ae2:	68fb      	ldr	r3, [r7, #12]
 8003ae4:	699b      	ldr	r3, [r3, #24]
 8003ae6:	617b      	str	r3, [r7, #20]
  tmpccer = TIMx->CCER;
 8003ae8:	68fb      	ldr	r3, [r7, #12]
 8003aea:	6a1b      	ldr	r3, [r3, #32]
 8003aec:	613b      	str	r3, [r7, #16]

  /* Set the filter */
  tmpccmr1 &= ~TIM_CCMR1_IC2F;
 8003aee:	697b      	ldr	r3, [r7, #20]
 8003af0:	4a0d      	ldr	r2, [pc, #52]	; (8003b28 <TIM_TI2_ConfigInputStage+0x60>)
 8003af2:	4013      	ands	r3, r2
 8003af4:	617b      	str	r3, [r7, #20]
  tmpccmr1 |= (TIM_ICFilter << 12U);
 8003af6:	687b      	ldr	r3, [r7, #4]
 8003af8:	031b      	lsls	r3, r3, #12
 8003afa:	697a      	ldr	r2, [r7, #20]
 8003afc:	4313      	orrs	r3, r2
 8003afe:	617b      	str	r3, [r7, #20]

  /* Select the Polarity and set the CC2E Bit */
  tmpccer &= ~(TIM_CCER_CC2P | TIM_CCER_CC2NP);
 8003b00:	693b      	ldr	r3, [r7, #16]
 8003b02:	22a0      	movs	r2, #160	; 0xa0
 8003b04:	4393      	bics	r3, r2
 8003b06:	613b      	str	r3, [r7, #16]
  tmpccer |= (TIM_ICPolarity << 4U);
 8003b08:	68bb      	ldr	r3, [r7, #8]
 8003b0a:	011b      	lsls	r3, r3, #4
 8003b0c:	693a      	ldr	r2, [r7, #16]
 8003b0e:	4313      	orrs	r3, r2
 8003b10:	613b      	str	r3, [r7, #16]

  /* Write to TIMx CCMR1 and CCER registers */
  TIMx->CCMR1 = tmpccmr1 ;
 8003b12:	68fb      	ldr	r3, [r7, #12]
 8003b14:	697a      	ldr	r2, [r7, #20]
 8003b16:	619a      	str	r2, [r3, #24]
  TIMx->CCER = tmpccer;
 8003b18:	68fb      	ldr	r3, [r7, #12]
 8003b1a:	693a      	ldr	r2, [r7, #16]
 8003b1c:	621a      	str	r2, [r3, #32]
}
 8003b1e:	46c0      	nop			; (mov r8, r8)
 8003b20:	46bd      	mov	sp, r7
 8003b22:	b006      	add	sp, #24
 8003b24:	bd80      	pop	{r7, pc}
 8003b26:	46c0      	nop			; (mov r8, r8)
 8003b28:	ffff0fff 	.word	0xffff0fff

08003b2c <TIM_ITRx_SetConfig>:
  *            @arg TIM_TS_TI2FP2: Filtered Timer Input 2
  *            @arg TIM_TS_ETRF: External Trigger input
  * @retval None
  */
static void TIM_ITRx_SetConfig(TIM_TypeDef *TIMx, uint32_t InputTriggerSource)
{
 8003b2c:	b580      	push	{r7, lr}
 8003b2e:	b084      	sub	sp, #16
 8003b30:	af00      	add	r7, sp, #0
 8003b32:	6078      	str	r0, [r7, #4]
 8003b34:	6039      	str	r1, [r7, #0]
  uint32_t tmpsmcr;

  /* Get the TIMx SMCR register value */
  tmpsmcr = TIMx->SMCR;
 8003b36:	687b      	ldr	r3, [r7, #4]
 8003b38:	689b      	ldr	r3, [r3, #8]
 8003b3a:	60fb      	str	r3, [r7, #12]
  /* Reset the TS Bits */
  tmpsmcr &= ~TIM_SMCR_TS;
 8003b3c:	68fb      	ldr	r3, [r7, #12]
 8003b3e:	4a08      	ldr	r2, [pc, #32]	; (8003b60 <TIM_ITRx_SetConfig+0x34>)
 8003b40:	4013      	ands	r3, r2
 8003b42:	60fb      	str	r3, [r7, #12]
  /* Set the Input Trigger source and the slave mode*/
  tmpsmcr |= (InputTriggerSource | TIM_SLAVEMODE_EXTERNAL1);
 8003b44:	683a      	ldr	r2, [r7, #0]
 8003b46:	68fb      	ldr	r3, [r7, #12]
 8003b48:	4313      	orrs	r3, r2
 8003b4a:	2207      	movs	r2, #7
 8003b4c:	4313      	orrs	r3, r2
 8003b4e:	60fb      	str	r3, [r7, #12]
  /* Write to TIMx SMCR */
  TIMx->SMCR = tmpsmcr;
 8003b50:	687b      	ldr	r3, [r7, #4]
 8003b52:	68fa      	ldr	r2, [r7, #12]
 8003b54:	609a      	str	r2, [r3, #8]
}
 8003b56:	46c0      	nop			; (mov r8, r8)
 8003b58:	46bd      	mov	sp, r7
 8003b5a:	b004      	add	sp, #16
 8003b5c:	bd80      	pop	{r7, pc}
 8003b5e:	46c0      	nop			; (mov r8, r8)
 8003b60:	ffcfff8f 	.word	0xffcfff8f

08003b64 <TIM_ETR_SetConfig>:
  *          This parameter must be a value between 0x00 and 0x0F
  * @retval None
  */
void TIM_ETR_SetConfig(TIM_TypeDef *TIMx, uint32_t TIM_ExtTRGPrescaler,
                       uint32_t TIM_ExtTRGPolarity, uint32_t ExtTRGFilter)
{
 8003b64:	b580      	push	{r7, lr}
 8003b66:	b086      	sub	sp, #24
 8003b68:	af00      	add	r7, sp, #0
 8003b6a:	60f8      	str	r0, [r7, #12]
 8003b6c:	60b9      	str	r1, [r7, #8]
 8003b6e:	607a      	str	r2, [r7, #4]
 8003b70:	603b      	str	r3, [r7, #0]
  uint32_t tmpsmcr;

  tmpsmcr = TIMx->SMCR;
 8003b72:	68fb      	ldr	r3, [r7, #12]
 8003b74:	689b      	ldr	r3, [r3, #8]
 8003b76:	617b      	str	r3, [r7, #20]

  /* Reset the ETR Bits */
  tmpsmcr &= ~(TIM_SMCR_ETF | TIM_SMCR_ETPS | TIM_SMCR_ECE | TIM_SMCR_ETP);
 8003b78:	697b      	ldr	r3, [r7, #20]
 8003b7a:	4a09      	ldr	r2, [pc, #36]	; (8003ba0 <TIM_ETR_SetConfig+0x3c>)
 8003b7c:	4013      	ands	r3, r2
 8003b7e:	617b      	str	r3, [r7, #20]

  /* Set the Prescaler, the Filter value and the Polarity */
  tmpsmcr |= (uint32_t)(TIM_ExtTRGPrescaler | (TIM_ExtTRGPolarity | (ExtTRGFilter << 8U)));
 8003b80:	683b      	ldr	r3, [r7, #0]
 8003b82:	021a      	lsls	r2, r3, #8
 8003b84:	687b      	ldr	r3, [r7, #4]
 8003b86:	431a      	orrs	r2, r3
 8003b88:	68bb      	ldr	r3, [r7, #8]
 8003b8a:	4313      	orrs	r3, r2
 8003b8c:	697a      	ldr	r2, [r7, #20]
 8003b8e:	4313      	orrs	r3, r2
 8003b90:	617b      	str	r3, [r7, #20]

  /* Write to TIMx SMCR */
  TIMx->SMCR = tmpsmcr;
 8003b92:	68fb      	ldr	r3, [r7, #12]
 8003b94:	697a      	ldr	r2, [r7, #20]
 8003b96:	609a      	str	r2, [r3, #8]
}
 8003b98:	46c0      	nop			; (mov r8, r8)
 8003b9a:	46bd      	mov	sp, r7
 8003b9c:	b006      	add	sp, #24
 8003b9e:	bd80      	pop	{r7, pc}
 8003ba0:	ffff00ff 	.word	0xffff00ff

08003ba4 <HAL_TIMEx_MasterConfigSynchronization>:
  *         mode.
  * @retval HAL status
  */
HAL_StatusTypeDef HAL_TIMEx_MasterConfigSynchronization(TIM_HandleTypeDef *htim,
                                                        const TIM_MasterConfigTypeDef *sMasterConfig)
{
 8003ba4:	b580      	push	{r7, lr}
 8003ba6:	b084      	sub	sp, #16
 8003ba8:	af00      	add	r7, sp, #0
 8003baa:	6078      	str	r0, [r7, #4]
 8003bac:	6039      	str	r1, [r7, #0]
  assert_param(IS_TIM_MASTER_INSTANCE(htim->Instance));
  assert_param(IS_TIM_TRGO_SOURCE(sMasterConfig->MasterOutputTrigger));
  assert_param(IS_TIM_MSM_STATE(sMasterConfig->MasterSlaveMode));

  /* Check input state */
  __HAL_LOCK(htim);
 8003bae:	687b      	ldr	r3, [r7, #4]
 8003bb0:	223c      	movs	r2, #60	; 0x3c
 8003bb2:	5c9b      	ldrb	r3, [r3, r2]
 8003bb4:	2b01      	cmp	r3, #1
 8003bb6:	d101      	bne.n	8003bbc <HAL_TIMEx_MasterConfigSynchronization+0x18>
 8003bb8:	2302      	movs	r3, #2
 8003bba:	e05a      	b.n	8003c72 <HAL_TIMEx_MasterConfigSynchronization+0xce>
 8003bbc:	687b      	ldr	r3, [r7, #4]
 8003bbe:	223c      	movs	r2, #60	; 0x3c
 8003bc0:	2101      	movs	r1, #1
 8003bc2:	5499      	strb	r1, [r3, r2]

  /* Change the handler state */
  htim->State = HAL_TIM_STATE_BUSY;
 8003bc4:	687b      	ldr	r3, [r7, #4]
 8003bc6:	223d      	movs	r2, #61	; 0x3d
 8003bc8:	2102      	movs	r1, #2
 8003bca:	5499      	strb	r1, [r3, r2]

  /* Get the TIMx CR2 register value */
  tmpcr2 = htim->Instance->CR2;
 8003bcc:	687b      	ldr	r3, [r7, #4]
 8003bce:	681b      	ldr	r3, [r3, #0]
 8003bd0:	685b      	ldr	r3, [r3, #4]
 8003bd2:	60fb      	str	r3, [r7, #12]

  /* Get the TIMx SMCR register value */
  tmpsmcr = htim->Instance->SMCR;
 8003bd4:	687b      	ldr	r3, [r7, #4]
 8003bd6:	681b      	ldr	r3, [r3, #0]
 8003bd8:	689b      	ldr	r3, [r3, #8]
 8003bda:	60bb      	str	r3, [r7, #8]

  /* If the timer supports ADC synchronization through TRGO2, set the master mode selection 2 */
  if (IS_TIM_TRGO2_INSTANCE(htim->Instance))
 8003bdc:	687b      	ldr	r3, [r7, #4]
 8003bde:	681b      	ldr	r3, [r3, #0]
 8003be0:	4a26      	ldr	r2, [pc, #152]	; (8003c7c <HAL_TIMEx_MasterConfigSynchronization+0xd8>)
 8003be2:	4293      	cmp	r3, r2
 8003be4:	d108      	bne.n	8003bf8 <HAL_TIMEx_MasterConfigSynchronization+0x54>
  {
    /* Check the parameters */
    assert_param(IS_TIM_TRGO2_SOURCE(sMasterConfig->MasterOutputTrigger2));

    /* Clear the MMS2 bits */
    tmpcr2 &= ~TIM_CR2_MMS2;
 8003be6:	68fb      	ldr	r3, [r7, #12]
 8003be8:	4a25      	ldr	r2, [pc, #148]	; (8003c80 <HAL_TIMEx_MasterConfigSynchronization+0xdc>)
 8003bea:	4013      	ands	r3, r2
 8003bec:	60fb      	str	r3, [r7, #12]
    /* Select the TRGO2 source*/
    tmpcr2 |= sMasterConfig->MasterOutputTrigger2;
 8003bee:	683b      	ldr	r3, [r7, #0]
 8003bf0:	685b      	ldr	r3, [r3, #4]
 8003bf2:	68fa      	ldr	r2, [r7, #12]
 8003bf4:	4313      	orrs	r3, r2
 8003bf6:	60fb      	str	r3, [r7, #12]
  }

  /* Reset the MMS Bits */
  tmpcr2 &= ~TIM_CR2_MMS;
 8003bf8:	68fb      	ldr	r3, [r7, #12]
 8003bfa:	2270      	movs	r2, #112	; 0x70
 8003bfc:	4393      	bics	r3, r2
 8003bfe:	60fb      	str	r3, [r7, #12]
  /* Select the TRGO source */
  tmpcr2 |=  sMasterConfig->MasterOutputTrigger;
 8003c00:	683b      	ldr	r3, [r7, #0]
 8003c02:	681b      	ldr	r3, [r3, #0]
 8003c04:	68fa      	ldr	r2, [r7, #12]
 8003c06:	4313      	orrs	r3, r2
 8003c08:	60fb      	str	r3, [r7, #12]

  /* Update TIMx CR2 */
  htim->Instance->CR2 = tmpcr2;
 8003c0a:	687b      	ldr	r3, [r7, #4]
 8003c0c:	681b      	ldr	r3, [r3, #0]
 8003c0e:	68fa      	ldr	r2, [r7, #12]
 8003c10:	605a      	str	r2, [r3, #4]

  if (IS_TIM_SLAVE_INSTANCE(htim->Instance))
 8003c12:	687b      	ldr	r3, [r7, #4]
 8003c14:	681b      	ldr	r3, [r3, #0]
 8003c16:	4a19      	ldr	r2, [pc, #100]	; (8003c7c <HAL_TIMEx_MasterConfigSynchronization+0xd8>)
 8003c18:	4293      	cmp	r3, r2
 8003c1a:	d014      	beq.n	8003c46 <HAL_TIMEx_MasterConfigSynchronization+0xa2>
 8003c1c:	687b      	ldr	r3, [r7, #4]
 8003c1e:	681a      	ldr	r2, [r3, #0]
 8003c20:	2380      	movs	r3, #128	; 0x80
 8003c22:	05db      	lsls	r3, r3, #23
 8003c24:	429a      	cmp	r2, r3
 8003c26:	d00e      	beq.n	8003c46 <HAL_TIMEx_MasterConfigSynchronization+0xa2>
 8003c28:	687b      	ldr	r3, [r7, #4]
 8003c2a:	681b      	ldr	r3, [r3, #0]
 8003c2c:	4a15      	ldr	r2, [pc, #84]	; (8003c84 <HAL_TIMEx_MasterConfigSynchronization+0xe0>)
 8003c2e:	4293      	cmp	r3, r2
 8003c30:	d009      	beq.n	8003c46 <HAL_TIMEx_MasterConfigSynchronization+0xa2>
 8003c32:	687b      	ldr	r3, [r7, #4]
 8003c34:	681b      	ldr	r3, [r3, #0]
 8003c36:	4a14      	ldr	r2, [pc, #80]	; (8003c88 <HAL_TIMEx_MasterConfigSynchronization+0xe4>)
 8003c38:	4293      	cmp	r3, r2
 8003c3a:	d004      	beq.n	8003c46 <HAL_TIMEx_MasterConfigSynchronization+0xa2>
 8003c3c:	687b      	ldr	r3, [r7, #4]
 8003c3e:	681b      	ldr	r3, [r3, #0]
 8003c40:	4a12      	ldr	r2, [pc, #72]	; (8003c8c <HAL_TIMEx_MasterConfigSynchronization+0xe8>)
 8003c42:	4293      	cmp	r3, r2
 8003c44:	d10c      	bne.n	8003c60 <HAL_TIMEx_MasterConfigSynchronization+0xbc>
  {
    /* Reset the MSM Bit */
    tmpsmcr &= ~TIM_SMCR_MSM;
 8003c46:	68bb      	ldr	r3, [r7, #8]
 8003c48:	2280      	movs	r2, #128	; 0x80
 8003c4a:	4393      	bics	r3, r2
 8003c4c:	60bb      	str	r3, [r7, #8]
    /* Set master mode */
    tmpsmcr |= sMasterConfig->MasterSlaveMode;
 8003c4e:	683b      	ldr	r3, [r7, #0]
 8003c50:	689b      	ldr	r3, [r3, #8]
 8003c52:	68ba      	ldr	r2, [r7, #8]
 8003c54:	4313      	orrs	r3, r2
 8003c56:	60bb      	str	r3, [r7, #8]

    /* Update TIMx SMCR */
    htim->Instance->SMCR = tmpsmcr;
 8003c58:	687b      	ldr	r3, [r7, #4]
 8003c5a:	681b      	ldr	r3, [r3, #0]
 8003c5c:	68ba      	ldr	r2, [r7, #8]
 8003c5e:	609a      	str	r2, [r3, #8]
  }

  /* Change the htim state */
  htim->State = HAL_TIM_STATE_READY;
 8003c60:	687b      	ldr	r3, [r7, #4]
 8003c62:	223d      	movs	r2, #61	; 0x3d
 8003c64:	2101      	movs	r1, #1
 8003c66:	5499      	strb	r1, [r3, r2]

  __HAL_UNLOCK(htim);
 8003c68:	687b      	ldr	r3, [r7, #4]
 8003c6a:	223c      	movs	r2, #60	; 0x3c
 8003c6c:	2100      	movs	r1, #0
 8003c6e:	5499      	strb	r1, [r3, r2]

  return HAL_OK;
 8003c70:	2300      	movs	r3, #0
}
 8003c72:	0018      	movs	r0, r3
 8003c74:	46bd      	mov	sp, r7
 8003c76:	b004      	add	sp, #16
 8003c78:	bd80      	pop	{r7, pc}
 8003c7a:	46c0      	nop			; (mov r8, r8)
 8003c7c:	40012c00 	.word	0x40012c00
 8003c80:	ff0fffff 	.word	0xff0fffff
 8003c84:	40000400 	.word	0x40000400
 8003c88:	40000800 	.word	0x40000800
 8003c8c:	40014000 	.word	0x40014000

08003c90 <HAL_UART_Init>:
  *        parameters in the UART_InitTypeDef and initialize the associated handle.
  * @param huart UART handle.
  * @retval HAL status
  */
HAL_StatusTypeDef HAL_UART_Init(UART_HandleTypeDef *huart)
{
 8003c90:	b580      	push	{r7, lr}
 8003c92:	b082      	sub	sp, #8
 8003c94:	af00      	add	r7, sp, #0
 8003c96:	6078      	str	r0, [r7, #4]
  /* Check the UART handle allocation */
  if (huart == NULL)
 8003c98:	687b      	ldr	r3, [r7, #4]
 8003c9a:	2b00      	cmp	r3, #0
 8003c9c:	d101      	bne.n	8003ca2 <HAL_UART_Init+0x12>
  {
    return HAL_ERROR;
 8003c9e:	2301      	movs	r3, #1
 8003ca0:	e046      	b.n	8003d30 <HAL_UART_Init+0xa0>
  {
    /* Check the parameters */
    assert_param((IS_UART_INSTANCE(huart->Instance)) || (IS_LPUART_INSTANCE(huart->Instance)));
  }

  if (huart->gState == HAL_UART_STATE_RESET)
 8003ca2:	687b      	ldr	r3, [r7, #4]
 8003ca4:	2288      	movs	r2, #136	; 0x88
 8003ca6:	589b      	ldr	r3, [r3, r2]
 8003ca8:	2b00      	cmp	r3, #0
 8003caa:	d107      	bne.n	8003cbc <HAL_UART_Init+0x2c>
  {
    /* Allocate lock resource and initialize it */
    huart->Lock = HAL_UNLOCKED;
 8003cac:	687b      	ldr	r3, [r7, #4]
 8003cae:	2284      	movs	r2, #132	; 0x84
 8003cb0:	2100      	movs	r1, #0
 8003cb2:	5499      	strb	r1, [r3, r2]

    /* Init the low level hardware */
    huart->MspInitCallback(huart);
#else
    /* Init the low level hardware : GPIO, CLOCK */
    HAL_UART_MspInit(huart);
 8003cb4:	687b      	ldr	r3, [r7, #4]
 8003cb6:	0018      	movs	r0, r3
 8003cb8:	f7fd f84e 	bl	8000d58 <HAL_UART_MspInit>
#endif /* (USE_HAL_UART_REGISTER_CALLBACKS) */
  }

  huart->gState = HAL_UART_STATE_BUSY;
 8003cbc:	687b      	ldr	r3, [r7, #4]
 8003cbe:	2288      	movs	r2, #136	; 0x88
 8003cc0:	2124      	movs	r1, #36	; 0x24
 8003cc2:	5099      	str	r1, [r3, r2]

  __HAL_UART_DISABLE(huart);
 8003cc4:	687b      	ldr	r3, [r7, #4]
 8003cc6:	681b      	ldr	r3, [r3, #0]
 8003cc8:	681a      	ldr	r2, [r3, #0]
 8003cca:	687b      	ldr	r3, [r7, #4]
 8003ccc:	681b      	ldr	r3, [r3, #0]
 8003cce:	2101      	movs	r1, #1
 8003cd0:	438a      	bics	r2, r1
 8003cd2:	601a      	str	r2, [r3, #0]

  /* Set the UART Communication parameters */
  if (UART_SetConfig(huart) == HAL_ERROR)
 8003cd4:	687b      	ldr	r3, [r7, #4]
 8003cd6:	0018      	movs	r0, r3
 8003cd8:	f000 f830 	bl	8003d3c <UART_SetConfig>
 8003cdc:	0003      	movs	r3, r0
 8003cde:	2b01      	cmp	r3, #1
 8003ce0:	d101      	bne.n	8003ce6 <HAL_UART_Init+0x56>
  {
    return HAL_ERROR;
 8003ce2:	2301      	movs	r3, #1
 8003ce4:	e024      	b.n	8003d30 <HAL_UART_Init+0xa0>
  }

  if (huart->AdvancedInit.AdvFeatureInit != UART_ADVFEATURE_NO_INIT)
 8003ce6:	687b      	ldr	r3, [r7, #4]
 8003ce8:	6a9b      	ldr	r3, [r3, #40]	; 0x28
 8003cea:	2b00      	cmp	r3, #0
 8003cec:	d003      	beq.n	8003cf6 <HAL_UART_Init+0x66>
  {
    UART_AdvFeatureConfig(huart);
 8003cee:	687b      	ldr	r3, [r7, #4]
 8003cf0:	0018      	movs	r0, r3
 8003cf2:	f000 fb79 	bl	80043e8 <UART_AdvFeatureConfig>
  }

  /* In asynchronous mode, the following bits must be kept cleared:
  - LINEN and CLKEN bits in the USART_CR2 register,
  - SCEN, HDSEL and IREN  bits in the USART_CR3 register.*/
  CLEAR_BIT(huart->Instance->CR2, (USART_CR2_LINEN | USART_CR2_CLKEN));
 8003cf6:	687b      	ldr	r3, [r7, #4]
 8003cf8:	681b      	ldr	r3, [r3, #0]
 8003cfa:	685a      	ldr	r2, [r3, #4]
 8003cfc:	687b      	ldr	r3, [r7, #4]
 8003cfe:	681b      	ldr	r3, [r3, #0]
 8003d00:	490d      	ldr	r1, [pc, #52]	; (8003d38 <HAL_UART_Init+0xa8>)
 8003d02:	400a      	ands	r2, r1
 8003d04:	605a      	str	r2, [r3, #4]
  CLEAR_BIT(huart->Instance->CR3, (USART_CR3_SCEN | USART_CR3_HDSEL | USART_CR3_IREN));
 8003d06:	687b      	ldr	r3, [r7, #4]
 8003d08:	681b      	ldr	r3, [r3, #0]
 8003d0a:	689a      	ldr	r2, [r3, #8]
 8003d0c:	687b      	ldr	r3, [r7, #4]
 8003d0e:	681b      	ldr	r3, [r3, #0]
 8003d10:	212a      	movs	r1, #42	; 0x2a
 8003d12:	438a      	bics	r2, r1
 8003d14:	609a      	str	r2, [r3, #8]

  __HAL_UART_ENABLE(huart);
 8003d16:	687b      	ldr	r3, [r7, #4]
 8003d18:	681b      	ldr	r3, [r3, #0]
 8003d1a:	681a      	ldr	r2, [r3, #0]
 8003d1c:	687b      	ldr	r3, [r7, #4]
 8003d1e:	681b      	ldr	r3, [r3, #0]
 8003d20:	2101      	movs	r1, #1
 8003d22:	430a      	orrs	r2, r1
 8003d24:	601a      	str	r2, [r3, #0]

  /* TEACK and/or REACK to check before moving huart->gState and huart->RxState to Ready */
  return (UART_CheckIdleState(huart));
 8003d26:	687b      	ldr	r3, [r7, #4]
 8003d28:	0018      	movs	r0, r3
 8003d2a:	f000 fc11 	bl	8004550 <UART_CheckIdleState>
 8003d2e:	0003      	movs	r3, r0
}
 8003d30:	0018      	movs	r0, r3
 8003d32:	46bd      	mov	sp, r7
 8003d34:	b002      	add	sp, #8
 8003d36:	bd80      	pop	{r7, pc}
 8003d38:	ffffb7ff 	.word	0xffffb7ff

08003d3c <UART_SetConfig>:
  * @brief Configure the UART peripheral.
  * @param huart UART handle.
  * @retval HAL status
  */
HAL_StatusTypeDef UART_SetConfig(UART_HandleTypeDef *huart)
{
 8003d3c:	b5b0      	push	{r4, r5, r7, lr}
 8003d3e:	b090      	sub	sp, #64	; 0x40
 8003d40:	af00      	add	r7, sp, #0
 8003d42:	6278      	str	r0, [r7, #36]	; 0x24
  uint32_t tmpreg;
  uint16_t brrtemp;
  UART_ClockSourceTypeDef clocksource;
  uint32_t usartdiv;
  HAL_StatusTypeDef ret               = HAL_OK;
 8003d44:	231a      	movs	r3, #26
 8003d46:	2220      	movs	r2, #32
 8003d48:	189b      	adds	r3, r3, r2
 8003d4a:	19db      	adds	r3, r3, r7
 8003d4c:	2200      	movs	r2, #0
 8003d4e:	701a      	strb	r2, [r3, #0]
  *  the UART Word Length, Parity, Mode and oversampling:
  *  set the M bits according to huart->Init.WordLength value
  *  set PCE and PS bits according to huart->Init.Parity value
  *  set TE and RE bits according to huart->Init.Mode value
  *  set OVER8 bit according to huart->Init.OverSampling value */
  tmpreg = (uint32_t)huart->Init.WordLength | huart->Init.Parity | huart->Init.Mode | huart->Init.OverSampling ;
 8003d50:	6a7b      	ldr	r3, [r7, #36]	; 0x24
 8003d52:	689a      	ldr	r2, [r3, #8]
 8003d54:	6a7b      	ldr	r3, [r7, #36]	; 0x24
 8003d56:	691b      	ldr	r3, [r3, #16]
 8003d58:	431a      	orrs	r2, r3
 8003d5a:	6a7b      	ldr	r3, [r7, #36]	; 0x24
 8003d5c:	695b      	ldr	r3, [r3, #20]
 8003d5e:	431a      	orrs	r2, r3
 8003d60:	6a7b      	ldr	r3, [r7, #36]	; 0x24
 8003d62:	69db      	ldr	r3, [r3, #28]
 8003d64:	4313      	orrs	r3, r2
 8003d66:	63fb      	str	r3, [r7, #60]	; 0x3c
  MODIFY_REG(huart->Instance->CR1, USART_CR1_FIELDS, tmpreg);
 8003d68:	6a7b      	ldr	r3, [r7, #36]	; 0x24
 8003d6a:	681b      	ldr	r3, [r3, #0]
 8003d6c:	681b      	ldr	r3, [r3, #0]
 8003d6e:	4ac1      	ldr	r2, [pc, #772]	; (8004074 <UART_SetConfig+0x338>)
 8003d70:	4013      	ands	r3, r2
 8003d72:	0019      	movs	r1, r3
 8003d74:	6a7b      	ldr	r3, [r7, #36]	; 0x24
 8003d76:	681a      	ldr	r2, [r3, #0]
 8003d78:	6bfb      	ldr	r3, [r7, #60]	; 0x3c
 8003d7a:	430b      	orrs	r3, r1
 8003d7c:	6013      	str	r3, [r2, #0]

  /*-------------------------- USART CR2 Configuration -----------------------*/
  /* Configure the UART Stop Bits: Set STOP[13:12] bits according
  * to huart->Init.StopBits value */
  MODIFY_REG(huart->Instance->CR2, USART_CR2_STOP, huart->Init.StopBits);
 8003d7e:	6a7b      	ldr	r3, [r7, #36]	; 0x24
 8003d80:	681b      	ldr	r3, [r3, #0]
 8003d82:	685b      	ldr	r3, [r3, #4]
 8003d84:	4abc      	ldr	r2, [pc, #752]	; (8004078 <UART_SetConfig+0x33c>)
 8003d86:	4013      	ands	r3, r2
 8003d88:	0018      	movs	r0, r3
 8003d8a:	6a7b      	ldr	r3, [r7, #36]	; 0x24
 8003d8c:	68d9      	ldr	r1, [r3, #12]
 8003d8e:	6a7b      	ldr	r3, [r7, #36]	; 0x24
 8003d90:	681a      	ldr	r2, [r3, #0]
 8003d92:	0003      	movs	r3, r0
 8003d94:	430b      	orrs	r3, r1
 8003d96:	6053      	str	r3, [r2, #4]
  /* Configure
  * - UART HardWare Flow Control: set CTSE and RTSE bits according
  *   to huart->Init.HwFlowCtl value
  * - one-bit sampling method versus three samples' majority rule according
  *   to huart->Init.OneBitSampling (not applicable to LPUART) */
  tmpreg = (uint32_t)huart->Init.HwFlowCtl;
 8003d98:	6a7b      	ldr	r3, [r7, #36]	; 0x24
 8003d9a:	699b      	ldr	r3, [r3, #24]
 8003d9c:	63fb      	str	r3, [r7, #60]	; 0x3c

  if (!(UART_INSTANCE_LOWPOWER(huart)))
 8003d9e:	6a7b      	ldr	r3, [r7, #36]	; 0x24
 8003da0:	681b      	ldr	r3, [r3, #0]
 8003da2:	4ab6      	ldr	r2, [pc, #728]	; (800407c <UART_SetConfig+0x340>)
 8003da4:	4293      	cmp	r3, r2
 8003da6:	d009      	beq.n	8003dbc <UART_SetConfig+0x80>
 8003da8:	6a7b      	ldr	r3, [r7, #36]	; 0x24
 8003daa:	681b      	ldr	r3, [r3, #0]
 8003dac:	4ab4      	ldr	r2, [pc, #720]	; (8004080 <UART_SetConfig+0x344>)
 8003dae:	4293      	cmp	r3, r2
 8003db0:	d004      	beq.n	8003dbc <UART_SetConfig+0x80>
  {
    tmpreg |= huart->Init.OneBitSampling;
 8003db2:	6a7b      	ldr	r3, [r7, #36]	; 0x24
 8003db4:	6a1b      	ldr	r3, [r3, #32]
 8003db6:	6bfa      	ldr	r2, [r7, #60]	; 0x3c
 8003db8:	4313      	orrs	r3, r2
 8003dba:	63fb      	str	r3, [r7, #60]	; 0x3c
  }
  MODIFY_REG(huart->Instance->CR3, USART_CR3_FIELDS, tmpreg);
 8003dbc:	6a7b      	ldr	r3, [r7, #36]	; 0x24
 8003dbe:	681b      	ldr	r3, [r3, #0]
 8003dc0:	689b      	ldr	r3, [r3, #8]
 8003dc2:	4ab0      	ldr	r2, [pc, #704]	; (8004084 <UART_SetConfig+0x348>)
 8003dc4:	4013      	ands	r3, r2
 8003dc6:	0019      	movs	r1, r3
 8003dc8:	6a7b      	ldr	r3, [r7, #36]	; 0x24
 8003dca:	681a      	ldr	r2, [r3, #0]
 8003dcc:	6bfb      	ldr	r3, [r7, #60]	; 0x3c
 8003dce:	430b      	orrs	r3, r1
 8003dd0:	6093      	str	r3, [r2, #8]

  /*-------------------------- USART PRESC Configuration -----------------------*/
  /* Configure
  * - UART Clock Prescaler : set PRESCALER according to huart->Init.ClockPrescaler value */
  MODIFY_REG(huart->Instance->PRESC, USART_PRESC_PRESCALER, huart->Init.ClockPrescaler);
 8003dd2:	6a7b      	ldr	r3, [r7, #36]	; 0x24
 8003dd4:	681b      	ldr	r3, [r3, #0]
 8003dd6:	6adb      	ldr	r3, [r3, #44]	; 0x2c
 8003dd8:	220f      	movs	r2, #15
 8003dda:	4393      	bics	r3, r2
 8003ddc:	0018      	movs	r0, r3
 8003dde:	6a7b      	ldr	r3, [r7, #36]	; 0x24
 8003de0:	6a59      	ldr	r1, [r3, #36]	; 0x24
 8003de2:	6a7b      	ldr	r3, [r7, #36]	; 0x24
 8003de4:	681a      	ldr	r2, [r3, #0]
 8003de6:	0003      	movs	r3, r0
 8003de8:	430b      	orrs	r3, r1
 8003dea:	62d3      	str	r3, [r2, #44]	; 0x2c

  /*-------------------------- USART BRR Configuration -----------------------*/
  UART_GETCLOCKSOURCE(huart, clocksource);
 8003dec:	6a7b      	ldr	r3, [r7, #36]	; 0x24
 8003dee:	681b      	ldr	r3, [r3, #0]
 8003df0:	4aa5      	ldr	r2, [pc, #660]	; (8004088 <UART_SetConfig+0x34c>)
 8003df2:	4293      	cmp	r3, r2
 8003df4:	d131      	bne.n	8003e5a <UART_SetConfig+0x11e>
 8003df6:	4ba5      	ldr	r3, [pc, #660]	; (800408c <UART_SetConfig+0x350>)
 8003df8:	6d5b      	ldr	r3, [r3, #84]	; 0x54
 8003dfa:	2203      	movs	r2, #3
 8003dfc:	4013      	ands	r3, r2
 8003dfe:	2b03      	cmp	r3, #3
 8003e00:	d01d      	beq.n	8003e3e <UART_SetConfig+0x102>
 8003e02:	d823      	bhi.n	8003e4c <UART_SetConfig+0x110>
 8003e04:	2b02      	cmp	r3, #2
 8003e06:	d00c      	beq.n	8003e22 <UART_SetConfig+0xe6>
 8003e08:	d820      	bhi.n	8003e4c <UART_SetConfig+0x110>
 8003e0a:	2b00      	cmp	r3, #0
 8003e0c:	d002      	beq.n	8003e14 <UART_SetConfig+0xd8>
 8003e0e:	2b01      	cmp	r3, #1
 8003e10:	d00e      	beq.n	8003e30 <UART_SetConfig+0xf4>
 8003e12:	e01b      	b.n	8003e4c <UART_SetConfig+0x110>
 8003e14:	231b      	movs	r3, #27
 8003e16:	2220      	movs	r2, #32
 8003e18:	189b      	adds	r3, r3, r2
 8003e1a:	19db      	adds	r3, r3, r7
 8003e1c:	2200      	movs	r2, #0
 8003e1e:	701a      	strb	r2, [r3, #0]
 8003e20:	e154      	b.n	80040cc <UART_SetConfig+0x390>
 8003e22:	231b      	movs	r3, #27
 8003e24:	2220      	movs	r2, #32
 8003e26:	189b      	adds	r3, r3, r2
 8003e28:	19db      	adds	r3, r3, r7
 8003e2a:	2202      	movs	r2, #2
 8003e2c:	701a      	strb	r2, [r3, #0]
 8003e2e:	e14d      	b.n	80040cc <UART_SetConfig+0x390>
 8003e30:	231b      	movs	r3, #27
 8003e32:	2220      	movs	r2, #32
 8003e34:	189b      	adds	r3, r3, r2
 8003e36:	19db      	adds	r3, r3, r7
 8003e38:	2204      	movs	r2, #4
 8003e3a:	701a      	strb	r2, [r3, #0]
 8003e3c:	e146      	b.n	80040cc <UART_SetConfig+0x390>
 8003e3e:	231b      	movs	r3, #27
 8003e40:	2220      	movs	r2, #32
 8003e42:	189b      	adds	r3, r3, r2
 8003e44:	19db      	adds	r3, r3, r7
 8003e46:	2208      	movs	r2, #8
 8003e48:	701a      	strb	r2, [r3, #0]
 8003e4a:	e13f      	b.n	80040cc <UART_SetConfig+0x390>
 8003e4c:	231b      	movs	r3, #27
 8003e4e:	2220      	movs	r2, #32
 8003e50:	189b      	adds	r3, r3, r2
 8003e52:	19db      	adds	r3, r3, r7
 8003e54:	2210      	movs	r2, #16
 8003e56:	701a      	strb	r2, [r3, #0]
 8003e58:	e138      	b.n	80040cc <UART_SetConfig+0x390>
 8003e5a:	6a7b      	ldr	r3, [r7, #36]	; 0x24
 8003e5c:	681b      	ldr	r3, [r3, #0]
 8003e5e:	4a8c      	ldr	r2, [pc, #560]	; (8004090 <UART_SetConfig+0x354>)
 8003e60:	4293      	cmp	r3, r2
 8003e62:	d131      	bne.n	8003ec8 <UART_SetConfig+0x18c>
 8003e64:	4b89      	ldr	r3, [pc, #548]	; (800408c <UART_SetConfig+0x350>)
 8003e66:	6d5b      	ldr	r3, [r3, #84]	; 0x54
 8003e68:	220c      	movs	r2, #12
 8003e6a:	4013      	ands	r3, r2
 8003e6c:	2b0c      	cmp	r3, #12
 8003e6e:	d01d      	beq.n	8003eac <UART_SetConfig+0x170>
 8003e70:	d823      	bhi.n	8003eba <UART_SetConfig+0x17e>
 8003e72:	2b08      	cmp	r3, #8
 8003e74:	d00c      	beq.n	8003e90 <UART_SetConfig+0x154>
 8003e76:	d820      	bhi.n	8003eba <UART_SetConfig+0x17e>
 8003e78:	2b00      	cmp	r3, #0
 8003e7a:	d002      	beq.n	8003e82 <UART_SetConfig+0x146>
 8003e7c:	2b04      	cmp	r3, #4
 8003e7e:	d00e      	beq.n	8003e9e <UART_SetConfig+0x162>
 8003e80:	e01b      	b.n	8003eba <UART_SetConfig+0x17e>
 8003e82:	231b      	movs	r3, #27
 8003e84:	2220      	movs	r2, #32
 8003e86:	189b      	adds	r3, r3, r2
 8003e88:	19db      	adds	r3, r3, r7
 8003e8a:	2200      	movs	r2, #0
 8003e8c:	701a      	strb	r2, [r3, #0]
 8003e8e:	e11d      	b.n	80040cc <UART_SetConfig+0x390>
 8003e90:	231b      	movs	r3, #27
 8003e92:	2220      	movs	r2, #32
 8003e94:	189b      	adds	r3, r3, r2
 8003e96:	19db      	adds	r3, r3, r7
 8003e98:	2202      	movs	r2, #2
 8003e9a:	701a      	strb	r2, [r3, #0]
 8003e9c:	e116      	b.n	80040cc <UART_SetConfig+0x390>
 8003e9e:	231b      	movs	r3, #27
 8003ea0:	2220      	movs	r2, #32
 8003ea2:	189b      	adds	r3, r3, r2
 8003ea4:	19db      	adds	r3, r3, r7
 8003ea6:	2204      	movs	r2, #4
 8003ea8:	701a      	strb	r2, [r3, #0]
 8003eaa:	e10f      	b.n	80040cc <UART_SetConfig+0x390>
 8003eac:	231b      	movs	r3, #27
 8003eae:	2220      	movs	r2, #32
 8003eb0:	189b      	adds	r3, r3, r2
 8003eb2:	19db      	adds	r3, r3, r7
 8003eb4:	2208      	movs	r2, #8
 8003eb6:	701a      	strb	r2, [r3, #0]
 8003eb8:	e108      	b.n	80040cc <UART_SetConfig+0x390>
 8003eba:	231b      	movs	r3, #27
 8003ebc:	2220      	movs	r2, #32
 8003ebe:	189b      	adds	r3, r3, r2
 8003ec0:	19db      	adds	r3, r3, r7
 8003ec2:	2210      	movs	r2, #16
 8003ec4:	701a      	strb	r2, [r3, #0]
 8003ec6:	e101      	b.n	80040cc <UART_SetConfig+0x390>
 8003ec8:	6a7b      	ldr	r3, [r7, #36]	; 0x24
 8003eca:	681b      	ldr	r3, [r3, #0]
 8003ecc:	4a71      	ldr	r2, [pc, #452]	; (8004094 <UART_SetConfig+0x358>)
 8003ece:	4293      	cmp	r3, r2
 8003ed0:	d131      	bne.n	8003f36 <UART_SetConfig+0x1fa>
 8003ed2:	4b6e      	ldr	r3, [pc, #440]	; (800408c <UART_SetConfig+0x350>)
 8003ed4:	6d5b      	ldr	r3, [r3, #84]	; 0x54
 8003ed6:	2230      	movs	r2, #48	; 0x30
 8003ed8:	4013      	ands	r3, r2
 8003eda:	2b30      	cmp	r3, #48	; 0x30
 8003edc:	d01d      	beq.n	8003f1a <UART_SetConfig+0x1de>
 8003ede:	d823      	bhi.n	8003f28 <UART_SetConfig+0x1ec>
 8003ee0:	2b20      	cmp	r3, #32
 8003ee2:	d00c      	beq.n	8003efe <UART_SetConfig+0x1c2>
 8003ee4:	d820      	bhi.n	8003f28 <UART_SetConfig+0x1ec>
 8003ee6:	2b00      	cmp	r3, #0
 8003ee8:	d002      	beq.n	8003ef0 <UART_SetConfig+0x1b4>
 8003eea:	2b10      	cmp	r3, #16
 8003eec:	d00e      	beq.n	8003f0c <UART_SetConfig+0x1d0>
 8003eee:	e01b      	b.n	8003f28 <UART_SetConfig+0x1ec>
 8003ef0:	231b      	movs	r3, #27
 8003ef2:	2220      	movs	r2, #32
 8003ef4:	189b      	adds	r3, r3, r2
 8003ef6:	19db      	adds	r3, r3, r7
 8003ef8:	2200      	movs	r2, #0
 8003efa:	701a      	strb	r2, [r3, #0]
 8003efc:	e0e6      	b.n	80040cc <UART_SetConfig+0x390>
 8003efe:	231b      	movs	r3, #27
 8003f00:	2220      	movs	r2, #32
 8003f02:	189b      	adds	r3, r3, r2
 8003f04:	19db      	adds	r3, r3, r7
 8003f06:	2202      	movs	r2, #2
 8003f08:	701a      	strb	r2, [r3, #0]
 8003f0a:	e0df      	b.n	80040cc <UART_SetConfig+0x390>
 8003f0c:	231b      	movs	r3, #27
 8003f0e:	2220      	movs	r2, #32
 8003f10:	189b      	adds	r3, r3, r2
 8003f12:	19db      	adds	r3, r3, r7
 8003f14:	2204      	movs	r2, #4
 8003f16:	701a      	strb	r2, [r3, #0]
 8003f18:	e0d8      	b.n	80040cc <UART_SetConfig+0x390>
 8003f1a:	231b      	movs	r3, #27
 8003f1c:	2220      	movs	r2, #32
 8003f1e:	189b      	adds	r3, r3, r2
 8003f20:	19db      	adds	r3, r3, r7
 8003f22:	2208      	movs	r2, #8
 8003f24:	701a      	strb	r2, [r3, #0]
 8003f26:	e0d1      	b.n	80040cc <UART_SetConfig+0x390>
 8003f28:	231b      	movs	r3, #27
 8003f2a:	2220      	movs	r2, #32
 8003f2c:	189b      	adds	r3, r3, r2
 8003f2e:	19db      	adds	r3, r3, r7
 8003f30:	2210      	movs	r2, #16
 8003f32:	701a      	strb	r2, [r3, #0]
 8003f34:	e0ca      	b.n	80040cc <UART_SetConfig+0x390>
 8003f36:	6a7b      	ldr	r3, [r7, #36]	; 0x24
 8003f38:	681b      	ldr	r3, [r3, #0]
 8003f3a:	4a57      	ldr	r2, [pc, #348]	; (8004098 <UART_SetConfig+0x35c>)
 8003f3c:	4293      	cmp	r3, r2
 8003f3e:	d106      	bne.n	8003f4e <UART_SetConfig+0x212>
 8003f40:	231b      	movs	r3, #27
 8003f42:	2220      	movs	r2, #32
 8003f44:	189b      	adds	r3, r3, r2
 8003f46:	19db      	adds	r3, r3, r7
 8003f48:	2200      	movs	r2, #0
 8003f4a:	701a      	strb	r2, [r3, #0]
 8003f4c:	e0be      	b.n	80040cc <UART_SetConfig+0x390>
 8003f4e:	6a7b      	ldr	r3, [r7, #36]	; 0x24
 8003f50:	681b      	ldr	r3, [r3, #0]
 8003f52:	4a52      	ldr	r2, [pc, #328]	; (800409c <UART_SetConfig+0x360>)
 8003f54:	4293      	cmp	r3, r2
 8003f56:	d106      	bne.n	8003f66 <UART_SetConfig+0x22a>
 8003f58:	231b      	movs	r3, #27
 8003f5a:	2220      	movs	r2, #32
 8003f5c:	189b      	adds	r3, r3, r2
 8003f5e:	19db      	adds	r3, r3, r7
 8003f60:	2200      	movs	r2, #0
 8003f62:	701a      	strb	r2, [r3, #0]
 8003f64:	e0b2      	b.n	80040cc <UART_SetConfig+0x390>
 8003f66:	6a7b      	ldr	r3, [r7, #36]	; 0x24
 8003f68:	681b      	ldr	r3, [r3, #0]
 8003f6a:	4a4d      	ldr	r2, [pc, #308]	; (80040a0 <UART_SetConfig+0x364>)
 8003f6c:	4293      	cmp	r3, r2
 8003f6e:	d106      	bne.n	8003f7e <UART_SetConfig+0x242>
 8003f70:	231b      	movs	r3, #27
 8003f72:	2220      	movs	r2, #32
 8003f74:	189b      	adds	r3, r3, r2
 8003f76:	19db      	adds	r3, r3, r7
 8003f78:	2200      	movs	r2, #0
 8003f7a:	701a      	strb	r2, [r3, #0]
 8003f7c:	e0a6      	b.n	80040cc <UART_SetConfig+0x390>
 8003f7e:	6a7b      	ldr	r3, [r7, #36]	; 0x24
 8003f80:	681b      	ldr	r3, [r3, #0]
 8003f82:	4a3e      	ldr	r2, [pc, #248]	; (800407c <UART_SetConfig+0x340>)
 8003f84:	4293      	cmp	r3, r2
 8003f86:	d13e      	bne.n	8004006 <UART_SetConfig+0x2ca>
 8003f88:	4b40      	ldr	r3, [pc, #256]	; (800408c <UART_SetConfig+0x350>)
 8003f8a:	6d5a      	ldr	r2, [r3, #84]	; 0x54
 8003f8c:	23c0      	movs	r3, #192	; 0xc0
 8003f8e:	011b      	lsls	r3, r3, #4
 8003f90:	4013      	ands	r3, r2
 8003f92:	22c0      	movs	r2, #192	; 0xc0
 8003f94:	0112      	lsls	r2, r2, #4
 8003f96:	4293      	cmp	r3, r2
 8003f98:	d027      	beq.n	8003fea <UART_SetConfig+0x2ae>
 8003f9a:	22c0      	movs	r2, #192	; 0xc0
 8003f9c:	0112      	lsls	r2, r2, #4
 8003f9e:	4293      	cmp	r3, r2
 8003fa0:	d82a      	bhi.n	8003ff8 <UART_SetConfig+0x2bc>
 8003fa2:	2280      	movs	r2, #128	; 0x80
 8003fa4:	0112      	lsls	r2, r2, #4
 8003fa6:	4293      	cmp	r3, r2
 8003fa8:	d011      	beq.n	8003fce <UART_SetConfig+0x292>
 8003faa:	2280      	movs	r2, #128	; 0x80
 8003fac:	0112      	lsls	r2, r2, #4
 8003fae:	4293      	cmp	r3, r2
 8003fb0:	d822      	bhi.n	8003ff8 <UART_SetConfig+0x2bc>
 8003fb2:	2b00      	cmp	r3, #0
 8003fb4:	d004      	beq.n	8003fc0 <UART_SetConfig+0x284>
 8003fb6:	2280      	movs	r2, #128	; 0x80
 8003fb8:	00d2      	lsls	r2, r2, #3
 8003fba:	4293      	cmp	r3, r2
 8003fbc:	d00e      	beq.n	8003fdc <UART_SetConfig+0x2a0>
 8003fbe:	e01b      	b.n	8003ff8 <UART_SetConfig+0x2bc>
 8003fc0:	231b      	movs	r3, #27
 8003fc2:	2220      	movs	r2, #32
 8003fc4:	189b      	adds	r3, r3, r2
 8003fc6:	19db      	adds	r3, r3, r7
 8003fc8:	2200      	movs	r2, #0
 8003fca:	701a      	strb	r2, [r3, #0]
 8003fcc:	e07e      	b.n	80040cc <UART_SetConfig+0x390>
 8003fce:	231b      	movs	r3, #27
 8003fd0:	2220      	movs	r2, #32
 8003fd2:	189b      	adds	r3, r3, r2
 8003fd4:	19db      	adds	r3, r3, r7
 8003fd6:	2202      	movs	r2, #2
 8003fd8:	701a      	strb	r2, [r3, #0]
 8003fda:	e077      	b.n	80040cc <UART_SetConfig+0x390>
 8003fdc:	231b      	movs	r3, #27
 8003fde:	2220      	movs	r2, #32
 8003fe0:	189b      	adds	r3, r3, r2
 8003fe2:	19db      	adds	r3, r3, r7
 8003fe4:	2204      	movs	r2, #4
 8003fe6:	701a      	strb	r2, [r3, #0]
 8003fe8:	e070      	b.n	80040cc <UART_SetConfig+0x390>
 8003fea:	231b      	movs	r3, #27
 8003fec:	2220      	movs	r2, #32
 8003fee:	189b      	adds	r3, r3, r2
 8003ff0:	19db      	adds	r3, r3, r7
 8003ff2:	2208      	movs	r2, #8
 8003ff4:	701a      	strb	r2, [r3, #0]
 8003ff6:	e069      	b.n	80040cc <UART_SetConfig+0x390>
 8003ff8:	231b      	movs	r3, #27
 8003ffa:	2220      	movs	r2, #32
 8003ffc:	189b      	adds	r3, r3, r2
 8003ffe:	19db      	adds	r3, r3, r7
 8004000:	2210      	movs	r2, #16
 8004002:	701a      	strb	r2, [r3, #0]
 8004004:	e062      	b.n	80040cc <UART_SetConfig+0x390>
 8004006:	6a7b      	ldr	r3, [r7, #36]	; 0x24
 8004008:	681b      	ldr	r3, [r3, #0]
 800400a:	4a1d      	ldr	r2, [pc, #116]	; (8004080 <UART_SetConfig+0x344>)
 800400c:	4293      	cmp	r3, r2
 800400e:	d157      	bne.n	80040c0 <UART_SetConfig+0x384>
 8004010:	4b1e      	ldr	r3, [pc, #120]	; (800408c <UART_SetConfig+0x350>)
 8004012:	6d5a      	ldr	r2, [r3, #84]	; 0x54
 8004014:	23c0      	movs	r3, #192	; 0xc0
 8004016:	009b      	lsls	r3, r3, #2
 8004018:	4013      	ands	r3, r2
 800401a:	22c0      	movs	r2, #192	; 0xc0
 800401c:	0092      	lsls	r2, r2, #2
 800401e:	4293      	cmp	r3, r2
 8004020:	d040      	beq.n	80040a4 <UART_SetConfig+0x368>
 8004022:	22c0      	movs	r2, #192	; 0xc0
 8004024:	0092      	lsls	r2, r2, #2
 8004026:	4293      	cmp	r3, r2
 8004028:	d843      	bhi.n	80040b2 <UART_SetConfig+0x376>
 800402a:	2280      	movs	r2, #128	; 0x80
 800402c:	0092      	lsls	r2, r2, #2
 800402e:	4293      	cmp	r3, r2
 8004030:	d011      	beq.n	8004056 <UART_SetConfig+0x31a>
 8004032:	2280      	movs	r2, #128	; 0x80
 8004034:	0092      	lsls	r2, r2, #2
 8004036:	4293      	cmp	r3, r2
 8004038:	d83b      	bhi.n	80040b2 <UART_SetConfig+0x376>
 800403a:	2b00      	cmp	r3, #0
 800403c:	d004      	beq.n	8004048 <UART_SetConfig+0x30c>
 800403e:	2280      	movs	r2, #128	; 0x80
 8004040:	0052      	lsls	r2, r2, #1
 8004042:	4293      	cmp	r3, r2
 8004044:	d00e      	beq.n	8004064 <UART_SetConfig+0x328>
 8004046:	e034      	b.n	80040b2 <UART_SetConfig+0x376>
 8004048:	231b      	movs	r3, #27
 800404a:	2220      	movs	r2, #32
 800404c:	189b      	adds	r3, r3, r2
 800404e:	19db      	adds	r3, r3, r7
 8004050:	2200      	movs	r2, #0
 8004052:	701a      	strb	r2, [r3, #0]
 8004054:	e03a      	b.n	80040cc <UART_SetConfig+0x390>
 8004056:	231b      	movs	r3, #27
 8004058:	2220      	movs	r2, #32
 800405a:	189b      	adds	r3, r3, r2
 800405c:	19db      	adds	r3, r3, r7
 800405e:	2202      	movs	r2, #2
 8004060:	701a      	strb	r2, [r3, #0]
 8004062:	e033      	b.n	80040cc <UART_SetConfig+0x390>
 8004064:	231b      	movs	r3, #27
 8004066:	2220      	movs	r2, #32
 8004068:	189b      	adds	r3, r3, r2
 800406a:	19db      	adds	r3, r3, r7
 800406c:	2204      	movs	r2, #4
 800406e:	701a      	strb	r2, [r3, #0]
 8004070:	e02c      	b.n	80040cc <UART_SetConfig+0x390>
 8004072:	46c0      	nop			; (mov r8, r8)
 8004074:	cfff69f3 	.word	0xcfff69f3
 8004078:	ffffcfff 	.word	0xffffcfff
 800407c:	40008000 	.word	0x40008000
 8004080:	40008400 	.word	0x40008400
 8004084:	11fff4ff 	.word	0x11fff4ff
 8004088:	40013800 	.word	0x40013800
 800408c:	40021000 	.word	0x40021000
 8004090:	40004400 	.word	0x40004400
 8004094:	40004800 	.word	0x40004800
 8004098:	40004c00 	.word	0x40004c00
 800409c:	40005000 	.word	0x40005000
 80040a0:	40013c00 	.word	0x40013c00
 80040a4:	231b      	movs	r3, #27
 80040a6:	2220      	movs	r2, #32
 80040a8:	189b      	adds	r3, r3, r2
 80040aa:	19db      	adds	r3, r3, r7
 80040ac:	2208      	movs	r2, #8
 80040ae:	701a      	strb	r2, [r3, #0]
 80040b0:	e00c      	b.n	80040cc <UART_SetConfig+0x390>
 80040b2:	231b      	movs	r3, #27
 80040b4:	2220      	movs	r2, #32
 80040b6:	189b      	adds	r3, r3, r2
 80040b8:	19db      	adds	r3, r3, r7
 80040ba:	2210      	movs	r2, #16
 80040bc:	701a      	strb	r2, [r3, #0]
 80040be:	e005      	b.n	80040cc <UART_SetConfig+0x390>
 80040c0:	231b      	movs	r3, #27
 80040c2:	2220      	movs	r2, #32
 80040c4:	189b      	adds	r3, r3, r2
 80040c6:	19db      	adds	r3, r3, r7
 80040c8:	2210      	movs	r2, #16
 80040ca:	701a      	strb	r2, [r3, #0]

  /* Check LPUART instance */
  if (UART_INSTANCE_LOWPOWER(huart))
 80040cc:	6a7b      	ldr	r3, [r7, #36]	; 0x24
 80040ce:	681b      	ldr	r3, [r3, #0]
 80040d0:	4ac1      	ldr	r2, [pc, #772]	; (80043d8 <UART_SetConfig+0x69c>)
 80040d2:	4293      	cmp	r3, r2
 80040d4:	d005      	beq.n	80040e2 <UART_SetConfig+0x3a6>
 80040d6:	6a7b      	ldr	r3, [r7, #36]	; 0x24
 80040d8:	681b      	ldr	r3, [r3, #0]
 80040da:	4ac0      	ldr	r2, [pc, #768]	; (80043dc <UART_SetConfig+0x6a0>)
 80040dc:	4293      	cmp	r3, r2
 80040de:	d000      	beq.n	80040e2 <UART_SetConfig+0x3a6>
 80040e0:	e093      	b.n	800420a <UART_SetConfig+0x4ce>
  {
    /* Retrieve frequency clock */
    switch (clocksource)
 80040e2:	231b      	movs	r3, #27
 80040e4:	2220      	movs	r2, #32
 80040e6:	189b      	adds	r3, r3, r2
 80040e8:	19db      	adds	r3, r3, r7
 80040ea:	781b      	ldrb	r3, [r3, #0]
 80040ec:	2b08      	cmp	r3, #8
 80040ee:	d015      	beq.n	800411c <UART_SetConfig+0x3e0>
 80040f0:	dc18      	bgt.n	8004124 <UART_SetConfig+0x3e8>
 80040f2:	2b04      	cmp	r3, #4
 80040f4:	d00d      	beq.n	8004112 <UART_SetConfig+0x3d6>
 80040f6:	dc15      	bgt.n	8004124 <UART_SetConfig+0x3e8>
 80040f8:	2b00      	cmp	r3, #0
 80040fa:	d002      	beq.n	8004102 <UART_SetConfig+0x3c6>
 80040fc:	2b02      	cmp	r3, #2
 80040fe:	d005      	beq.n	800410c <UART_SetConfig+0x3d0>
 8004100:	e010      	b.n	8004124 <UART_SetConfig+0x3e8>
    {
      case UART_CLOCKSOURCE_PCLK1:
        pclk = HAL_RCC_GetPCLK1Freq();
 8004102:	f7ff f8a9 	bl	8003258 <HAL_RCC_GetPCLK1Freq>
 8004106:	0003      	movs	r3, r0
 8004108:	637b      	str	r3, [r7, #52]	; 0x34
        break;
 800410a:	e014      	b.n	8004136 <UART_SetConfig+0x3fa>
      case UART_CLOCKSOURCE_HSI:
        pclk = (uint32_t) HSI_VALUE;
 800410c:	4bb4      	ldr	r3, [pc, #720]	; (80043e0 <UART_SetConfig+0x6a4>)
 800410e:	637b      	str	r3, [r7, #52]	; 0x34
        break;
 8004110:	e011      	b.n	8004136 <UART_SetConfig+0x3fa>
      case UART_CLOCKSOURCE_SYSCLK:
        pclk = HAL_RCC_GetSysClockFreq();
 8004112:	f7ff f815 	bl	8003140 <HAL_RCC_GetSysClockFreq>
 8004116:	0003      	movs	r3, r0
 8004118:	637b      	str	r3, [r7, #52]	; 0x34
        break;
 800411a:	e00c      	b.n	8004136 <UART_SetConfig+0x3fa>
      case UART_CLOCKSOURCE_LSE:
        pclk = (uint32_t) LSE_VALUE;
 800411c:	2380      	movs	r3, #128	; 0x80
 800411e:	021b      	lsls	r3, r3, #8
 8004120:	637b      	str	r3, [r7, #52]	; 0x34
        break;
 8004122:	e008      	b.n	8004136 <UART_SetConfig+0x3fa>
      default:
        pclk = 0U;
 8004124:	2300      	movs	r3, #0
 8004126:	637b      	str	r3, [r7, #52]	; 0x34
        ret = HAL_ERROR;
 8004128:	231a      	movs	r3, #26
 800412a:	2220      	movs	r2, #32
 800412c:	189b      	adds	r3, r3, r2
 800412e:	19db      	adds	r3, r3, r7
 8004130:	2201      	movs	r2, #1
 8004132:	701a      	strb	r2, [r3, #0]
        break;
 8004134:	46c0      	nop			; (mov r8, r8)
    }

    /* If proper clock source reported */
    if (pclk != 0U)
 8004136:	6b7b      	ldr	r3, [r7, #52]	; 0x34
 8004138:	2b00      	cmp	r3, #0
 800413a:	d100      	bne.n	800413e <UART_SetConfig+0x402>
 800413c:	e135      	b.n	80043aa <UART_SetConfig+0x66e>
    {
      /* Compute clock after Prescaler */
      lpuart_ker_ck_pres = (pclk / UARTPrescTable[huart->Init.ClockPrescaler]);
 800413e:	6a7b      	ldr	r3, [r7, #36]	; 0x24
 8004140:	6a5a      	ldr	r2, [r3, #36]	; 0x24
 8004142:	4ba8      	ldr	r3, [pc, #672]	; (80043e4 <UART_SetConfig+0x6a8>)
 8004144:	0052      	lsls	r2, r2, #1
 8004146:	5ad3      	ldrh	r3, [r2, r3]
 8004148:	0019      	movs	r1, r3
 800414a:	6b78      	ldr	r0, [r7, #52]	; 0x34
 800414c:	f7fb ffda 	bl	8000104 <__udivsi3>
 8004150:	0003      	movs	r3, r0
 8004152:	62bb      	str	r3, [r7, #40]	; 0x28

      /* Ensure that Frequency clock is in the range [3 * baudrate, 4096 * baudrate] */
      if ((lpuart_ker_ck_pres < (3U * huart->Init.BaudRate)) ||
 8004154:	6a7b      	ldr	r3, [r7, #36]	; 0x24
 8004156:	685a      	ldr	r2, [r3, #4]
 8004158:	0013      	movs	r3, r2
 800415a:	005b      	lsls	r3, r3, #1
 800415c:	189b      	adds	r3, r3, r2
 800415e:	6aba      	ldr	r2, [r7, #40]	; 0x28
 8004160:	429a      	cmp	r2, r3
 8004162:	d305      	bcc.n	8004170 <UART_SetConfig+0x434>
          (lpuart_ker_ck_pres > (4096U * huart->Init.BaudRate)))
 8004164:	6a7b      	ldr	r3, [r7, #36]	; 0x24
 8004166:	685b      	ldr	r3, [r3, #4]
 8004168:	031b      	lsls	r3, r3, #12
      if ((lpuart_ker_ck_pres < (3U * huart->Init.BaudRate)) ||
 800416a:	6aba      	ldr	r2, [r7, #40]	; 0x28
 800416c:	429a      	cmp	r2, r3
 800416e:	d906      	bls.n	800417e <UART_SetConfig+0x442>
      {
        ret = HAL_ERROR;
 8004170:	231a      	movs	r3, #26
 8004172:	2220      	movs	r2, #32
 8004174:	189b      	adds	r3, r3, r2
 8004176:	19db      	adds	r3, r3, r7
 8004178:	2201      	movs	r2, #1
 800417a:	701a      	strb	r2, [r3, #0]
 800417c:	e044      	b.n	8004208 <UART_SetConfig+0x4cc>
      }
      else
      {
        /* Check computed UsartDiv value is in allocated range
           (it is forbidden to write values lower than 0x300 in the LPUART_BRR register) */
        usartdiv = (uint32_t)(UART_DIV_LPUART(pclk, huart->Init.BaudRate, huart->Init.ClockPrescaler));
 800417e:	6b7b      	ldr	r3, [r7, #52]	; 0x34
 8004180:	61bb      	str	r3, [r7, #24]
 8004182:	2300      	movs	r3, #0
 8004184:	61fb      	str	r3, [r7, #28]
 8004186:	6a7b      	ldr	r3, [r7, #36]	; 0x24
 8004188:	6a5a      	ldr	r2, [r3, #36]	; 0x24
 800418a:	4b96      	ldr	r3, [pc, #600]	; (80043e4 <UART_SetConfig+0x6a8>)
 800418c:	0052      	lsls	r2, r2, #1
 800418e:	5ad3      	ldrh	r3, [r2, r3]
 8004190:	613b      	str	r3, [r7, #16]
 8004192:	2300      	movs	r3, #0
 8004194:	617b      	str	r3, [r7, #20]
 8004196:	693a      	ldr	r2, [r7, #16]
 8004198:	697b      	ldr	r3, [r7, #20]
 800419a:	69b8      	ldr	r0, [r7, #24]
 800419c:	69f9      	ldr	r1, [r7, #28]
 800419e:	f7fc f927 	bl	80003f0 <__aeabi_uldivmod>
 80041a2:	0002      	movs	r2, r0
 80041a4:	000b      	movs	r3, r1
 80041a6:	0e11      	lsrs	r1, r2, #24
 80041a8:	021d      	lsls	r5, r3, #8
 80041aa:	430d      	orrs	r5, r1
 80041ac:	0214      	lsls	r4, r2, #8
 80041ae:	6a7b      	ldr	r3, [r7, #36]	; 0x24
 80041b0:	685b      	ldr	r3, [r3, #4]
 80041b2:	085b      	lsrs	r3, r3, #1
 80041b4:	60bb      	str	r3, [r7, #8]
 80041b6:	2300      	movs	r3, #0
 80041b8:	60fb      	str	r3, [r7, #12]
 80041ba:	68b8      	ldr	r0, [r7, #8]
 80041bc:	68f9      	ldr	r1, [r7, #12]
 80041be:	1900      	adds	r0, r0, r4
 80041c0:	4169      	adcs	r1, r5
 80041c2:	6a7b      	ldr	r3, [r7, #36]	; 0x24
 80041c4:	685b      	ldr	r3, [r3, #4]
 80041c6:	603b      	str	r3, [r7, #0]
 80041c8:	2300      	movs	r3, #0
 80041ca:	607b      	str	r3, [r7, #4]
 80041cc:	683a      	ldr	r2, [r7, #0]
 80041ce:	687b      	ldr	r3, [r7, #4]
 80041d0:	f7fc f90e 	bl	80003f0 <__aeabi_uldivmod>
 80041d4:	0002      	movs	r2, r0
 80041d6:	000b      	movs	r3, r1
 80041d8:	0013      	movs	r3, r2
 80041da:	633b      	str	r3, [r7, #48]	; 0x30
        if ((usartdiv >= LPUART_BRR_MIN) && (usartdiv <= LPUART_BRR_MAX))
 80041dc:	6b3a      	ldr	r2, [r7, #48]	; 0x30
 80041de:	23c0      	movs	r3, #192	; 0xc0
 80041e0:	009b      	lsls	r3, r3, #2
 80041e2:	429a      	cmp	r2, r3
 80041e4:	d309      	bcc.n	80041fa <UART_SetConfig+0x4be>
 80041e6:	6b3a      	ldr	r2, [r7, #48]	; 0x30
 80041e8:	2380      	movs	r3, #128	; 0x80
 80041ea:	035b      	lsls	r3, r3, #13
 80041ec:	429a      	cmp	r2, r3
 80041ee:	d204      	bcs.n	80041fa <UART_SetConfig+0x4be>
        {
          huart->Instance->BRR = usartdiv;
 80041f0:	6a7b      	ldr	r3, [r7, #36]	; 0x24
 80041f2:	681b      	ldr	r3, [r3, #0]
 80041f4:	6b3a      	ldr	r2, [r7, #48]	; 0x30
 80041f6:	60da      	str	r2, [r3, #12]
 80041f8:	e006      	b.n	8004208 <UART_SetConfig+0x4cc>
        }
        else
        {
          ret = HAL_ERROR;
 80041fa:	231a      	movs	r3, #26
 80041fc:	2220      	movs	r2, #32
 80041fe:	189b      	adds	r3, r3, r2
 8004200:	19db      	adds	r3, r3, r7
 8004202:	2201      	movs	r2, #1
 8004204:	701a      	strb	r2, [r3, #0]
    if (pclk != 0U)
 8004206:	e0d0      	b.n	80043aa <UART_SetConfig+0x66e>
 8004208:	e0cf      	b.n	80043aa <UART_SetConfig+0x66e>
      } /* if ( (lpuart_ker_ck_pres < (3 * huart->Init.BaudRate) ) ||
                (lpuart_ker_ck_pres > (4096 * huart->Init.BaudRate) )) */
    } /* if (pclk != 0) */
  }
  /* Check UART Over Sampling to set Baud Rate Register */
  else if (huart->Init.OverSampling == UART_OVERSAMPLING_8)
 800420a:	6a7b      	ldr	r3, [r7, #36]	; 0x24
 800420c:	69da      	ldr	r2, [r3, #28]
 800420e:	2380      	movs	r3, #128	; 0x80
 8004210:	021b      	lsls	r3, r3, #8
 8004212:	429a      	cmp	r2, r3
 8004214:	d000      	beq.n	8004218 <UART_SetConfig+0x4dc>
 8004216:	e070      	b.n	80042fa <UART_SetConfig+0x5be>
  {
    switch (clocksource)
 8004218:	231b      	movs	r3, #27
 800421a:	2220      	movs	r2, #32
 800421c:	189b      	adds	r3, r3, r2
 800421e:	19db      	adds	r3, r3, r7
 8004220:	781b      	ldrb	r3, [r3, #0]
 8004222:	2b08      	cmp	r3, #8
 8004224:	d015      	beq.n	8004252 <UART_SetConfig+0x516>
 8004226:	dc18      	bgt.n	800425a <UART_SetConfig+0x51e>
 8004228:	2b04      	cmp	r3, #4
 800422a:	d00d      	beq.n	8004248 <UART_SetConfig+0x50c>
 800422c:	dc15      	bgt.n	800425a <UART_SetConfig+0x51e>
 800422e:	2b00      	cmp	r3, #0
 8004230:	d002      	beq.n	8004238 <UART_SetConfig+0x4fc>
 8004232:	2b02      	cmp	r3, #2
 8004234:	d005      	beq.n	8004242 <UART_SetConfig+0x506>
 8004236:	e010      	b.n	800425a <UART_SetConfig+0x51e>
    {
      case UART_CLOCKSOURCE_PCLK1:
        pclk = HAL_RCC_GetPCLK1Freq();
 8004238:	f7ff f80e 	bl	8003258 <HAL_RCC_GetPCLK1Freq>
 800423c:	0003      	movs	r3, r0
 800423e:	637b      	str	r3, [r7, #52]	; 0x34
        break;
 8004240:	e014      	b.n	800426c <UART_SetConfig+0x530>
      case UART_CLOCKSOURCE_HSI:
        pclk = (uint32_t) HSI_VALUE;
 8004242:	4b67      	ldr	r3, [pc, #412]	; (80043e0 <UART_SetConfig+0x6a4>)
 8004244:	637b      	str	r3, [r7, #52]	; 0x34
        break;
 8004246:	e011      	b.n	800426c <UART_SetConfig+0x530>
      case UART_CLOCKSOURCE_SYSCLK:
        pclk = HAL_RCC_GetSysClockFreq();
 8004248:	f7fe ff7a 	bl	8003140 <HAL_RCC_GetSysClockFreq>
 800424c:	0003      	movs	r3, r0
 800424e:	637b      	str	r3, [r7, #52]	; 0x34
        break;
 8004250:	e00c      	b.n	800426c <UART_SetConfig+0x530>
      case UART_CLOCKSOURCE_LSE:
        pclk = (uint32_t) LSE_VALUE;
 8004252:	2380      	movs	r3, #128	; 0x80
 8004254:	021b      	lsls	r3, r3, #8
 8004256:	637b      	str	r3, [r7, #52]	; 0x34
        break;
 8004258:	e008      	b.n	800426c <UART_SetConfig+0x530>
      default:
        pclk = 0U;
 800425a:	2300      	movs	r3, #0
 800425c:	637b      	str	r3, [r7, #52]	; 0x34
        ret = HAL_ERROR;
 800425e:	231a      	movs	r3, #26
 8004260:	2220      	movs	r2, #32
 8004262:	189b      	adds	r3, r3, r2
 8004264:	19db      	adds	r3, r3, r7
 8004266:	2201      	movs	r2, #1
 8004268:	701a      	strb	r2, [r3, #0]
        break;
 800426a:	46c0      	nop			; (mov r8, r8)
    }

    /* USARTDIV must be greater than or equal to 0d16 */
    if (pclk != 0U)
 800426c:	6b7b      	ldr	r3, [r7, #52]	; 0x34
 800426e:	2b00      	cmp	r3, #0
 8004270:	d100      	bne.n	8004274 <UART_SetConfig+0x538>
 8004272:	e09a      	b.n	80043aa <UART_SetConfig+0x66e>
    {
      usartdiv = (uint32_t)(UART_DIV_SAMPLING8(pclk, huart->Init.BaudRate, huart->Init.ClockPrescaler));
 8004274:	6a7b      	ldr	r3, [r7, #36]	; 0x24
 8004276:	6a5a      	ldr	r2, [r3, #36]	; 0x24
 8004278:	4b5a      	ldr	r3, [pc, #360]	; (80043e4 <UART_SetConfig+0x6a8>)
 800427a:	0052      	lsls	r2, r2, #1
 800427c:	5ad3      	ldrh	r3, [r2, r3]
 800427e:	0019      	movs	r1, r3
 8004280:	6b78      	ldr	r0, [r7, #52]	; 0x34
 8004282:	f7fb ff3f 	bl	8000104 <__udivsi3>
 8004286:	0003      	movs	r3, r0
 8004288:	005a      	lsls	r2, r3, #1
 800428a:	6a7b      	ldr	r3, [r7, #36]	; 0x24
 800428c:	685b      	ldr	r3, [r3, #4]
 800428e:	085b      	lsrs	r3, r3, #1
 8004290:	18d2      	adds	r2, r2, r3
 8004292:	6a7b      	ldr	r3, [r7, #36]	; 0x24
 8004294:	685b      	ldr	r3, [r3, #4]
 8004296:	0019      	movs	r1, r3
 8004298:	0010      	movs	r0, r2
 800429a:	f7fb ff33 	bl	8000104 <__udivsi3>
 800429e:	0003      	movs	r3, r0
 80042a0:	633b      	str	r3, [r7, #48]	; 0x30
      if ((usartdiv >= UART_BRR_MIN) && (usartdiv <= UART_BRR_MAX))
 80042a2:	6b3b      	ldr	r3, [r7, #48]	; 0x30
 80042a4:	2b0f      	cmp	r3, #15
 80042a6:	d921      	bls.n	80042ec <UART_SetConfig+0x5b0>
 80042a8:	6b3a      	ldr	r2, [r7, #48]	; 0x30
 80042aa:	2380      	movs	r3, #128	; 0x80
 80042ac:	025b      	lsls	r3, r3, #9
 80042ae:	429a      	cmp	r2, r3
 80042b0:	d21c      	bcs.n	80042ec <UART_SetConfig+0x5b0>
      {
        brrtemp = (uint16_t)(usartdiv & 0xFFF0U);
 80042b2:	6b3b      	ldr	r3, [r7, #48]	; 0x30
 80042b4:	b29a      	uxth	r2, r3
 80042b6:	200e      	movs	r0, #14
 80042b8:	2420      	movs	r4, #32
 80042ba:	1903      	adds	r3, r0, r4
 80042bc:	19db      	adds	r3, r3, r7
 80042be:	210f      	movs	r1, #15
 80042c0:	438a      	bics	r2, r1
 80042c2:	801a      	strh	r2, [r3, #0]
        brrtemp |= (uint16_t)((usartdiv & (uint16_t)0x000FU) >> 1U);
 80042c4:	6b3b      	ldr	r3, [r7, #48]	; 0x30
 80042c6:	085b      	lsrs	r3, r3, #1
 80042c8:	b29b      	uxth	r3, r3
 80042ca:	2207      	movs	r2, #7
 80042cc:	4013      	ands	r3, r2
 80042ce:	b299      	uxth	r1, r3
 80042d0:	1903      	adds	r3, r0, r4
 80042d2:	19db      	adds	r3, r3, r7
 80042d4:	1902      	adds	r2, r0, r4
 80042d6:	19d2      	adds	r2, r2, r7
 80042d8:	8812      	ldrh	r2, [r2, #0]
 80042da:	430a      	orrs	r2, r1
 80042dc:	801a      	strh	r2, [r3, #0]
        huart->Instance->BRR = brrtemp;
 80042de:	6a7b      	ldr	r3, [r7, #36]	; 0x24
 80042e0:	681b      	ldr	r3, [r3, #0]
 80042e2:	1902      	adds	r2, r0, r4
 80042e4:	19d2      	adds	r2, r2, r7
 80042e6:	8812      	ldrh	r2, [r2, #0]
 80042e8:	60da      	str	r2, [r3, #12]
 80042ea:	e05e      	b.n	80043aa <UART_SetConfig+0x66e>
      }
      else
      {
        ret = HAL_ERROR;
 80042ec:	231a      	movs	r3, #26
 80042ee:	2220      	movs	r2, #32
 80042f0:	189b      	adds	r3, r3, r2
 80042f2:	19db      	adds	r3, r3, r7
 80042f4:	2201      	movs	r2, #1
 80042f6:	701a      	strb	r2, [r3, #0]
 80042f8:	e057      	b.n	80043aa <UART_SetConfig+0x66e>
      }
    }
  }
  else
  {
    switch (clocksource)
 80042fa:	231b      	movs	r3, #27
 80042fc:	2220      	movs	r2, #32
 80042fe:	189b      	adds	r3, r3, r2
 8004300:	19db      	adds	r3, r3, r7
 8004302:	781b      	ldrb	r3, [r3, #0]
 8004304:	2b08      	cmp	r3, #8
 8004306:	d015      	beq.n	8004334 <UART_SetConfig+0x5f8>
 8004308:	dc18      	bgt.n	800433c <UART_SetConfig+0x600>
 800430a:	2b04      	cmp	r3, #4
 800430c:	d00d      	beq.n	800432a <UART_SetConfig+0x5ee>
 800430e:	dc15      	bgt.n	800433c <UART_SetConfig+0x600>
 8004310:	2b00      	cmp	r3, #0
 8004312:	d002      	beq.n	800431a <UART_SetConfig+0x5de>
 8004314:	2b02      	cmp	r3, #2
 8004316:	d005      	beq.n	8004324 <UART_SetConfig+0x5e8>
 8004318:	e010      	b.n	800433c <UART_SetConfig+0x600>
    {
      case UART_CLOCKSOURCE_PCLK1:
        pclk = HAL_RCC_GetPCLK1Freq();
 800431a:	f7fe ff9d 	bl	8003258 <HAL_RCC_GetPCLK1Freq>
 800431e:	0003      	movs	r3, r0
 8004320:	637b      	str	r3, [r7, #52]	; 0x34
        break;
 8004322:	e014      	b.n	800434e <UART_SetConfig+0x612>
      case UART_CLOCKSOURCE_HSI:
        pclk = (uint32_t) HSI_VALUE;
 8004324:	4b2e      	ldr	r3, [pc, #184]	; (80043e0 <UART_SetConfig+0x6a4>)
 8004326:	637b      	str	r3, [r7, #52]	; 0x34
        break;
 8004328:	e011      	b.n	800434e <UART_SetConfig+0x612>
      case UART_CLOCKSOURCE_SYSCLK:
        pclk = HAL_RCC_GetSysClockFreq();
 800432a:	f7fe ff09 	bl	8003140 <HAL_RCC_GetSysClockFreq>
 800432e:	0003      	movs	r3, r0
 8004330:	637b      	str	r3, [r7, #52]	; 0x34
        break;
 8004332:	e00c      	b.n	800434e <UART_SetConfig+0x612>
      case UART_CLOCKSOURCE_LSE:
        pclk = (uint32_t) LSE_VALUE;
 8004334:	2380      	movs	r3, #128	; 0x80
 8004336:	021b      	lsls	r3, r3, #8
 8004338:	637b      	str	r3, [r7, #52]	; 0x34
        break;
 800433a:	e008      	b.n	800434e <UART_SetConfig+0x612>
      default:
        pclk = 0U;
 800433c:	2300      	movs	r3, #0
 800433e:	637b      	str	r3, [r7, #52]	; 0x34
        ret = HAL_ERROR;
 8004340:	231a      	movs	r3, #26
 8004342:	2220      	movs	r2, #32
 8004344:	189b      	adds	r3, r3, r2
 8004346:	19db      	adds	r3, r3, r7
 8004348:	2201      	movs	r2, #1
 800434a:	701a      	strb	r2, [r3, #0]
        break;
 800434c:	46c0      	nop			; (mov r8, r8)
    }

    if (pclk != 0U)
 800434e:	6b7b      	ldr	r3, [r7, #52]	; 0x34
 8004350:	2b00      	cmp	r3, #0
 8004352:	d02a      	beq.n	80043aa <UART_SetConfig+0x66e>
    {
      /* USARTDIV must be greater than or equal to 0d16 */
      usartdiv = (uint32_t)(UART_DIV_SAMPLING16(pclk, huart->Init.BaudRate, huart->Init.ClockPrescaler));
 8004354:	6a7b      	ldr	r3, [r7, #36]	; 0x24
 8004356:	6a5a      	ldr	r2, [r3, #36]	; 0x24
 8004358:	4b22      	ldr	r3, [pc, #136]	; (80043e4 <UART_SetConfig+0x6a8>)
 800435a:	0052      	lsls	r2, r2, #1
 800435c:	5ad3      	ldrh	r3, [r2, r3]
 800435e:	0019      	movs	r1, r3
 8004360:	6b78      	ldr	r0, [r7, #52]	; 0x34
 8004362:	f7fb fecf 	bl	8000104 <__udivsi3>
 8004366:	0003      	movs	r3, r0
 8004368:	001a      	movs	r2, r3
 800436a:	6a7b      	ldr	r3, [r7, #36]	; 0x24
 800436c:	685b      	ldr	r3, [r3, #4]
 800436e:	085b      	lsrs	r3, r3, #1
 8004370:	18d2      	adds	r2, r2, r3
 8004372:	6a7b      	ldr	r3, [r7, #36]	; 0x24
 8004374:	685b      	ldr	r3, [r3, #4]
 8004376:	0019      	movs	r1, r3
 8004378:	0010      	movs	r0, r2
 800437a:	f7fb fec3 	bl	8000104 <__udivsi3>
 800437e:	0003      	movs	r3, r0
 8004380:	633b      	str	r3, [r7, #48]	; 0x30
      if ((usartdiv >= UART_BRR_MIN) && (usartdiv <= UART_BRR_MAX))
 8004382:	6b3b      	ldr	r3, [r7, #48]	; 0x30
 8004384:	2b0f      	cmp	r3, #15
 8004386:	d90a      	bls.n	800439e <UART_SetConfig+0x662>
 8004388:	6b3a      	ldr	r2, [r7, #48]	; 0x30
 800438a:	2380      	movs	r3, #128	; 0x80
 800438c:	025b      	lsls	r3, r3, #9
 800438e:	429a      	cmp	r2, r3
 8004390:	d205      	bcs.n	800439e <UART_SetConfig+0x662>
      {
        huart->Instance->BRR = (uint16_t)usartdiv;
 8004392:	6b3b      	ldr	r3, [r7, #48]	; 0x30
 8004394:	b29a      	uxth	r2, r3
 8004396:	6a7b      	ldr	r3, [r7, #36]	; 0x24
 8004398:	681b      	ldr	r3, [r3, #0]
 800439a:	60da      	str	r2, [r3, #12]
 800439c:	e005      	b.n	80043aa <UART_SetConfig+0x66e>
      }
      else
      {
        ret = HAL_ERROR;
 800439e:	231a      	movs	r3, #26
 80043a0:	2220      	movs	r2, #32
 80043a2:	189b      	adds	r3, r3, r2
 80043a4:	19db      	adds	r3, r3, r7
 80043a6:	2201      	movs	r2, #1
 80043a8:	701a      	strb	r2, [r3, #0]
      }
    }
  }

  /* Initialize the number of data to process during RX/TX ISR execution */
  huart->NbTxDataToProcess = 1;
 80043aa:	6a7b      	ldr	r3, [r7, #36]	; 0x24
 80043ac:	226a      	movs	r2, #106	; 0x6a
 80043ae:	2101      	movs	r1, #1
 80043b0:	5299      	strh	r1, [r3, r2]
  huart->NbRxDataToProcess = 1;
 80043b2:	6a7b      	ldr	r3, [r7, #36]	; 0x24
 80043b4:	2268      	movs	r2, #104	; 0x68
 80043b6:	2101      	movs	r1, #1
 80043b8:	5299      	strh	r1, [r3, r2]

  /* Clear ISR function pointers */
  huart->RxISR = NULL;
 80043ba:	6a7b      	ldr	r3, [r7, #36]	; 0x24
 80043bc:	2200      	movs	r2, #0
 80043be:	675a      	str	r2, [r3, #116]	; 0x74
  huart->TxISR = NULL;
 80043c0:	6a7b      	ldr	r3, [r7, #36]	; 0x24
 80043c2:	2200      	movs	r2, #0
 80043c4:	679a      	str	r2, [r3, #120]	; 0x78

  return ret;
 80043c6:	231a      	movs	r3, #26
 80043c8:	2220      	movs	r2, #32
 80043ca:	189b      	adds	r3, r3, r2
 80043cc:	19db      	adds	r3, r3, r7
 80043ce:	781b      	ldrb	r3, [r3, #0]
}
 80043d0:	0018      	movs	r0, r3
 80043d2:	46bd      	mov	sp, r7
 80043d4:	b010      	add	sp, #64	; 0x40
 80043d6:	bdb0      	pop	{r4, r5, r7, pc}
 80043d8:	40008000 	.word	0x40008000
 80043dc:	40008400 	.word	0x40008400
 80043e0:	00f42400 	.word	0x00f42400
 80043e4:	08004d7c 	.word	0x08004d7c

080043e8 <UART_AdvFeatureConfig>:
  * @brief Configure the UART peripheral advanced features.
  * @param huart UART handle.
  * @retval None
  */
void UART_AdvFeatureConfig(UART_HandleTypeDef *huart)
{
 80043e8:	b580      	push	{r7, lr}
 80043ea:	b082      	sub	sp, #8
 80043ec:	af00      	add	r7, sp, #0
 80043ee:	6078      	str	r0, [r7, #4]
  /* Check whether the set of advanced features to configure is properly set */
  assert_param(IS_UART_ADVFEATURE_INIT(huart->AdvancedInit.AdvFeatureInit));

  /* if required, configure TX pin active level inversion */
  if (HAL_IS_BIT_SET(huart->AdvancedInit.AdvFeatureInit, UART_ADVFEATURE_TXINVERT_INIT))
 80043f0:	687b      	ldr	r3, [r7, #4]
 80043f2:	6a9b      	ldr	r3, [r3, #40]	; 0x28
 80043f4:	2201      	movs	r2, #1
 80043f6:	4013      	ands	r3, r2
 80043f8:	d00b      	beq.n	8004412 <UART_AdvFeatureConfig+0x2a>
  {
    assert_param(IS_UART_ADVFEATURE_TXINV(huart->AdvancedInit.TxPinLevelInvert));
    MODIFY_REG(huart->Instance->CR2, USART_CR2_TXINV, huart->AdvancedInit.TxPinLevelInvert);
 80043fa:	687b      	ldr	r3, [r7, #4]
 80043fc:	681b      	ldr	r3, [r3, #0]
 80043fe:	685b      	ldr	r3, [r3, #4]
 8004400:	4a4a      	ldr	r2, [pc, #296]	; (800452c <UART_AdvFeatureConfig+0x144>)
 8004402:	4013      	ands	r3, r2
 8004404:	0019      	movs	r1, r3
 8004406:	687b      	ldr	r3, [r7, #4]
 8004408:	6ada      	ldr	r2, [r3, #44]	; 0x2c
 800440a:	687b      	ldr	r3, [r7, #4]
 800440c:	681b      	ldr	r3, [r3, #0]
 800440e:	430a      	orrs	r2, r1
 8004410:	605a      	str	r2, [r3, #4]
  }

  /* if required, configure RX pin active level inversion */
  if (HAL_IS_BIT_SET(huart->AdvancedInit.AdvFeatureInit, UART_ADVFEATURE_RXINVERT_INIT))
 8004412:	687b      	ldr	r3, [r7, #4]
 8004414:	6a9b      	ldr	r3, [r3, #40]	; 0x28
 8004416:	2202      	movs	r2, #2
 8004418:	4013      	ands	r3, r2
 800441a:	d00b      	beq.n	8004434 <UART_AdvFeatureConfig+0x4c>
  {
    assert_param(IS_UART_ADVFEATURE_RXINV(huart->AdvancedInit.RxPinLevelInvert));
    MODIFY_REG(huart->Instance->CR2, USART_CR2_RXINV, huart->AdvancedInit.RxPinLevelInvert);
 800441c:	687b      	ldr	r3, [r7, #4]
 800441e:	681b      	ldr	r3, [r3, #0]
 8004420:	685b      	ldr	r3, [r3, #4]
 8004422:	4a43      	ldr	r2, [pc, #268]	; (8004530 <UART_AdvFeatureConfig+0x148>)
 8004424:	4013      	ands	r3, r2
 8004426:	0019      	movs	r1, r3
 8004428:	687b      	ldr	r3, [r7, #4]
 800442a:	6b1a      	ldr	r2, [r3, #48]	; 0x30
 800442c:	687b      	ldr	r3, [r7, #4]
 800442e:	681b      	ldr	r3, [r3, #0]
 8004430:	430a      	orrs	r2, r1
 8004432:	605a      	str	r2, [r3, #4]
  }

  /* if required, configure data inversion */
  if (HAL_IS_BIT_SET(huart->AdvancedInit.AdvFeatureInit, UART_ADVFEATURE_DATAINVERT_INIT))
 8004434:	687b      	ldr	r3, [r7, #4]
 8004436:	6a9b      	ldr	r3, [r3, #40]	; 0x28
 8004438:	2204      	movs	r2, #4
 800443a:	4013      	ands	r3, r2
 800443c:	d00b      	beq.n	8004456 <UART_AdvFeatureConfig+0x6e>
  {
    assert_param(IS_UART_ADVFEATURE_DATAINV(huart->AdvancedInit.DataInvert));
    MODIFY_REG(huart->Instance->CR2, USART_CR2_DATAINV, huart->AdvancedInit.DataInvert);
 800443e:	687b      	ldr	r3, [r7, #4]
 8004440:	681b      	ldr	r3, [r3, #0]
 8004442:	685b      	ldr	r3, [r3, #4]
 8004444:	4a3b      	ldr	r2, [pc, #236]	; (8004534 <UART_AdvFeatureConfig+0x14c>)
 8004446:	4013      	ands	r3, r2
 8004448:	0019      	movs	r1, r3
 800444a:	687b      	ldr	r3, [r7, #4]
 800444c:	6b5a      	ldr	r2, [r3, #52]	; 0x34
 800444e:	687b      	ldr	r3, [r7, #4]
 8004450:	681b      	ldr	r3, [r3, #0]
 8004452:	430a      	orrs	r2, r1
 8004454:	605a      	str	r2, [r3, #4]
  }

  /* if required, configure RX/TX pins swap */
  if (HAL_IS_BIT_SET(huart->AdvancedInit.AdvFeatureInit, UART_ADVFEATURE_SWAP_INIT))
 8004456:	687b      	ldr	r3, [r7, #4]
 8004458:	6a9b      	ldr	r3, [r3, #40]	; 0x28
 800445a:	2208      	movs	r2, #8
 800445c:	4013      	ands	r3, r2
 800445e:	d00b      	beq.n	8004478 <UART_AdvFeatureConfig+0x90>
  {
    assert_param(IS_UART_ADVFEATURE_SWAP(huart->AdvancedInit.Swap));
    MODIFY_REG(huart->Instance->CR2, USART_CR2_SWAP, huart->AdvancedInit.Swap);
 8004460:	687b      	ldr	r3, [r7, #4]
 8004462:	681b      	ldr	r3, [r3, #0]
 8004464:	685b      	ldr	r3, [r3, #4]
 8004466:	4a34      	ldr	r2, [pc, #208]	; (8004538 <UART_AdvFeatureConfig+0x150>)
 8004468:	4013      	ands	r3, r2
 800446a:	0019      	movs	r1, r3
 800446c:	687b      	ldr	r3, [r7, #4]
 800446e:	6b9a      	ldr	r2, [r3, #56]	; 0x38
 8004470:	687b      	ldr	r3, [r7, #4]
 8004472:	681b      	ldr	r3, [r3, #0]
 8004474:	430a      	orrs	r2, r1
 8004476:	605a      	str	r2, [r3, #4]
  }

  /* if required, configure RX overrun detection disabling */
  if (HAL_IS_BIT_SET(huart->AdvancedInit.AdvFeatureInit, UART_ADVFEATURE_RXOVERRUNDISABLE_INIT))
 8004478:	687b      	ldr	r3, [r7, #4]
 800447a:	6a9b      	ldr	r3, [r3, #40]	; 0x28
 800447c:	2210      	movs	r2, #16
 800447e:	4013      	ands	r3, r2
 8004480:	d00b      	beq.n	800449a <UART_AdvFeatureConfig+0xb2>
  {
    assert_param(IS_UART_OVERRUN(huart->AdvancedInit.OverrunDisable));
    MODIFY_REG(huart->Instance->CR3, USART_CR3_OVRDIS, huart->AdvancedInit.OverrunDisable);
 8004482:	687b      	ldr	r3, [r7, #4]
 8004484:	681b      	ldr	r3, [r3, #0]
 8004486:	689b      	ldr	r3, [r3, #8]
 8004488:	4a2c      	ldr	r2, [pc, #176]	; (800453c <UART_AdvFeatureConfig+0x154>)
 800448a:	4013      	ands	r3, r2
 800448c:	0019      	movs	r1, r3
 800448e:	687b      	ldr	r3, [r7, #4]
 8004490:	6bda      	ldr	r2, [r3, #60]	; 0x3c
 8004492:	687b      	ldr	r3, [r7, #4]
 8004494:	681b      	ldr	r3, [r3, #0]
 8004496:	430a      	orrs	r2, r1
 8004498:	609a      	str	r2, [r3, #8]
  }

  /* if required, configure DMA disabling on reception error */
  if (HAL_IS_BIT_SET(huart->AdvancedInit.AdvFeatureInit, UART_ADVFEATURE_DMADISABLEONERROR_INIT))
 800449a:	687b      	ldr	r3, [r7, #4]
 800449c:	6a9b      	ldr	r3, [r3, #40]	; 0x28
 800449e:	2220      	movs	r2, #32
 80044a0:	4013      	ands	r3, r2
 80044a2:	d00b      	beq.n	80044bc <UART_AdvFeatureConfig+0xd4>
  {
    assert_param(IS_UART_ADVFEATURE_DMAONRXERROR(huart->AdvancedInit.DMADisableonRxError));
    MODIFY_REG(huart->Instance->CR3, USART_CR3_DDRE, huart->AdvancedInit.DMADisableonRxError);
 80044a4:	687b      	ldr	r3, [r7, #4]
 80044a6:	681b      	ldr	r3, [r3, #0]
 80044a8:	689b      	ldr	r3, [r3, #8]
 80044aa:	4a25      	ldr	r2, [pc, #148]	; (8004540 <UART_AdvFeatureConfig+0x158>)
 80044ac:	4013      	ands	r3, r2
 80044ae:	0019      	movs	r1, r3
 80044b0:	687b      	ldr	r3, [r7, #4]
 80044b2:	6c1a      	ldr	r2, [r3, #64]	; 0x40
 80044b4:	687b      	ldr	r3, [r7, #4]
 80044b6:	681b      	ldr	r3, [r3, #0]
 80044b8:	430a      	orrs	r2, r1
 80044ba:	609a      	str	r2, [r3, #8]
  }

  /* if required, configure auto Baud rate detection scheme */
  if (HAL_IS_BIT_SET(huart->AdvancedInit.AdvFeatureInit, UART_ADVFEATURE_AUTOBAUDRATE_INIT))
 80044bc:	687b      	ldr	r3, [r7, #4]
 80044be:	6a9b      	ldr	r3, [r3, #40]	; 0x28
 80044c0:	2240      	movs	r2, #64	; 0x40
 80044c2:	4013      	ands	r3, r2
 80044c4:	d01d      	beq.n	8004502 <UART_AdvFeatureConfig+0x11a>
  {
    assert_param(IS_USART_AUTOBAUDRATE_DETECTION_INSTANCE(huart->Instance));
    assert_param(IS_UART_ADVFEATURE_AUTOBAUDRATE(huart->AdvancedInit.AutoBaudRateEnable));
    MODIFY_REG(huart->Instance->CR2, USART_CR2_ABREN, huart->AdvancedInit.AutoBaudRateEnable);
 80044c6:	687b      	ldr	r3, [r7, #4]
 80044c8:	681b      	ldr	r3, [r3, #0]
 80044ca:	685b      	ldr	r3, [r3, #4]
 80044cc:	4a1d      	ldr	r2, [pc, #116]	; (8004544 <UART_AdvFeatureConfig+0x15c>)
 80044ce:	4013      	ands	r3, r2
 80044d0:	0019      	movs	r1, r3
 80044d2:	687b      	ldr	r3, [r7, #4]
 80044d4:	6c5a      	ldr	r2, [r3, #68]	; 0x44
 80044d6:	687b      	ldr	r3, [r7, #4]
 80044d8:	681b      	ldr	r3, [r3, #0]
 80044da:	430a      	orrs	r2, r1
 80044dc:	605a      	str	r2, [r3, #4]
    /* set auto Baudrate detection parameters if detection is enabled */
    if (huart->AdvancedInit.AutoBaudRateEnable == UART_ADVFEATURE_AUTOBAUDRATE_ENABLE)
 80044de:	687b      	ldr	r3, [r7, #4]
 80044e0:	6c5a      	ldr	r2, [r3, #68]	; 0x44
 80044e2:	2380      	movs	r3, #128	; 0x80
 80044e4:	035b      	lsls	r3, r3, #13
 80044e6:	429a      	cmp	r2, r3
 80044e8:	d10b      	bne.n	8004502 <UART_AdvFeatureConfig+0x11a>
    {
      assert_param(IS_UART_ADVFEATURE_AUTOBAUDRATEMODE(huart->AdvancedInit.AutoBaudRateMode));
      MODIFY_REG(huart->Instance->CR2, USART_CR2_ABRMODE, huart->AdvancedInit.AutoBaudRateMode);
 80044ea:	687b      	ldr	r3, [r7, #4]
 80044ec:	681b      	ldr	r3, [r3, #0]
 80044ee:	685b      	ldr	r3, [r3, #4]
 80044f0:	4a15      	ldr	r2, [pc, #84]	; (8004548 <UART_AdvFeatureConfig+0x160>)
 80044f2:	4013      	ands	r3, r2
 80044f4:	0019      	movs	r1, r3
 80044f6:	687b      	ldr	r3, [r7, #4]
 80044f8:	6c9a      	ldr	r2, [r3, #72]	; 0x48
 80044fa:	687b      	ldr	r3, [r7, #4]
 80044fc:	681b      	ldr	r3, [r3, #0]
 80044fe:	430a      	orrs	r2, r1
 8004500:	605a      	str	r2, [r3, #4]
    }
  }

  /* if required, configure MSB first on communication line */
  if (HAL_IS_BIT_SET(huart->AdvancedInit.AdvFeatureInit, UART_ADVFEATURE_MSBFIRST_INIT))
 8004502:	687b      	ldr	r3, [r7, #4]
 8004504:	6a9b      	ldr	r3, [r3, #40]	; 0x28
 8004506:	2280      	movs	r2, #128	; 0x80
 8004508:	4013      	ands	r3, r2
 800450a:	d00b      	beq.n	8004524 <UART_AdvFeatureConfig+0x13c>
  {
    assert_param(IS_UART_ADVFEATURE_MSBFIRST(huart->AdvancedInit.MSBFirst));
    MODIFY_REG(huart->Instance->CR2, USART_CR2_MSBFIRST, huart->AdvancedInit.MSBFirst);
 800450c:	687b      	ldr	r3, [r7, #4]
 800450e:	681b      	ldr	r3, [r3, #0]
 8004510:	685b      	ldr	r3, [r3, #4]
 8004512:	4a0e      	ldr	r2, [pc, #56]	; (800454c <UART_AdvFeatureConfig+0x164>)
 8004514:	4013      	ands	r3, r2
 8004516:	0019      	movs	r1, r3
 8004518:	687b      	ldr	r3, [r7, #4]
 800451a:	6cda      	ldr	r2, [r3, #76]	; 0x4c
 800451c:	687b      	ldr	r3, [r7, #4]
 800451e:	681b      	ldr	r3, [r3, #0]
 8004520:	430a      	orrs	r2, r1
 8004522:	605a      	str	r2, [r3, #4]
  }
}
 8004524:	46c0      	nop			; (mov r8, r8)
 8004526:	46bd      	mov	sp, r7
 8004528:	b002      	add	sp, #8
 800452a:	bd80      	pop	{r7, pc}
 800452c:	fffdffff 	.word	0xfffdffff
 8004530:	fffeffff 	.word	0xfffeffff
 8004534:	fffbffff 	.word	0xfffbffff
 8004538:	ffff7fff 	.word	0xffff7fff
 800453c:	ffffefff 	.word	0xffffefff
 8004540:	ffffdfff 	.word	0xffffdfff
 8004544:	ffefffff 	.word	0xffefffff
 8004548:	ff9fffff 	.word	0xff9fffff
 800454c:	fff7ffff 	.word	0xfff7ffff

08004550 <UART_CheckIdleState>:
  * @brief Check the UART Idle State.
  * @param huart UART handle.
  * @retval HAL status
  */
HAL_StatusTypeDef UART_CheckIdleState(UART_HandleTypeDef *huart)
{
 8004550:	b580      	push	{r7, lr}
 8004552:	b086      	sub	sp, #24
 8004554:	af02      	add	r7, sp, #8
 8004556:	6078      	str	r0, [r7, #4]
  uint32_t tickstart;

  /* Initialize the UART ErrorCode */
  huart->ErrorCode = HAL_UART_ERROR_NONE;
 8004558:	687b      	ldr	r3, [r7, #4]
 800455a:	2290      	movs	r2, #144	; 0x90
 800455c:	2100      	movs	r1, #0
 800455e:	5099      	str	r1, [r3, r2]

  /* Init tickstart for timeout management */
  tickstart = HAL_GetTick();
 8004560:	f7fc ff5a 	bl	8001418 <HAL_GetTick>
 8004564:	0003      	movs	r3, r0
 8004566:	60fb      	str	r3, [r7, #12]

  /* Check if the Transmitter is enabled */
  if ((huart->Instance->CR1 & USART_CR1_TE) == USART_CR1_TE)
 8004568:	687b      	ldr	r3, [r7, #4]
 800456a:	681b      	ldr	r3, [r3, #0]
 800456c:	681b      	ldr	r3, [r3, #0]
 800456e:	2208      	movs	r2, #8
 8004570:	4013      	ands	r3, r2
 8004572:	2b08      	cmp	r3, #8
 8004574:	d10c      	bne.n	8004590 <UART_CheckIdleState+0x40>
  {
    /* Wait until TEACK flag is set */
    if (UART_WaitOnFlagUntilTimeout(huart, USART_ISR_TEACK, RESET, tickstart, HAL_UART_TIMEOUT_VALUE) != HAL_OK)
 8004576:	68fb      	ldr	r3, [r7, #12]
 8004578:	2280      	movs	r2, #128	; 0x80
 800457a:	0391      	lsls	r1, r2, #14
 800457c:	6878      	ldr	r0, [r7, #4]
 800457e:	4a1a      	ldr	r2, [pc, #104]	; (80045e8 <UART_CheckIdleState+0x98>)
 8004580:	9200      	str	r2, [sp, #0]
 8004582:	2200      	movs	r2, #0
 8004584:	f000 f832 	bl	80045ec <UART_WaitOnFlagUntilTimeout>
 8004588:	1e03      	subs	r3, r0, #0
 800458a:	d001      	beq.n	8004590 <UART_CheckIdleState+0x40>
    {
      /* Timeout occurred */
      return HAL_TIMEOUT;
 800458c:	2303      	movs	r3, #3
 800458e:	e026      	b.n	80045de <UART_CheckIdleState+0x8e>
    }
  }

  /* Check if the Receiver is enabled */
  if ((huart->Instance->CR1 & USART_CR1_RE) == USART_CR1_RE)
 8004590:	687b      	ldr	r3, [r7, #4]
 8004592:	681b      	ldr	r3, [r3, #0]
 8004594:	681b      	ldr	r3, [r3, #0]
 8004596:	2204      	movs	r2, #4
 8004598:	4013      	ands	r3, r2
 800459a:	2b04      	cmp	r3, #4
 800459c:	d10c      	bne.n	80045b8 <UART_CheckIdleState+0x68>
  {
    /* Wait until REACK flag is set */
    if (UART_WaitOnFlagUntilTimeout(huart, USART_ISR_REACK, RESET, tickstart, HAL_UART_TIMEOUT_VALUE) != HAL_OK)
 800459e:	68fb      	ldr	r3, [r7, #12]
 80045a0:	2280      	movs	r2, #128	; 0x80
 80045a2:	03d1      	lsls	r1, r2, #15
 80045a4:	6878      	ldr	r0, [r7, #4]
 80045a6:	4a10      	ldr	r2, [pc, #64]	; (80045e8 <UART_CheckIdleState+0x98>)
 80045a8:	9200      	str	r2, [sp, #0]
 80045aa:	2200      	movs	r2, #0
 80045ac:	f000 f81e 	bl	80045ec <UART_WaitOnFlagUntilTimeout>
 80045b0:	1e03      	subs	r3, r0, #0
 80045b2:	d001      	beq.n	80045b8 <UART_CheckIdleState+0x68>
    {
      /* Timeout occurred */
      return HAL_TIMEOUT;
 80045b4:	2303      	movs	r3, #3
 80045b6:	e012      	b.n	80045de <UART_CheckIdleState+0x8e>
    }
  }

  /* Initialize the UART State */
  huart->gState = HAL_UART_STATE_READY;
 80045b8:	687b      	ldr	r3, [r7, #4]
 80045ba:	2288      	movs	r2, #136	; 0x88
 80045bc:	2120      	movs	r1, #32
 80045be:	5099      	str	r1, [r3, r2]
  huart->RxState = HAL_UART_STATE_READY;
 80045c0:	687b      	ldr	r3, [r7, #4]
 80045c2:	228c      	movs	r2, #140	; 0x8c
 80045c4:	2120      	movs	r1, #32
 80045c6:	5099      	str	r1, [r3, r2]
  huart->ReceptionType = HAL_UART_RECEPTION_STANDARD;
 80045c8:	687b      	ldr	r3, [r7, #4]
 80045ca:	2200      	movs	r2, #0
 80045cc:	66da      	str	r2, [r3, #108]	; 0x6c
  huart->RxEventType = HAL_UART_RXEVENT_TC;
 80045ce:	687b      	ldr	r3, [r7, #4]
 80045d0:	2200      	movs	r2, #0
 80045d2:	671a      	str	r2, [r3, #112]	; 0x70

  __HAL_UNLOCK(huart);
 80045d4:	687b      	ldr	r3, [r7, #4]
 80045d6:	2284      	movs	r2, #132	; 0x84
 80045d8:	2100      	movs	r1, #0
 80045da:	5499      	strb	r1, [r3, r2]

  return HAL_OK;
 80045dc:	2300      	movs	r3, #0
}
 80045de:	0018      	movs	r0, r3
 80045e0:	46bd      	mov	sp, r7
 80045e2:	b004      	add	sp, #16
 80045e4:	bd80      	pop	{r7, pc}
 80045e6:	46c0      	nop			; (mov r8, r8)
 80045e8:	01ffffff 	.word	0x01ffffff

080045ec <UART_WaitOnFlagUntilTimeout>:
  * @param Timeout   Timeout duration
  * @retval HAL status
  */
HAL_StatusTypeDef UART_WaitOnFlagUntilTimeout(UART_HandleTypeDef *huart, uint32_t Flag, FlagStatus Status,
                                              uint32_t Tickstart, uint32_t Timeout)
{
 80045ec:	b580      	push	{r7, lr}
 80045ee:	b094      	sub	sp, #80	; 0x50
 80045f0:	af00      	add	r7, sp, #0
 80045f2:	60f8      	str	r0, [r7, #12]
 80045f4:	60b9      	str	r1, [r7, #8]
 80045f6:	603b      	str	r3, [r7, #0]
 80045f8:	1dfb      	adds	r3, r7, #7
 80045fa:	701a      	strb	r2, [r3, #0]
  /* Wait until flag is set */
  while ((__HAL_UART_GET_FLAG(huart, Flag) ? SET : RESET) == Status)
 80045fc:	e0a7      	b.n	800474e <UART_WaitOnFlagUntilTimeout+0x162>
  {
    /* Check for the Timeout */
    if (Timeout != HAL_MAX_DELAY)
 80045fe:	6dbb      	ldr	r3, [r7, #88]	; 0x58
 8004600:	3301      	adds	r3, #1
 8004602:	d100      	bne.n	8004606 <UART_WaitOnFlagUntilTimeout+0x1a>
 8004604:	e0a3      	b.n	800474e <UART_WaitOnFlagUntilTimeout+0x162>
    {
      if (((HAL_GetTick() - Tickstart) > Timeout) || (Timeout == 0U))
 8004606:	f7fc ff07 	bl	8001418 <HAL_GetTick>
 800460a:	0002      	movs	r2, r0
 800460c:	683b      	ldr	r3, [r7, #0]
 800460e:	1ad3      	subs	r3, r2, r3
 8004610:	6dba      	ldr	r2, [r7, #88]	; 0x58
 8004612:	429a      	cmp	r2, r3
 8004614:	d302      	bcc.n	800461c <UART_WaitOnFlagUntilTimeout+0x30>
 8004616:	6dbb      	ldr	r3, [r7, #88]	; 0x58
 8004618:	2b00      	cmp	r3, #0
 800461a:	d13f      	bne.n	800469c <UART_WaitOnFlagUntilTimeout+0xb0>
 */
__STATIC_FORCEINLINE uint32_t __get_PRIMASK(void)
{
  uint32_t result;

  __ASM volatile ("MRS %0, primask" : "=r" (result) :: "memory");
 800461c:	f3ef 8310 	mrs	r3, PRIMASK
 8004620:	62bb      	str	r3, [r7, #40]	; 0x28
  return(result);
 8004622:	6abb      	ldr	r3, [r7, #40]	; 0x28
      {
        /* Disable TXE, RXNE, PE and ERR (Frame error, noise error, overrun error)
           interrupts for the interrupt process */
        ATOMIC_CLEAR_BIT(huart->Instance->CR1, (USART_CR1_RXNEIE_RXFNEIE | USART_CR1_PEIE |
 8004624:	647b      	str	r3, [r7, #68]	; 0x44
 8004626:	2301      	movs	r3, #1
 8004628:	62fb      	str	r3, [r7, #44]	; 0x2c
  \details Assigns the given value to the Priority Mask Register.
  \param [in]    priMask  Priority Mask
 */
__STATIC_FORCEINLINE void __set_PRIMASK(uint32_t priMask)
{
  __ASM volatile ("MSR primask, %0" : : "r" (priMask) : "memory");
 800462a:	6afb      	ldr	r3, [r7, #44]	; 0x2c
 800462c:	f383 8810 	msr	PRIMASK, r3
}
 8004630:	46c0      	nop			; (mov r8, r8)
 8004632:	68fb      	ldr	r3, [r7, #12]
 8004634:	681b      	ldr	r3, [r3, #0]
 8004636:	681a      	ldr	r2, [r3, #0]
 8004638:	68fb      	ldr	r3, [r7, #12]
 800463a:	681b      	ldr	r3, [r3, #0]
 800463c:	494e      	ldr	r1, [pc, #312]	; (8004778 <UART_WaitOnFlagUntilTimeout+0x18c>)
 800463e:	400a      	ands	r2, r1
 8004640:	601a      	str	r2, [r3, #0]
 8004642:	6c7b      	ldr	r3, [r7, #68]	; 0x44
 8004644:	633b      	str	r3, [r7, #48]	; 0x30
  __ASM volatile ("MSR primask, %0" : : "r" (priMask) : "memory");
 8004646:	6b3b      	ldr	r3, [r7, #48]	; 0x30
 8004648:	f383 8810 	msr	PRIMASK, r3
}
 800464c:	46c0      	nop			; (mov r8, r8)
  __ASM volatile ("MRS %0, primask" : "=r" (result) :: "memory");
 800464e:	f3ef 8310 	mrs	r3, PRIMASK
 8004652:	637b      	str	r3, [r7, #52]	; 0x34
  return(result);
 8004654:	6b7b      	ldr	r3, [r7, #52]	; 0x34
                                                USART_CR1_TXEIE_TXFNFIE));
        ATOMIC_CLEAR_BIT(huart->Instance->CR3, USART_CR3_EIE);
 8004656:	643b      	str	r3, [r7, #64]	; 0x40
 8004658:	2301      	movs	r3, #1
 800465a:	63bb      	str	r3, [r7, #56]	; 0x38
  __ASM volatile ("MSR primask, %0" : : "r" (priMask) : "memory");
 800465c:	6bbb      	ldr	r3, [r7, #56]	; 0x38
 800465e:	f383 8810 	msr	PRIMASK, r3
}
 8004662:	46c0      	nop			; (mov r8, r8)
 8004664:	68fb      	ldr	r3, [r7, #12]
 8004666:	681b      	ldr	r3, [r3, #0]
 8004668:	689a      	ldr	r2, [r3, #8]
 800466a:	68fb      	ldr	r3, [r7, #12]
 800466c:	681b      	ldr	r3, [r3, #0]
 800466e:	2101      	movs	r1, #1
 8004670:	438a      	bics	r2, r1
 8004672:	609a      	str	r2, [r3, #8]
 8004674:	6c3b      	ldr	r3, [r7, #64]	; 0x40
 8004676:	63fb      	str	r3, [r7, #60]	; 0x3c
  __ASM volatile ("MSR primask, %0" : : "r" (priMask) : "memory");
 8004678:	6bfb      	ldr	r3, [r7, #60]	; 0x3c
 800467a:	f383 8810 	msr	PRIMASK, r3
}
 800467e:	46c0      	nop			; (mov r8, r8)

        huart->gState = HAL_UART_STATE_READY;
 8004680:	68fb      	ldr	r3, [r7, #12]
 8004682:	2288      	movs	r2, #136	; 0x88
 8004684:	2120      	movs	r1, #32
 8004686:	5099      	str	r1, [r3, r2]
        huart->RxState = HAL_UART_STATE_READY;
 8004688:	68fb      	ldr	r3, [r7, #12]
 800468a:	228c      	movs	r2, #140	; 0x8c
 800468c:	2120      	movs	r1, #32
 800468e:	5099      	str	r1, [r3, r2]

        __HAL_UNLOCK(huart);
 8004690:	68fb      	ldr	r3, [r7, #12]
 8004692:	2284      	movs	r2, #132	; 0x84
 8004694:	2100      	movs	r1, #0
 8004696:	5499      	strb	r1, [r3, r2]

        return HAL_TIMEOUT;
 8004698:	2303      	movs	r3, #3
 800469a:	e069      	b.n	8004770 <UART_WaitOnFlagUntilTimeout+0x184>
      }

      if (READ_BIT(huart->Instance->CR1, USART_CR1_RE) != 0U)
 800469c:	68fb      	ldr	r3, [r7, #12]
 800469e:	681b      	ldr	r3, [r3, #0]
 80046a0:	681b      	ldr	r3, [r3, #0]
 80046a2:	2204      	movs	r2, #4
 80046a4:	4013      	ands	r3, r2
 80046a6:	d052      	beq.n	800474e <UART_WaitOnFlagUntilTimeout+0x162>
      {
        if (__HAL_UART_GET_FLAG(huart, UART_FLAG_RTOF) == SET)
 80046a8:	68fb      	ldr	r3, [r7, #12]
 80046aa:	681b      	ldr	r3, [r3, #0]
 80046ac:	69da      	ldr	r2, [r3, #28]
 80046ae:	2380      	movs	r3, #128	; 0x80
 80046b0:	011b      	lsls	r3, r3, #4
 80046b2:	401a      	ands	r2, r3
 80046b4:	2380      	movs	r3, #128	; 0x80
 80046b6:	011b      	lsls	r3, r3, #4
 80046b8:	429a      	cmp	r2, r3
 80046ba:	d148      	bne.n	800474e <UART_WaitOnFlagUntilTimeout+0x162>
        {
          /* Clear Receiver Timeout flag*/
          __HAL_UART_CLEAR_FLAG(huart, UART_CLEAR_RTOF);
 80046bc:	68fb      	ldr	r3, [r7, #12]
 80046be:	681b      	ldr	r3, [r3, #0]
 80046c0:	2280      	movs	r2, #128	; 0x80
 80046c2:	0112      	lsls	r2, r2, #4
 80046c4:	621a      	str	r2, [r3, #32]
  __ASM volatile ("MRS %0, primask" : "=r" (result) :: "memory");
 80046c6:	f3ef 8310 	mrs	r3, PRIMASK
 80046ca:	613b      	str	r3, [r7, #16]
  return(result);
 80046cc:	693b      	ldr	r3, [r7, #16]

          /* Disable TXE, RXNE, PE and ERR (Frame error, noise error, overrun error)
             interrupts for the interrupt process */
          ATOMIC_CLEAR_BIT(huart->Instance->CR1, (USART_CR1_RXNEIE_RXFNEIE | USART_CR1_PEIE |
 80046ce:	64fb      	str	r3, [r7, #76]	; 0x4c
 80046d0:	2301      	movs	r3, #1
 80046d2:	617b      	str	r3, [r7, #20]
  __ASM volatile ("MSR primask, %0" : : "r" (priMask) : "memory");
 80046d4:	697b      	ldr	r3, [r7, #20]
 80046d6:	f383 8810 	msr	PRIMASK, r3
}
 80046da:	46c0      	nop			; (mov r8, r8)
 80046dc:	68fb      	ldr	r3, [r7, #12]
 80046de:	681b      	ldr	r3, [r3, #0]
 80046e0:	681a      	ldr	r2, [r3, #0]
 80046e2:	68fb      	ldr	r3, [r7, #12]
 80046e4:	681b      	ldr	r3, [r3, #0]
 80046e6:	4924      	ldr	r1, [pc, #144]	; (8004778 <UART_WaitOnFlagUntilTimeout+0x18c>)
 80046e8:	400a      	ands	r2, r1
 80046ea:	601a      	str	r2, [r3, #0]
 80046ec:	6cfb      	ldr	r3, [r7, #76]	; 0x4c
 80046ee:	61bb      	str	r3, [r7, #24]
  __ASM volatile ("MSR primask, %0" : : "r" (priMask) : "memory");
 80046f0:	69bb      	ldr	r3, [r7, #24]
 80046f2:	f383 8810 	msr	PRIMASK, r3
}
 80046f6:	46c0      	nop			; (mov r8, r8)
  __ASM volatile ("MRS %0, primask" : "=r" (result) :: "memory");
 80046f8:	f3ef 8310 	mrs	r3, PRIMASK
 80046fc:	61fb      	str	r3, [r7, #28]
  return(result);
 80046fe:	69fb      	ldr	r3, [r7, #28]
                                                  USART_CR1_TXEIE_TXFNFIE));
          ATOMIC_CLEAR_BIT(huart->Instance->CR3, USART_CR3_EIE);
 8004700:	64bb      	str	r3, [r7, #72]	; 0x48
 8004702:	2301      	movs	r3, #1
 8004704:	623b      	str	r3, [r7, #32]
  __ASM volatile ("MSR primask, %0" : : "r" (priMask) : "memory");
 8004706:	6a3b      	ldr	r3, [r7, #32]
 8004708:	f383 8810 	msr	PRIMASK, r3
}
 800470c:	46c0      	nop			; (mov r8, r8)
 800470e:	68fb      	ldr	r3, [r7, #12]
 8004710:	681b      	ldr	r3, [r3, #0]
 8004712:	689a      	ldr	r2, [r3, #8]
 8004714:	68fb      	ldr	r3, [r7, #12]
 8004716:	681b      	ldr	r3, [r3, #0]
 8004718:	2101      	movs	r1, #1
 800471a:	438a      	bics	r2, r1
 800471c:	609a      	str	r2, [r3, #8]
 800471e:	6cbb      	ldr	r3, [r7, #72]	; 0x48
 8004720:	627b      	str	r3, [r7, #36]	; 0x24
  __ASM volatile ("MSR primask, %0" : : "r" (priMask) : "memory");
 8004722:	6a7b      	ldr	r3, [r7, #36]	; 0x24
 8004724:	f383 8810 	msr	PRIMASK, r3
}
 8004728:	46c0      	nop			; (mov r8, r8)

          huart->gState = HAL_UART_STATE_READY;
 800472a:	68fb      	ldr	r3, [r7, #12]
 800472c:	2288      	movs	r2, #136	; 0x88
 800472e:	2120      	movs	r1, #32
 8004730:	5099      	str	r1, [r3, r2]
          huart->RxState = HAL_UART_STATE_READY;
 8004732:	68fb      	ldr	r3, [r7, #12]
 8004734:	228c      	movs	r2, #140	; 0x8c
 8004736:	2120      	movs	r1, #32
 8004738:	5099      	str	r1, [r3, r2]
          huart->ErrorCode = HAL_UART_ERROR_RTO;
 800473a:	68fb      	ldr	r3, [r7, #12]
 800473c:	2290      	movs	r2, #144	; 0x90
 800473e:	2120      	movs	r1, #32
 8004740:	5099      	str	r1, [r3, r2]

          /* Process Unlocked */
          __HAL_UNLOCK(huart);
 8004742:	68fb      	ldr	r3, [r7, #12]
 8004744:	2284      	movs	r2, #132	; 0x84
 8004746:	2100      	movs	r1, #0
 8004748:	5499      	strb	r1, [r3, r2]

          return HAL_TIMEOUT;
 800474a:	2303      	movs	r3, #3
 800474c:	e010      	b.n	8004770 <UART_WaitOnFlagUntilTimeout+0x184>
  while ((__HAL_UART_GET_FLAG(huart, Flag) ? SET : RESET) == Status)
 800474e:	68fb      	ldr	r3, [r7, #12]
 8004750:	681b      	ldr	r3, [r3, #0]
 8004752:	69db      	ldr	r3, [r3, #28]
 8004754:	68ba      	ldr	r2, [r7, #8]
 8004756:	4013      	ands	r3, r2
 8004758:	68ba      	ldr	r2, [r7, #8]
 800475a:	1ad3      	subs	r3, r2, r3
 800475c:	425a      	negs	r2, r3
 800475e:	4153      	adcs	r3, r2
 8004760:	b2db      	uxtb	r3, r3
 8004762:	001a      	movs	r2, r3
 8004764:	1dfb      	adds	r3, r7, #7
 8004766:	781b      	ldrb	r3, [r3, #0]
 8004768:	429a      	cmp	r2, r3
 800476a:	d100      	bne.n	800476e <UART_WaitOnFlagUntilTimeout+0x182>
 800476c:	e747      	b.n	80045fe <UART_WaitOnFlagUntilTimeout+0x12>
        }
      }
    }
  }
  return HAL_OK;
 800476e:	2300      	movs	r3, #0
}
 8004770:	0018      	movs	r0, r3
 8004772:	46bd      	mov	sp, r7
 8004774:	b014      	add	sp, #80	; 0x50
 8004776:	bd80      	pop	{r7, pc}
 8004778:	fffffe5f 	.word	0xfffffe5f

0800477c <HAL_UARTEx_DisableFifoMode>:
  * @brief  Disable the FIFO mode.
  * @param huart      UART handle.
  * @retval HAL status
  */
HAL_StatusTypeDef HAL_UARTEx_DisableFifoMode(UART_HandleTypeDef *huart)
{
 800477c:	b580      	push	{r7, lr}
 800477e:	b084      	sub	sp, #16
 8004780:	af00      	add	r7, sp, #0
 8004782:	6078      	str	r0, [r7, #4]

  /* Check parameters */
  assert_param(IS_UART_FIFO_INSTANCE(huart->Instance));

  /* Process Locked */
  __HAL_LOCK(huart);
 8004784:	687b      	ldr	r3, [r7, #4]
 8004786:	2284      	movs	r2, #132	; 0x84
 8004788:	5c9b      	ldrb	r3, [r3, r2]
 800478a:	2b01      	cmp	r3, #1
 800478c:	d101      	bne.n	8004792 <HAL_UARTEx_DisableFifoMode+0x16>
 800478e:	2302      	movs	r3, #2
 8004790:	e027      	b.n	80047e2 <HAL_UARTEx_DisableFifoMode+0x66>
 8004792:	687b      	ldr	r3, [r7, #4]
 8004794:	2284      	movs	r2, #132	; 0x84
 8004796:	2101      	movs	r1, #1
 8004798:	5499      	strb	r1, [r3, r2]

  huart->gState = HAL_UART_STATE_BUSY;
 800479a:	687b      	ldr	r3, [r7, #4]
 800479c:	2288      	movs	r2, #136	; 0x88
 800479e:	2124      	movs	r1, #36	; 0x24
 80047a0:	5099      	str	r1, [r3, r2]

  /* Save actual UART configuration */
  tmpcr1 = READ_REG(huart->Instance->CR1);
 80047a2:	687b      	ldr	r3, [r7, #4]
 80047a4:	681b      	ldr	r3, [r3, #0]
 80047a6:	681b      	ldr	r3, [r3, #0]
 80047a8:	60fb      	str	r3, [r7, #12]

  /* Disable UART */
  __HAL_UART_DISABLE(huart);
 80047aa:	687b      	ldr	r3, [r7, #4]
 80047ac:	681b      	ldr	r3, [r3, #0]
 80047ae:	681a      	ldr	r2, [r3, #0]
 80047b0:	687b      	ldr	r3, [r7, #4]
 80047b2:	681b      	ldr	r3, [r3, #0]
 80047b4:	2101      	movs	r1, #1
 80047b6:	438a      	bics	r2, r1
 80047b8:	601a      	str	r2, [r3, #0]

  /* Enable FIFO mode */
  CLEAR_BIT(tmpcr1, USART_CR1_FIFOEN);
 80047ba:	68fb      	ldr	r3, [r7, #12]
 80047bc:	4a0b      	ldr	r2, [pc, #44]	; (80047ec <HAL_UARTEx_DisableFifoMode+0x70>)
 80047be:	4013      	ands	r3, r2
 80047c0:	60fb      	str	r3, [r7, #12]
  huart->FifoMode = UART_FIFOMODE_DISABLE;
 80047c2:	687b      	ldr	r3, [r7, #4]
 80047c4:	2200      	movs	r2, #0
 80047c6:	665a      	str	r2, [r3, #100]	; 0x64

  /* Restore UART configuration */
  WRITE_REG(huart->Instance->CR1, tmpcr1);
 80047c8:	687b      	ldr	r3, [r7, #4]
 80047ca:	681b      	ldr	r3, [r3, #0]
 80047cc:	68fa      	ldr	r2, [r7, #12]
 80047ce:	601a      	str	r2, [r3, #0]

  huart->gState = HAL_UART_STATE_READY;
 80047d0:	687b      	ldr	r3, [r7, #4]
 80047d2:	2288      	movs	r2, #136	; 0x88
 80047d4:	2120      	movs	r1, #32
 80047d6:	5099      	str	r1, [r3, r2]

  /* Process Unlocked */
  __HAL_UNLOCK(huart);
 80047d8:	687b      	ldr	r3, [r7, #4]
 80047da:	2284      	movs	r2, #132	; 0x84
 80047dc:	2100      	movs	r1, #0
 80047de:	5499      	strb	r1, [r3, r2]

  return HAL_OK;
 80047e0:	2300      	movs	r3, #0
}
 80047e2:	0018      	movs	r0, r3
 80047e4:	46bd      	mov	sp, r7
 80047e6:	b004      	add	sp, #16
 80047e8:	bd80      	pop	{r7, pc}
 80047ea:	46c0      	nop			; (mov r8, r8)
 80047ec:	dfffffff 	.word	0xdfffffff

080047f0 <HAL_UARTEx_SetTxFifoThreshold>:
  *            @arg @ref UART_TXFIFO_THRESHOLD_7_8
  *            @arg @ref UART_TXFIFO_THRESHOLD_8_8
  * @retval HAL status
  */
HAL_StatusTypeDef HAL_UARTEx_SetTxFifoThreshold(UART_HandleTypeDef *huart, uint32_t Threshold)
{
 80047f0:	b580      	push	{r7, lr}
 80047f2:	b084      	sub	sp, #16
 80047f4:	af00      	add	r7, sp, #0
 80047f6:	6078      	str	r0, [r7, #4]
 80047f8:	6039      	str	r1, [r7, #0]
  /* Check parameters */
  assert_param(IS_UART_FIFO_INSTANCE(huart->Instance));
  assert_param(IS_UART_TXFIFO_THRESHOLD(Threshold));

  /* Process Locked */
  __HAL_LOCK(huart);
 80047fa:	687b      	ldr	r3, [r7, #4]
 80047fc:	2284      	movs	r2, #132	; 0x84
 80047fe:	5c9b      	ldrb	r3, [r3, r2]
 8004800:	2b01      	cmp	r3, #1
 8004802:	d101      	bne.n	8004808 <HAL_UARTEx_SetTxFifoThreshold+0x18>
 8004804:	2302      	movs	r3, #2
 8004806:	e02e      	b.n	8004866 <HAL_UARTEx_SetTxFifoThreshold+0x76>
 8004808:	687b      	ldr	r3, [r7, #4]
 800480a:	2284      	movs	r2, #132	; 0x84
 800480c:	2101      	movs	r1, #1
 800480e:	5499      	strb	r1, [r3, r2]

  huart->gState = HAL_UART_STATE_BUSY;
 8004810:	687b      	ldr	r3, [r7, #4]
 8004812:	2288      	movs	r2, #136	; 0x88
 8004814:	2124      	movs	r1, #36	; 0x24
 8004816:	5099      	str	r1, [r3, r2]

  /* Save actual UART configuration */
  tmpcr1 = READ_REG(huart->Instance->CR1);
 8004818:	687b      	ldr	r3, [r7, #4]
 800481a:	681b      	ldr	r3, [r3, #0]
 800481c:	681b      	ldr	r3, [r3, #0]
 800481e:	60fb      	str	r3, [r7, #12]

  /* Disable UART */
  __HAL_UART_DISABLE(huart);
 8004820:	687b      	ldr	r3, [r7, #4]
 8004822:	681b      	ldr	r3, [r3, #0]
 8004824:	681a      	ldr	r2, [r3, #0]
 8004826:	687b      	ldr	r3, [r7, #4]
 8004828:	681b      	ldr	r3, [r3, #0]
 800482a:	2101      	movs	r1, #1
 800482c:	438a      	bics	r2, r1
 800482e:	601a      	str	r2, [r3, #0]

  /* Update TX threshold configuration */
  MODIFY_REG(huart->Instance->CR3, USART_CR3_TXFTCFG, Threshold);
 8004830:	687b      	ldr	r3, [r7, #4]
 8004832:	681b      	ldr	r3, [r3, #0]
 8004834:	689b      	ldr	r3, [r3, #8]
 8004836:	00db      	lsls	r3, r3, #3
 8004838:	08d9      	lsrs	r1, r3, #3
 800483a:	687b      	ldr	r3, [r7, #4]
 800483c:	681b      	ldr	r3, [r3, #0]
 800483e:	683a      	ldr	r2, [r7, #0]
 8004840:	430a      	orrs	r2, r1
 8004842:	609a      	str	r2, [r3, #8]

  /* Determine the number of data to process during RX/TX ISR execution */
  UARTEx_SetNbDataToProcess(huart);
 8004844:	687b      	ldr	r3, [r7, #4]
 8004846:	0018      	movs	r0, r3
 8004848:	f000 f854 	bl	80048f4 <UARTEx_SetNbDataToProcess>

  /* Restore UART configuration */
  WRITE_REG(huart->Instance->CR1, tmpcr1);
 800484c:	687b      	ldr	r3, [r7, #4]
 800484e:	681b      	ldr	r3, [r3, #0]
 8004850:	68fa      	ldr	r2, [r7, #12]
 8004852:	601a      	str	r2, [r3, #0]

  huart->gState = HAL_UART_STATE_READY;
 8004854:	687b      	ldr	r3, [r7, #4]
 8004856:	2288      	movs	r2, #136	; 0x88
 8004858:	2120      	movs	r1, #32
 800485a:	5099      	str	r1, [r3, r2]

  /* Process Unlocked */
  __HAL_UNLOCK(huart);
 800485c:	687b      	ldr	r3, [r7, #4]
 800485e:	2284      	movs	r2, #132	; 0x84
 8004860:	2100      	movs	r1, #0
 8004862:	5499      	strb	r1, [r3, r2]

  return HAL_OK;
 8004864:	2300      	movs	r3, #0
}
 8004866:	0018      	movs	r0, r3
 8004868:	46bd      	mov	sp, r7
 800486a:	b004      	add	sp, #16
 800486c:	bd80      	pop	{r7, pc}
	...

08004870 <HAL_UARTEx_SetRxFifoThreshold>:
  *            @arg @ref UART_RXFIFO_THRESHOLD_7_8
  *            @arg @ref UART_RXFIFO_THRESHOLD_8_8
  * @retval HAL status
  */
HAL_StatusTypeDef HAL_UARTEx_SetRxFifoThreshold(UART_HandleTypeDef *huart, uint32_t Threshold)
{
 8004870:	b580      	push	{r7, lr}
 8004872:	b084      	sub	sp, #16
 8004874:	af00      	add	r7, sp, #0
 8004876:	6078      	str	r0, [r7, #4]
 8004878:	6039      	str	r1, [r7, #0]
  /* Check the parameters */
  assert_param(IS_UART_FIFO_INSTANCE(huart->Instance));
  assert_param(IS_UART_RXFIFO_THRESHOLD(Threshold));

  /* Process Locked */
  __HAL_LOCK(huart);
 800487a:	687b      	ldr	r3, [r7, #4]
 800487c:	2284      	movs	r2, #132	; 0x84
 800487e:	5c9b      	ldrb	r3, [r3, r2]
 8004880:	2b01      	cmp	r3, #1
 8004882:	d101      	bne.n	8004888 <HAL_UARTEx_SetRxFifoThreshold+0x18>
 8004884:	2302      	movs	r3, #2
 8004886:	e02f      	b.n	80048e8 <HAL_UARTEx_SetRxFifoThreshold+0x78>
 8004888:	687b      	ldr	r3, [r7, #4]
 800488a:	2284      	movs	r2, #132	; 0x84
 800488c:	2101      	movs	r1, #1
 800488e:	5499      	strb	r1, [r3, r2]

  huart->gState = HAL_UART_STATE_BUSY;
 8004890:	687b      	ldr	r3, [r7, #4]
 8004892:	2288      	movs	r2, #136	; 0x88
 8004894:	2124      	movs	r1, #36	; 0x24
 8004896:	5099      	str	r1, [r3, r2]

  /* Save actual UART configuration */
  tmpcr1 = READ_REG(huart->Instance->CR1);
 8004898:	687b      	ldr	r3, [r7, #4]
 800489a:	681b      	ldr	r3, [r3, #0]
 800489c:	681b      	ldr	r3, [r3, #0]
 800489e:	60fb      	str	r3, [r7, #12]

  /* Disable UART */
  __HAL_UART_DISABLE(huart);
 80048a0:	687b      	ldr	r3, [r7, #4]
 80048a2:	681b      	ldr	r3, [r3, #0]
 80048a4:	681a      	ldr	r2, [r3, #0]
 80048a6:	687b      	ldr	r3, [r7, #4]
 80048a8:	681b      	ldr	r3, [r3, #0]
 80048aa:	2101      	movs	r1, #1
 80048ac:	438a      	bics	r2, r1
 80048ae:	601a      	str	r2, [r3, #0]

  /* Update RX threshold configuration */
  MODIFY_REG(huart->Instance->CR3, USART_CR3_RXFTCFG, Threshold);
 80048b0:	687b      	ldr	r3, [r7, #4]
 80048b2:	681b      	ldr	r3, [r3, #0]
 80048b4:	689b      	ldr	r3, [r3, #8]
 80048b6:	4a0e      	ldr	r2, [pc, #56]	; (80048f0 <HAL_UARTEx_SetRxFifoThreshold+0x80>)
 80048b8:	4013      	ands	r3, r2
 80048ba:	0019      	movs	r1, r3
 80048bc:	687b      	ldr	r3, [r7, #4]
 80048be:	681b      	ldr	r3, [r3, #0]
 80048c0:	683a      	ldr	r2, [r7, #0]
 80048c2:	430a      	orrs	r2, r1
 80048c4:	609a      	str	r2, [r3, #8]

  /* Determine the number of data to process during RX/TX ISR execution */
  UARTEx_SetNbDataToProcess(huart);
 80048c6:	687b      	ldr	r3, [r7, #4]
 80048c8:	0018      	movs	r0, r3
 80048ca:	f000 f813 	bl	80048f4 <UARTEx_SetNbDataToProcess>

  /* Restore UART configuration */
  WRITE_REG(huart->Instance->CR1, tmpcr1);
 80048ce:	687b      	ldr	r3, [r7, #4]
 80048d0:	681b      	ldr	r3, [r3, #0]
 80048d2:	68fa      	ldr	r2, [r7, #12]
 80048d4:	601a      	str	r2, [r3, #0]

  huart->gState = HAL_UART_STATE_READY;
 80048d6:	687b      	ldr	r3, [r7, #4]
 80048d8:	2288      	movs	r2, #136	; 0x88
 80048da:	2120      	movs	r1, #32
 80048dc:	5099      	str	r1, [r3, r2]

  /* Process Unlocked */
  __HAL_UNLOCK(huart);
 80048de:	687b      	ldr	r3, [r7, #4]
 80048e0:	2284      	movs	r2, #132	; 0x84
 80048e2:	2100      	movs	r1, #0
 80048e4:	5499      	strb	r1, [r3, r2]

  return HAL_OK;
 80048e6:	2300      	movs	r3, #0
}
 80048e8:	0018      	movs	r0, r3
 80048ea:	46bd      	mov	sp, r7
 80048ec:	b004      	add	sp, #16
 80048ee:	bd80      	pop	{r7, pc}
 80048f0:	f1ffffff 	.word	0xf1ffffff

080048f4 <UARTEx_SetNbDataToProcess>:
  *       the UART configuration registers.
  * @param huart UART handle.
  * @retval None
  */
static void UARTEx_SetNbDataToProcess(UART_HandleTypeDef *huart)
{
 80048f4:	b5f0      	push	{r4, r5, r6, r7, lr}
 80048f6:	b085      	sub	sp, #20
 80048f8:	af00      	add	r7, sp, #0
 80048fa:	6078      	str	r0, [r7, #4]
  uint8_t rx_fifo_threshold;
  uint8_t tx_fifo_threshold;
  static const uint8_t numerator[] = {1U, 1U, 1U, 3U, 7U, 1U, 0U, 0U};
  static const uint8_t denominator[] = {8U, 4U, 2U, 4U, 8U, 1U, 1U, 1U};

  if (huart->FifoMode == UART_FIFOMODE_DISABLE)
 80048fc:	687b      	ldr	r3, [r7, #4]
 80048fe:	6e5b      	ldr	r3, [r3, #100]	; 0x64
 8004900:	2b00      	cmp	r3, #0
 8004902:	d108      	bne.n	8004916 <UARTEx_SetNbDataToProcess+0x22>
  {
    huart->NbTxDataToProcess = 1U;
 8004904:	687b      	ldr	r3, [r7, #4]
 8004906:	226a      	movs	r2, #106	; 0x6a
 8004908:	2101      	movs	r1, #1
 800490a:	5299      	strh	r1, [r3, r2]
    huart->NbRxDataToProcess = 1U;
 800490c:	687b      	ldr	r3, [r7, #4]
 800490e:	2268      	movs	r2, #104	; 0x68
 8004910:	2101      	movs	r1, #1
 8004912:	5299      	strh	r1, [r3, r2]
    huart->NbTxDataToProcess = ((uint16_t)tx_fifo_depth * numerator[tx_fifo_threshold]) /
                               (uint16_t)denominator[tx_fifo_threshold];
    huart->NbRxDataToProcess = ((uint16_t)rx_fifo_depth * numerator[rx_fifo_threshold]) /
                               (uint16_t)denominator[rx_fifo_threshold];
  }
}
 8004914:	e043      	b.n	800499e <UARTEx_SetNbDataToProcess+0xaa>
    rx_fifo_depth = RX_FIFO_DEPTH;
 8004916:	260f      	movs	r6, #15
 8004918:	19bb      	adds	r3, r7, r6
 800491a:	2208      	movs	r2, #8
 800491c:	701a      	strb	r2, [r3, #0]
    tx_fifo_depth = TX_FIFO_DEPTH;
 800491e:	200e      	movs	r0, #14
 8004920:	183b      	adds	r3, r7, r0
 8004922:	2208      	movs	r2, #8
 8004924:	701a      	strb	r2, [r3, #0]
    rx_fifo_threshold = (uint8_t)(READ_BIT(huart->Instance->CR3, USART_CR3_RXFTCFG) >> USART_CR3_RXFTCFG_Pos);
 8004926:	687b      	ldr	r3, [r7, #4]
 8004928:	681b      	ldr	r3, [r3, #0]
 800492a:	689b      	ldr	r3, [r3, #8]
 800492c:	0e5b      	lsrs	r3, r3, #25
 800492e:	b2da      	uxtb	r2, r3
 8004930:	240d      	movs	r4, #13
 8004932:	193b      	adds	r3, r7, r4
 8004934:	2107      	movs	r1, #7
 8004936:	400a      	ands	r2, r1
 8004938:	701a      	strb	r2, [r3, #0]
    tx_fifo_threshold = (uint8_t)(READ_BIT(huart->Instance->CR3, USART_CR3_TXFTCFG) >> USART_CR3_TXFTCFG_Pos);
 800493a:	687b      	ldr	r3, [r7, #4]
 800493c:	681b      	ldr	r3, [r3, #0]
 800493e:	689b      	ldr	r3, [r3, #8]
 8004940:	0f5b      	lsrs	r3, r3, #29
 8004942:	b2da      	uxtb	r2, r3
 8004944:	250c      	movs	r5, #12
 8004946:	197b      	adds	r3, r7, r5
 8004948:	2107      	movs	r1, #7
 800494a:	400a      	ands	r2, r1
 800494c:	701a      	strb	r2, [r3, #0]
    huart->NbTxDataToProcess = ((uint16_t)tx_fifo_depth * numerator[tx_fifo_threshold]) /
 800494e:	183b      	adds	r3, r7, r0
 8004950:	781b      	ldrb	r3, [r3, #0]
 8004952:	197a      	adds	r2, r7, r5
 8004954:	7812      	ldrb	r2, [r2, #0]
 8004956:	4914      	ldr	r1, [pc, #80]	; (80049a8 <UARTEx_SetNbDataToProcess+0xb4>)
 8004958:	5c8a      	ldrb	r2, [r1, r2]
 800495a:	435a      	muls	r2, r3
 800495c:	0010      	movs	r0, r2
                               (uint16_t)denominator[tx_fifo_threshold];
 800495e:	197b      	adds	r3, r7, r5
 8004960:	781b      	ldrb	r3, [r3, #0]
 8004962:	4a12      	ldr	r2, [pc, #72]	; (80049ac <UARTEx_SetNbDataToProcess+0xb8>)
 8004964:	5cd3      	ldrb	r3, [r2, r3]
    huart->NbTxDataToProcess = ((uint16_t)tx_fifo_depth * numerator[tx_fifo_threshold]) /
 8004966:	0019      	movs	r1, r3
 8004968:	f7fb fc56 	bl	8000218 <__divsi3>
 800496c:	0003      	movs	r3, r0
 800496e:	b299      	uxth	r1, r3
 8004970:	687b      	ldr	r3, [r7, #4]
 8004972:	226a      	movs	r2, #106	; 0x6a
 8004974:	5299      	strh	r1, [r3, r2]
    huart->NbRxDataToProcess = ((uint16_t)rx_fifo_depth * numerator[rx_fifo_threshold]) /
 8004976:	19bb      	adds	r3, r7, r6
 8004978:	781b      	ldrb	r3, [r3, #0]
 800497a:	193a      	adds	r2, r7, r4
 800497c:	7812      	ldrb	r2, [r2, #0]
 800497e:	490a      	ldr	r1, [pc, #40]	; (80049a8 <UARTEx_SetNbDataToProcess+0xb4>)
 8004980:	5c8a      	ldrb	r2, [r1, r2]
 8004982:	435a      	muls	r2, r3
 8004984:	0010      	movs	r0, r2
                               (uint16_t)denominator[rx_fifo_threshold];
 8004986:	193b      	adds	r3, r7, r4
 8004988:	781b      	ldrb	r3, [r3, #0]
 800498a:	4a08      	ldr	r2, [pc, #32]	; (80049ac <UARTEx_SetNbDataToProcess+0xb8>)
 800498c:	5cd3      	ldrb	r3, [r2, r3]
    huart->NbRxDataToProcess = ((uint16_t)rx_fifo_depth * numerator[rx_fifo_threshold]) /
 800498e:	0019      	movs	r1, r3
 8004990:	f7fb fc42 	bl	8000218 <__divsi3>
 8004994:	0003      	movs	r3, r0
 8004996:	b299      	uxth	r1, r3
 8004998:	687b      	ldr	r3, [r7, #4]
 800499a:	2268      	movs	r2, #104	; 0x68
 800499c:	5299      	strh	r1, [r3, r2]
}
 800499e:	46c0      	nop			; (mov r8, r8)
 80049a0:	46bd      	mov	sp, r7
 80049a2:	b005      	add	sp, #20
 80049a4:	bdf0      	pop	{r4, r5, r6, r7, pc}
 80049a6:	46c0      	nop			; (mov r8, r8)
 80049a8:	08004d94 	.word	0x08004d94
 80049ac:	08004d9c 	.word	0x08004d9c

080049b0 <LED1202_RegisterBusIO>:
 * @param  pObj the device pObj
 * @param  pIO the IO pObj
 * @retval 0 in case of success, an error code otherwise
 */
int32_t LED1202_RegisterBusIO (LED1202_Object_TypeDef* pObj, LED1202_IO_TypeDef *pIO)
{
 80049b0:	b580      	push	{r7, lr}
 80049b2:	b084      	sub	sp, #16
 80049b4:	af00      	add	r7, sp, #0
 80049b6:	6078      	str	r0, [r7, #4]
 80049b8:	6039      	str	r1, [r7, #0]
  int32_t ret = (int32_t)LED1202_OK;
 80049ba:	2300      	movs	r3, #0
 80049bc:	60fb      	str	r3, [r7, #12]

  if (pObj == NULL)
 80049be:	687b      	ldr	r3, [r7, #4]
 80049c0:	2b00      	cmp	r3, #0
 80049c2:	d102      	bne.n	80049ca <LED1202_RegisterBusIO+0x1a>
  {
    ret = (int32_t)LED1202_ERROR;
 80049c4:	2303      	movs	r3, #3
 80049c6:	60fb      	str	r3, [r7, #12]
 80049c8:	e032      	b.n	8004a30 <LED1202_RegisterBusIO+0x80>
  }
  else
  {
    pObj->IO.BusType     = pIO->BusType;
 80049ca:	683b      	ldr	r3, [r7, #0]
 80049cc:	681a      	ldr	r2, [r3, #0]
 80049ce:	687b      	ldr	r3, [r7, #4]
 80049d0:	601a      	str	r2, [r3, #0]
    pObj->IO.Address     = pIO->Address;
 80049d2:	683b      	ldr	r3, [r7, #0]
 80049d4:	791a      	ldrb	r2, [r3, #4]
 80049d6:	687b      	ldr	r3, [r7, #4]
 80049d8:	711a      	strb	r2, [r3, #4]
    pObj->IO.Init        = pIO->Init;
 80049da:	683b      	ldr	r3, [r7, #0]
 80049dc:	689a      	ldr	r2, [r3, #8]
 80049de:	687b      	ldr	r3, [r7, #4]
 80049e0:	609a      	str	r2, [r3, #8]
    pObj->IO.DeInit      = pIO->DeInit;
 80049e2:	683b      	ldr	r3, [r7, #0]
 80049e4:	68da      	ldr	r2, [r3, #12]
 80049e6:	687b      	ldr	r3, [r7, #4]
 80049e8:	60da      	str	r2, [r3, #12]
    pObj->IO.Write       = pIO->Write;
 80049ea:	683b      	ldr	r3, [r7, #0]
 80049ec:	691a      	ldr	r2, [r3, #16]
 80049ee:	687b      	ldr	r3, [r7, #4]
 80049f0:	611a      	str	r2, [r3, #16]
    pObj->IO.Read        = pIO->Read;
 80049f2:	683b      	ldr	r3, [r7, #0]
 80049f4:	695a      	ldr	r2, [r3, #20]
 80049f6:	687b      	ldr	r3, [r7, #4]
 80049f8:	615a      	str	r2, [r3, #20]
    pObj->IO.Delay     =   pIO->Delay;
 80049fa:	683b      	ldr	r3, [r7, #0]
 80049fc:	699a      	ldr	r2, [r3, #24]
 80049fe:	687b      	ldr	r3, [r7, #4]
 8004a00:	619a      	str	r2, [r3, #24]

    pObj->Ctx.ReadReg  = ReadRegWrap;
 8004a02:	687b      	ldr	r3, [r7, #4]
 8004a04:	4a0d      	ldr	r2, [pc, #52]	; (8004a3c <LED1202_RegisterBusIO+0x8c>)
 8004a06:	621a      	str	r2, [r3, #32]
    pObj->Ctx.WriteReg = WriteRegWrap;
 8004a08:	687b      	ldr	r3, [r7, #4]
 8004a0a:	4a0d      	ldr	r2, [pc, #52]	; (8004a40 <LED1202_RegisterBusIO+0x90>)
 8004a0c:	61da      	str	r2, [r3, #28]
    pObj->Ctx.handle   = pObj;
 8004a0e:	687b      	ldr	r3, [r7, #4]
 8004a10:	687a      	ldr	r2, [r7, #4]
 8004a12:	625a      	str	r2, [r3, #36]	; 0x24

    if (pObj->IO.Init == NULL)
 8004a14:	687b      	ldr	r3, [r7, #4]
 8004a16:	689b      	ldr	r3, [r3, #8]
 8004a18:	2b00      	cmp	r3, #0
 8004a1a:	d102      	bne.n	8004a22 <LED1202_RegisterBusIO+0x72>
    {
      ret = (int32_t)LED1202_ERROR;
 8004a1c:	2303      	movs	r3, #3
 8004a1e:	60fb      	str	r3, [r7, #12]
 8004a20:	e006      	b.n	8004a30 <LED1202_RegisterBusIO+0x80>
    } else if (pObj->IO.Init() != 0) {
 8004a22:	687b      	ldr	r3, [r7, #4]
 8004a24:	689b      	ldr	r3, [r3, #8]
 8004a26:	4798      	blx	r3
 8004a28:	1e03      	subs	r3, r0, #0
 8004a2a:	d001      	beq.n	8004a30 <LED1202_RegisterBusIO+0x80>
      ret = (int32_t)LED1202_ERROR;
 8004a2c:	2303      	movs	r3, #3
 8004a2e:	60fb      	str	r3, [r7, #12]
    {
      /*DO nothing*/
    }
  }

  return ret;
 8004a30:	68fb      	ldr	r3, [r7, #12]
}
 8004a32:	0018      	movs	r0, r3
 8004a34:	46bd      	mov	sp, r7
 8004a36:	b004      	add	sp, #16
 8004a38:	bd80      	pop	{r7, pc}
 8004a3a:	46c0      	nop			; (mov r8, r8)
 8004a3c:	08001005 	.word	0x08001005
 8004a40:	08001049 	.word	0x08001049

08004a44 <LED1202_ReadID>:
 * @param  pID pointer to the buffer
 * @param  DevAddr 7-Bit Device Address
 * @retval 0 in case of success, an error code otherwise
 */
int32_t LED1202_ReadID(LED1202_Object_TypeDef* pObj, uint8_t *pID, uint8_t DevAddr)
{
 8004a44:	b580      	push	{r7, lr}
 8004a46:	b086      	sub	sp, #24
 8004a48:	af00      	add	r7, sp, #0
 8004a4a:	60f8      	str	r0, [r7, #12]
 8004a4c:	60b9      	str	r1, [r7, #8]
 8004a4e:	1dfb      	adds	r3, r7, #7
 8004a50:	701a      	strb	r2, [r3, #0]
  int32_t ret;
  pObj->IO.Address = DevAddr<<1;
 8004a52:	1dfb      	adds	r3, r7, #7
 8004a54:	781b      	ldrb	r3, [r3, #0]
 8004a56:	18db      	adds	r3, r3, r3
 8004a58:	b2da      	uxtb	r2, r3
 8004a5a:	68fb      	ldr	r3, [r7, #12]
 8004a5c:	711a      	strb	r2, [r3, #4]
  TmpStatus = LED1202_ReadReg(&(pObj->Ctx), LED1202_DEVICE_ID, pID, 1);
 8004a5e:	68fb      	ldr	r3, [r7, #12]
 8004a60:	331c      	adds	r3, #28
 8004a62:	0018      	movs	r0, r3
 8004a64:	68ba      	ldr	r2, [r7, #8]
 8004a66:	2301      	movs	r3, #1
 8004a68:	2100      	movs	r1, #0
 8004a6a:	f000 f8c8 	bl	8004bfe <LED1202_ReadReg>
 8004a6e:	0002      	movs	r2, r0
 8004a70:	4b07      	ldr	r3, [pc, #28]	; (8004a90 <LED1202_ReadID+0x4c>)
 8004a72:	601a      	str	r2, [r3, #0]
  
  if((*pID) == I_AM_LED1202)
 8004a74:	68bb      	ldr	r3, [r7, #8]
 8004a76:	781b      	ldrb	r3, [r3, #0]
 8004a78:	2b12      	cmp	r3, #18
 8004a7a:	d102      	bne.n	8004a82 <LED1202_ReadID+0x3e>
  {
    ret = (int32_t)LED1202_OK;
 8004a7c:	2300      	movs	r3, #0
 8004a7e:	617b      	str	r3, [r7, #20]
 8004a80:	e001      	b.n	8004a86 <LED1202_ReadID+0x42>
  }
  else
  {
    ret = (int32_t)LED1202_ERROR;
 8004a82:	2303      	movs	r3, #3
 8004a84:	617b      	str	r3, [r7, #20]
  }
  return (ret);
 8004a86:	697b      	ldr	r3, [r7, #20]
}
 8004a88:	0018      	movs	r0, r3
 8004a8a:	46bd      	mov	sp, r7
 8004a8c:	b006      	add	sp, #24
 8004a8e:	bd80      	pop	{r7, pc}
 8004a90:	200001e4 	.word	0x200001e4

08004a94 <LED1202_SetChannelState>:
 * @param  Channel LED_CHANNEL_0,LED_CHANNEL_1,LED_CHANNEL_2..LED_CHANNEL_11 can be passed
 * @param  DevAddr 7-Bit Device Address
 * @retval 0 in case of success, an error code otherwise
 */
int32_t LED1202_SetChannelState( LED1202_Object_TypeDef* pObj , uint16_t Channel ,StateEnum_TypeDef State, uint8_t DevAddr)
{
 8004a94:	b590      	push	{r4, r7, lr}
 8004a96:	b085      	sub	sp, #20
 8004a98:	af00      	add	r7, sp, #0
 8004a9a:	6078      	str	r0, [r7, #4]
 8004a9c:	000c      	movs	r4, r1
 8004a9e:	0010      	movs	r0, r2
 8004aa0:	0019      	movs	r1, r3
 8004aa2:	1cbb      	adds	r3, r7, #2
 8004aa4:	1c22      	adds	r2, r4, #0
 8004aa6:	801a      	strh	r2, [r3, #0]
 8004aa8:	1c7b      	adds	r3, r7, #1
 8004aaa:	1c02      	adds	r2, r0, #0
 8004aac:	701a      	strb	r2, [r3, #0]
 8004aae:	003b      	movs	r3, r7
 8004ab0:	1c0a      	adds	r2, r1, #0
 8004ab2:	701a      	strb	r2, [r3, #0]
  volatile int32_t ret;
  uint16_t readReg;
  uint16_t chRegVal;
  pObj->IO.Address = DevAddr<<1;
 8004ab4:	003b      	movs	r3, r7
 8004ab6:	781b      	ldrb	r3, [r3, #0]
 8004ab8:	18db      	adds	r3, r3, r3
 8004aba:	b2da      	uxtb	r2, r3
 8004abc:	687b      	ldr	r3, [r7, #4]
 8004abe:	711a      	strb	r2, [r3, #4]
  
  ret = LED1202_ReadReg(&(pObj->Ctx), LED1202_LED_CH_ENABLE, (uint8_t *)&readReg, 2);
 8004ac0:	687b      	ldr	r3, [r7, #4]
 8004ac2:	331c      	adds	r3, #28
 8004ac4:	0018      	movs	r0, r3
 8004ac6:	240a      	movs	r4, #10
 8004ac8:	193a      	adds	r2, r7, r4
 8004aca:	2302      	movs	r3, #2
 8004acc:	2102      	movs	r1, #2
 8004ace:	f000 f896 	bl	8004bfe <LED1202_ReadReg>
 8004ad2:	0003      	movs	r3, r0
 8004ad4:	60fb      	str	r3, [r7, #12]
    
  if(State == CH_STATE_ENABLE)
 8004ad6:	1c7b      	adds	r3, r7, #1
 8004ad8:	781b      	ldrb	r3, [r3, #0]
 8004ada:	2b00      	cmp	r3, #0
 8004adc:	d113      	bne.n	8004b06 <LED1202_SetChannelState+0x72>
  {
    chRegVal = readReg | Channel;
 8004ade:	193b      	adds	r3, r7, r4
 8004ae0:	881a      	ldrh	r2, [r3, #0]
 8004ae2:	1cbb      	adds	r3, r7, #2
 8004ae4:	881b      	ldrh	r3, [r3, #0]
 8004ae6:	4313      	orrs	r3, r2
 8004ae8:	b29a      	uxth	r2, r3
 8004aea:	2108      	movs	r1, #8
 8004aec:	187b      	adds	r3, r7, r1
 8004aee:	801a      	strh	r2, [r3, #0]
    ret = LED1202_WriteReg(&(pObj->Ctx), LED1202_LED_CH_ENABLE, (uint8_t *)&chRegVal, 2);
 8004af0:	687b      	ldr	r3, [r7, #4]
 8004af2:	331c      	adds	r3, #28
 8004af4:	0018      	movs	r0, r3
 8004af6:	187a      	adds	r2, r7, r1
 8004af8:	2302      	movs	r3, #2
 8004afa:	2102      	movs	r1, #2
 8004afc:	f000 f8a0 	bl	8004c40 <LED1202_WriteReg>
 8004b00:	0003      	movs	r3, r0
 8004b02:	60fb      	str	r3, [r7, #12]
 8004b04:	e036      	b.n	8004b74 <LED1202_SetChannelState+0xe0>
  }
  else if(State == CH_STATE_DISABLE)
 8004b06:	1c7b      	adds	r3, r7, #1
 8004b08:	781b      	ldrb	r3, [r3, #0]
 8004b0a:	2b01      	cmp	r3, #1
 8004b0c:	d119      	bne.n	8004b42 <LED1202_SetChannelState+0xae>
  {
    chRegVal = readReg & (~Channel);  
 8004b0e:	1cbb      	adds	r3, r7, #2
 8004b10:	2200      	movs	r2, #0
 8004b12:	5e9b      	ldrsh	r3, [r3, r2]
 8004b14:	43db      	mvns	r3, r3
 8004b16:	b21b      	sxth	r3, r3
 8004b18:	220a      	movs	r2, #10
 8004b1a:	18ba      	adds	r2, r7, r2
 8004b1c:	8812      	ldrh	r2, [r2, #0]
 8004b1e:	b212      	sxth	r2, r2
 8004b20:	4013      	ands	r3, r2
 8004b22:	b21b      	sxth	r3, r3
 8004b24:	b29a      	uxth	r2, r3
 8004b26:	2108      	movs	r1, #8
 8004b28:	187b      	adds	r3, r7, r1
 8004b2a:	801a      	strh	r2, [r3, #0]
    ret = LED1202_WriteReg(&(pObj->Ctx), LED1202_LED_CH_ENABLE, (uint8_t *)&chRegVal, 2);
 8004b2c:	687b      	ldr	r3, [r7, #4]
 8004b2e:	331c      	adds	r3, #28
 8004b30:	0018      	movs	r0, r3
 8004b32:	187a      	adds	r2, r7, r1
 8004b34:	2302      	movs	r3, #2
 8004b36:	2102      	movs	r1, #2
 8004b38:	f000 f882 	bl	8004c40 <LED1202_WriteReg>
 8004b3c:	0003      	movs	r3, r0
 8004b3e:	60fb      	str	r3, [r7, #12]
 8004b40:	e018      	b.n	8004b74 <LED1202_SetChannelState+0xe0>
  }
  else
  {
    chRegVal = readReg & (~Channel);
 8004b42:	1cbb      	adds	r3, r7, #2
 8004b44:	2200      	movs	r2, #0
 8004b46:	5e9b      	ldrsh	r3, [r3, r2]
 8004b48:	43db      	mvns	r3, r3
 8004b4a:	b21b      	sxth	r3, r3
 8004b4c:	220a      	movs	r2, #10
 8004b4e:	18ba      	adds	r2, r7, r2
 8004b50:	8812      	ldrh	r2, [r2, #0]
 8004b52:	b212      	sxth	r2, r2
 8004b54:	4013      	ands	r3, r2
 8004b56:	b21b      	sxth	r3, r3
 8004b58:	b29a      	uxth	r2, r3
 8004b5a:	2108      	movs	r1, #8
 8004b5c:	187b      	adds	r3, r7, r1
 8004b5e:	801a      	strh	r2, [r3, #0]
    ret = LED1202_WriteReg(&(pObj->Ctx), LED1202_LED_CH_ENABLE, (uint8_t *)&chRegVal, 2);
 8004b60:	687b      	ldr	r3, [r7, #4]
 8004b62:	331c      	adds	r3, #28
 8004b64:	0018      	movs	r0, r3
 8004b66:	187a      	adds	r2, r7, r1
 8004b68:	2302      	movs	r3, #2
 8004b6a:	2102      	movs	r1, #2
 8004b6c:	f000 f868 	bl	8004c40 <LED1202_WriteReg>
 8004b70:	0003      	movs	r3, r0
 8004b72:	60fb      	str	r3, [r7, #12]
  }
  return(ret);
 8004b74:	68fb      	ldr	r3, [r7, #12]
}
 8004b76:	0018      	movs	r0, r3
 8004b78:	46bd      	mov	sp, r7
 8004b7a:	b005      	add	sp, #20
 8004b7c:	bd90      	pop	{r4, r7, pc}

08004b7e <LED1202_WriteLEDCurrentReg>:
 * @param  Channel Channel number (0 to 11)
 * @param  DevAddr 7-Bit Device Address
 * @retval 0 in case of success, an error code otherwise
 */
int32_t LED1202_WriteLEDCurrentReg( LED1202_Object_TypeDef* pObj , uint8_t Current, uint16_t Channel, uint8_t DevAddr)
{
 8004b7e:	b590      	push	{r4, r7, lr}
 8004b80:	b085      	sub	sp, #20
 8004b82:	af00      	add	r7, sp, #0
 8004b84:	6078      	str	r0, [r7, #4]
 8004b86:	000c      	movs	r4, r1
 8004b88:	0010      	movs	r0, r2
 8004b8a:	0019      	movs	r1, r3
 8004b8c:	1cfb      	adds	r3, r7, #3
 8004b8e:	1c22      	adds	r2, r4, #0
 8004b90:	701a      	strb	r2, [r3, #0]
 8004b92:	003b      	movs	r3, r7
 8004b94:	1c02      	adds	r2, r0, #0
 8004b96:	801a      	strh	r2, [r3, #0]
 8004b98:	1cbb      	adds	r3, r7, #2
 8004b9a:	1c0a      	adds	r2, r1, #0
 8004b9c:	701a      	strb	r2, [r3, #0]
  int32_t ret;
  uint8_t currentRegValue;
  
  pObj->IO.Address = DevAddr<<1;
 8004b9e:	1cbb      	adds	r3, r7, #2
 8004ba0:	781b      	ldrb	r3, [r3, #0]
 8004ba2:	18db      	adds	r3, r3, r3
 8004ba4:	b2da      	uxtb	r2, r3
 8004ba6:	687b      	ldr	r3, [r7, #4]
 8004ba8:	711a      	strb	r2, [r3, #4]
  
  if(Current < MAX_CH_CURRENT)
 8004baa:	1cfb      	adds	r3, r7, #3
 8004bac:	781b      	ldrb	r3, [r3, #0]
 8004bae:	2b13      	cmp	r3, #19
 8004bb0:	d80e      	bhi.n	8004bd0 <LED1202_WriteLEDCurrentReg+0x52>
  {
    currentRegValue = (uint8_t ) (((uint16_t)Current *(uint16_t) MAX_VARIABLE)/(uint16_t)MAX_CH_CURRENT);
 8004bb2:	1cfb      	adds	r3, r7, #3
 8004bb4:	781a      	ldrb	r2, [r3, #0]
 8004bb6:	0013      	movs	r3, r2
 8004bb8:	021b      	lsls	r3, r3, #8
 8004bba:	1a9b      	subs	r3, r3, r2
 8004bbc:	2114      	movs	r1, #20
 8004bbe:	0018      	movs	r0, r3
 8004bc0:	f7fb fb2a 	bl	8000218 <__divsi3>
 8004bc4:	0003      	movs	r3, r0
 8004bc6:	b2da      	uxtb	r2, r3
 8004bc8:	230b      	movs	r3, #11
 8004bca:	18fb      	adds	r3, r7, r3
 8004bcc:	701a      	strb	r2, [r3, #0]
 8004bce:	e003      	b.n	8004bd8 <LED1202_WriteLEDCurrentReg+0x5a>
  }
  else
  {
    currentRegValue = MAX_VARIABLE;
 8004bd0:	230b      	movs	r3, #11
 8004bd2:	18fb      	adds	r3, r7, r3
 8004bd4:	22ff      	movs	r2, #255	; 0xff
 8004bd6:	701a      	strb	r2, [r3, #0]
  }
  
  ret = LED1202_WriteReg(&(pObj->Ctx), (LED1202_CS0_LED_CURRENT + Channel), &currentRegValue, 1); 
 8004bd8:	687b      	ldr	r3, [r7, #4]
 8004bda:	331c      	adds	r3, #28
 8004bdc:	0018      	movs	r0, r3
 8004bde:	003b      	movs	r3, r7
 8004be0:	881b      	ldrh	r3, [r3, #0]
 8004be2:	3309      	adds	r3, #9
 8004be4:	b299      	uxth	r1, r3
 8004be6:	230b      	movs	r3, #11
 8004be8:	18fa      	adds	r2, r7, r3
 8004bea:	2301      	movs	r3, #1
 8004bec:	f000 f828 	bl	8004c40 <LED1202_WriteReg>
 8004bf0:	0003      	movs	r3, r0
 8004bf2:	60fb      	str	r3, [r7, #12]
  
  return(ret);
 8004bf4:	68fb      	ldr	r3, [r7, #12]
}
 8004bf6:	0018      	movs	r0, r3
 8004bf8:	46bd      	mov	sp, r7
 8004bfa:	b005      	add	sp, #20
 8004bfc:	bd90      	pop	{r4, r7, pc}

08004bfe <LED1202_ReadReg>:
 8004bfe:	b5f0      	push	{r4, r5, r6, r7, lr}
 8004c00:	b087      	sub	sp, #28
 8004c02:	af00      	add	r7, sp, #0
 8004c04:	60f8      	str	r0, [r7, #12]
 8004c06:	0008      	movs	r0, r1
 8004c08:	607a      	str	r2, [r7, #4]
 8004c0a:	0019      	movs	r1, r3
 8004c0c:	250a      	movs	r5, #10
 8004c0e:	197b      	adds	r3, r7, r5
 8004c10:	1c02      	adds	r2, r0, #0
 8004c12:	801a      	strh	r2, [r3, #0]
 8004c14:	2608      	movs	r6, #8
 8004c16:	19bb      	adds	r3, r7, r6
 8004c18:	1c0a      	adds	r2, r1, #0
 8004c1a:	801a      	strh	r2, [r3, #0]
 8004c1c:	68fb      	ldr	r3, [r7, #12]
 8004c1e:	685c      	ldr	r4, [r3, #4]
 8004c20:	68fb      	ldr	r3, [r7, #12]
 8004c22:	6898      	ldr	r0, [r3, #8]
 8004c24:	197b      	adds	r3, r7, r5
 8004c26:	881b      	ldrh	r3, [r3, #0]
 8004c28:	b2d9      	uxtb	r1, r3
 8004c2a:	19bb      	adds	r3, r7, r6
 8004c2c:	881b      	ldrh	r3, [r3, #0]
 8004c2e:	687a      	ldr	r2, [r7, #4]
 8004c30:	47a0      	blx	r4
 8004c32:	0003      	movs	r3, r0
 8004c34:	617b      	str	r3, [r7, #20]
 8004c36:	697b      	ldr	r3, [r7, #20]
 8004c38:	0018      	movs	r0, r3
 8004c3a:	46bd      	mov	sp, r7
 8004c3c:	b007      	add	sp, #28
 8004c3e:	bdf0      	pop	{r4, r5, r6, r7, pc}

08004c40 <LED1202_WriteReg>:
 8004c40:	b5f0      	push	{r4, r5, r6, r7, lr}
 8004c42:	b087      	sub	sp, #28
 8004c44:	af00      	add	r7, sp, #0
 8004c46:	60f8      	str	r0, [r7, #12]
 8004c48:	0008      	movs	r0, r1
 8004c4a:	607a      	str	r2, [r7, #4]
 8004c4c:	0019      	movs	r1, r3
 8004c4e:	250a      	movs	r5, #10
 8004c50:	197b      	adds	r3, r7, r5
 8004c52:	1c02      	adds	r2, r0, #0
 8004c54:	801a      	strh	r2, [r3, #0]
 8004c56:	2608      	movs	r6, #8
 8004c58:	19bb      	adds	r3, r7, r6
 8004c5a:	1c0a      	adds	r2, r1, #0
 8004c5c:	801a      	strh	r2, [r3, #0]
 8004c5e:	68fb      	ldr	r3, [r7, #12]
 8004c60:	681c      	ldr	r4, [r3, #0]
 8004c62:	68fb      	ldr	r3, [r7, #12]
 8004c64:	6898      	ldr	r0, [r3, #8]
 8004c66:	197b      	adds	r3, r7, r5
 8004c68:	881b      	ldrh	r3, [r3, #0]
 8004c6a:	b2d9      	uxtb	r1, r3
 8004c6c:	19bb      	adds	r3, r7, r6
 8004c6e:	881b      	ldrh	r3, [r3, #0]
 8004c70:	687a      	ldr	r2, [r7, #4]
 8004c72:	47a0      	blx	r4
 8004c74:	0003      	movs	r3, r0
 8004c76:	617b      	str	r3, [r7, #20]
 8004c78:	697b      	ldr	r3, [r7, #20]
 8004c7a:	0018      	movs	r0, r3
 8004c7c:	46bd      	mov	sp, r7
 8004c7e:	b007      	add	sp, #28
 8004c80:	bdf0      	pop	{r4, r5, r6, r7, pc}
	...

08004c84 <__libc_init_array>:
 8004c84:	b570      	push	{r4, r5, r6, lr}
 8004c86:	2600      	movs	r6, #0
 8004c88:	4d0c      	ldr	r5, [pc, #48]	; (8004cbc <__libc_init_array+0x38>)
 8004c8a:	4c0d      	ldr	r4, [pc, #52]	; (8004cc0 <__libc_init_array+0x3c>)
 8004c8c:	1b64      	subs	r4, r4, r5
 8004c8e:	10a4      	asrs	r4, r4, #2
 8004c90:	42a6      	cmp	r6, r4
 8004c92:	d109      	bne.n	8004ca8 <__libc_init_array+0x24>
 8004c94:	2600      	movs	r6, #0
 8004c96:	f000 f821 	bl	8004cdc <_init>
 8004c9a:	4d0a      	ldr	r5, [pc, #40]	; (8004cc4 <__libc_init_array+0x40>)
 8004c9c:	4c0a      	ldr	r4, [pc, #40]	; (8004cc8 <__libc_init_array+0x44>)
 8004c9e:	1b64      	subs	r4, r4, r5
 8004ca0:	10a4      	asrs	r4, r4, #2
 8004ca2:	42a6      	cmp	r6, r4
 8004ca4:	d105      	bne.n	8004cb2 <__libc_init_array+0x2e>
 8004ca6:	bd70      	pop	{r4, r5, r6, pc}
 8004ca8:	00b3      	lsls	r3, r6, #2
 8004caa:	58eb      	ldr	r3, [r5, r3]
 8004cac:	4798      	blx	r3
 8004cae:	3601      	adds	r6, #1
 8004cb0:	e7ee      	b.n	8004c90 <__libc_init_array+0xc>
 8004cb2:	00b3      	lsls	r3, r6, #2
 8004cb4:	58eb      	ldr	r3, [r5, r3]
 8004cb6:	4798      	blx	r3
 8004cb8:	3601      	adds	r6, #1
 8004cba:	e7f2      	b.n	8004ca2 <__libc_init_array+0x1e>
 8004cbc:	08004dac 	.word	0x08004dac
 8004cc0:	08004dac 	.word	0x08004dac
 8004cc4:	08004dac 	.word	0x08004dac
 8004cc8:	08004db0 	.word	0x08004db0

08004ccc <memset>:
 8004ccc:	0003      	movs	r3, r0
 8004cce:	1882      	adds	r2, r0, r2
 8004cd0:	4293      	cmp	r3, r2
 8004cd2:	d100      	bne.n	8004cd6 <memset+0xa>
 8004cd4:	4770      	bx	lr
 8004cd6:	7019      	strb	r1, [r3, #0]
 8004cd8:	3301      	adds	r3, #1
 8004cda:	e7f9      	b.n	8004cd0 <memset+0x4>

08004cdc <_init>:
 8004cdc:	b5f8      	push	{r3, r4, r5, r6, r7, lr}
 8004cde:	46c0      	nop			; (mov r8, r8)
 8004ce0:	bcf8      	pop	{r3, r4, r5, r6, r7}
 8004ce2:	bc08      	pop	{r3}
 8004ce4:	469e      	mov	lr, r3
 8004ce6:	4770      	bx	lr

08004ce8 <_fini>:
 8004ce8:	b5f8      	push	{r3, r4, r5, r6, r7, lr}
 8004cea:	46c0      	nop			; (mov r8, r8)
 8004cec:	bcf8      	pop	{r3, r4, r5, r6, r7}
 8004cee:	bc08      	pop	{r3}
 8004cf0:	469e      	mov	lr, r3
 8004cf2:	4770      	bx	lr
